make[1]: 进入目录“/home/weihuan/WorkSpace/MyOS/os”

target/riscv64gc-unknown-none-elf/release/os:	file format elf64-littleriscv

Disassembly of section .text:

0000000080200000 <stext>:
; stext():
80200000: 2a 82        	mv	tp, a0
80200002: 93 02 15 00  	addi	t0, a0, 1
80200006: c2 02        	slli	t0, t0, 16

0000000080200008 <.Lpcrel_hi0>:
; .Lpcrel_hi0():
80200008: 17 31 00 00  	auipc	sp, 3
8020000c: 13 01 81 ff  	addi	sp, sp, -8
80200010: 16 91        	add	sp, sp, t0
80200012: 97 00 00 00  	auipc	ra, 0
80200016: e7 80 c0 1a  	jalr	428(ra)

000000008020001a <rust_begin_unwind>:
; rust_begin_unwind():
8020001a: 71 71        	addi	sp, sp, -176
8020001c: 06 f5        	sd	ra, 168(sp)
8020001e: 22 f1        	sd	s0, 160(sp)
80200020: 26 ed        	sd	s1, 152(sp)
80200022: 4a e9        	sd	s2, 144(sp)
80200024: 00 19        	addi	s0, sp, 176
80200026: 2a 89        	mv	s2, a0
80200028: 97 00 00 00  	auipc	ra, 0
8020002c: e7 80 c0 6f  	jalr	1788(ra)
80200030: 15 e5        	bnez	a0, 0x8020005c <.LBB0_10+0x16>
80200032: 4a 85        	mv	a0, s2
80200034: 97 00 00 00  	auipc	ra, 0
80200038: e7 80 c0 6e  	jalr	1772(ra)
8020003c: 2d e5        	bnez	a0, 0x802000a6 <.LBB0_12+0x16>

000000008020003e <.LBB0_9>:
; .LBB0_9():
8020003e: 17 25 00 00  	auipc	a0, 2
80200042: 13 05 a5 08  	addi	a0, a0, 138

0000000080200046 <.LBB0_10>:
; .LBB0_10():
80200046: 17 26 00 00  	auipc	a2, 2
8020004a: 13 06 26 00  	addi	a2, a2, 2
8020004e: 93 05 b0 02  	addi	a1, zero, 43
80200052: 97 00 00 00  	auipc	ra, 0
80200056: e7 80 60 6d  	jalr	1750(ra)
8020005a: 00 00        	unimp	
8020005c: aa 84        	mv	s1, a0
8020005e: 97 00 00 00  	auipc	ra, 0
80200062: e7 80 60 6b  	jalr	1718(ra)
80200066: 23 34 a4 f8  	sd	a0, -120(s0)
8020006a: 23 38 b4 f8  	sd	a1, -112(s0)
8020006e: 26 85        	mv	a0, s1
80200070: 97 00 00 00  	auipc	ra, 0
80200074: e7 80 c0 6a  	jalr	1708(ra)
80200078: 23 2e a4 f8  	sw	a0, -100(s0)
8020007c: 4a 85        	mv	a0, s2
8020007e: 97 00 00 00  	auipc	ra, 0
80200082: e7 80 20 6a  	jalr	1698(ra)
80200086: 41 e5        	bnez	a0, 0x8020010e <.LBB0_15+0x24>

0000000080200088 <.LBB0_11>:
; .LBB0_11():
80200088: 17 25 00 00  	auipc	a0, 2
8020008c: 13 05 05 04  	addi	a0, a0, 64

0000000080200090 <.LBB0_12>:
; .LBB0_12():
80200090: 17 26 00 00  	auipc	a2, 2
80200094: 13 06 06 02  	addi	a2, a2, 32
80200098: 93 05 b0 02  	addi	a1, zero, 43
8020009c: 97 00 00 00  	auipc	ra, 0
802000a0: e7 80 c0 68  	jalr	1676(ra)
802000a4: 00 00        	unimp	
802000a6: 23 34 a4 fa  	sd	a0, -88(s0)
802000aa: 13 05 84 fa  	addi	a0, s0, -88
802000ae: 23 3c a4 f4  	sd	a0, -168(s0)

00000000802000b2 <.LBB0_13>:
; .LBB0_13():
802000b2: 17 05 00 00  	auipc	a0, 0
802000b6: 13 05 85 62  	addi	a0, a0, 1576
802000ba: 23 30 a4 f6  	sd	a0, -160(s0)
802000be: 13 05 04 fb  	addi	a0, s0, -80
802000c2: 23 34 a4 f8  	sd	a0, -120(s0)

00000000802000c6 <.LBB0_14>:
; .LBB0_14():
802000c6: 17 25 00 00  	auipc	a0, 2
802000ca: 13 05 a5 f4  	addi	a0, a0, -182
802000ce: 23 38 a4 fa  	sd	a0, -80(s0)
802000d2: 09 45        	addi	a0, zero, 2
802000d4: 23 3c a4 fa  	sd	a0, -72(s0)
802000d8: 23 30 04 fc  	sd	zero, -64(s0)
802000dc: 13 05 84 f5  	addi	a0, s0, -168
802000e0: 23 38 a4 fc  	sd	a0, -48(s0)
802000e4: 05 45        	addi	a0, zero, 1
802000e6: 23 3c a4 fc  	sd	a0, -40(s0)

00000000802000ea <.LBB0_15>:
; .LBB0_15():
802000ea: 97 25 00 00  	auipc	a1, 2
802000ee: 93 85 65 0c  	addi	a1, a1, 198
802000f2: 13 05 84 f8  	addi	a0, s0, -120
802000f6: 13 06 04 fb  	addi	a2, s0, -80
802000fa: 97 00 00 00  	auipc	ra, 0
802000fe: e7 80 00 70  	jalr	1792(ra)
80200102: 49 e9        	bnez	a0, 0x80200194 <.LBB0_21>
80200104: 97 00 00 00  	auipc	ra, 0
80200108: e7 80 80 53  	jalr	1336(ra)
8020010c: 00 00        	unimp	
8020010e: 23 30 a4 fa  	sd	a0, -96(s0)
80200112: 13 05 84 f8  	addi	a0, s0, -120
80200116: 23 3c a4 f4  	sd	a0, -168(s0)

000000008020011a <.LBB0_16>:
; .LBB0_16():
8020011a: 17 05 00 00  	auipc	a0, 0
8020011e: 13 05 e5 59  	addi	a0, a0, 1438
80200122: 23 30 a4 f6  	sd	a0, -160(s0)
80200126: 13 05 c4 f9  	addi	a0, s0, -100
8020012a: 23 34 a4 f6  	sd	a0, -152(s0)

000000008020012e <.LBB0_17>:
; .LBB0_17():
8020012e: 17 15 00 00  	auipc	a0, 1
80200132: 13 05 45 ec  	addi	a0, a0, -316
80200136: 23 38 a4 f6  	sd	a0, -144(s0)
8020013a: 13 05 04 fa  	addi	a0, s0, -96
8020013e: 23 3c a4 f6  	sd	a0, -136(s0)

0000000080200142 <.LBB0_18>:
; .LBB0_18():
80200142: 17 05 00 00  	auipc	a0, 0
80200146: 13 05 85 59  	addi	a0, a0, 1432
8020014a: 23 30 a4 f8  	sd	a0, -128(s0)
8020014e: 13 05 04 fb  	addi	a0, s0, -80
80200152: 23 34 a4 fa  	sd	a0, -88(s0)

0000000080200156 <.LBB0_19>:
; .LBB0_19():
80200156: 17 25 00 00  	auipc	a0, 2
8020015a: 13 05 a5 f1  	addi	a0, a0, -230
8020015e: 23 38 a4 fa  	sd	a0, -80(s0)
80200162: 11 45        	addi	a0, zero, 4
80200164: 23 3c a4 fa  	sd	a0, -72(s0)
80200168: 23 30 04 fc  	sd	zero, -64(s0)
8020016c: 13 05 84 f5  	addi	a0, s0, -168
80200170: 23 38 a4 fc  	sd	a0, -48(s0)
80200174: 0d 45        	addi	a0, zero, 3
80200176: 23 3c a4 fc  	sd	a0, -40(s0)

000000008020017a <.LBB0_20>:
; .LBB0_20():
8020017a: 97 25 00 00  	auipc	a1, 2
8020017e: 93 85 65 03  	addi	a1, a1, 54
80200182: 13 05 84 fa  	addi	a0, s0, -88
80200186: 13 06 04 fb  	addi	a2, s0, -80
8020018a: 97 00 00 00  	auipc	ra, 0
8020018e: e7 80 00 67  	jalr	1648(ra)
80200192: 2d d9        	beqz	a0, 0x80200104 <.LBB0_15+0x1a>

0000000080200194 <.LBB0_21>:
; .LBB0_21():
80200194: 17 25 00 00  	auipc	a0, 2
80200198: 13 05 c5 fc  	addi	a0, a0, -52

000000008020019c <.LBB0_22>:
; .LBB0_22():
8020019c: 97 26 00 00  	auipc	a3, 2
802001a0: 93 86 46 ff  	addi	a3, a3, -12

00000000802001a4 <.LBB0_23>:
; .LBB0_23():
802001a4: 17 27 00 00  	auipc	a4, 2
802001a8: 13 07 47 fa  	addi	a4, a4, -92
802001ac: 93 05 b0 02  	addi	a1, zero, 43
802001b0: 13 06 04 fb  	addi	a2, s0, -80
802001b4: 97 00 00 00  	auipc	ra, 0
802001b8: e7 80 80 5c  	jalr	1480(ra)
802001bc: 00 00        	unimp	

00000000802001be <os_main>:
; os_main():
802001be: 19 71        	addi	sp, sp, -128
802001c0: 86 fc        	sd	ra, 120(sp)
802001c2: a2 f8        	sd	s0, 112(sp)
802001c4: a6 f4        	sd	s1, 104(sp)
802001c6: ca f0        	sd	s2, 96(sp)
802001c8: ce ec        	sd	s3, 88(sp)
802001ca: d2 e8        	sd	s4, 80(sp)
802001cc: 00 01        	addi	s0, sp, 128
802001ce: 23 30 a4 f8  	sd	a0, -128(s0)
802001d2: 13 05 04 fa  	addi	a0, s0, -96
802001d6: 23 34 a4 f8  	sd	a0, -120(s0)

00000000802001da <.LBB0_10>:
; .LBB0_10():
802001da: 17 25 00 00  	auipc	a0, 2
802001de: 13 05 65 f2  	addi	a0, a0, -218
802001e2: 23 30 a4 fa  	sd	a0, -96(s0)
802001e6: 05 49        	addi	s2, zero, 1
802001e8: 23 34 24 fb  	sd	s2, -88(s0)
802001ec: 23 38 04 fa  	sd	zero, -80(s0)

00000000802001f0 <.LBB0_11>:
; .LBB0_11():
802001f0: 17 25 00 00  	auipc	a0, 2
802001f4: 13 05 05 f2  	addi	a0, a0, -224
802001f8: 23 30 a4 fc  	sd	a0, -64(s0)
802001fc: 23 34 04 fc  	sd	zero, -56(s0)

0000000080200200 <.LBB0_12>:
; .LBB0_12():
80200200: 97 25 00 00  	auipc	a1, 2
80200204: 93 85 05 fb  	addi	a1, a1, -80
80200208: 13 0a 84 f8  	addi	s4, s0, -120
8020020c: 13 05 84 f8  	addi	a0, s0, -120
80200210: 13 06 04 fa  	addi	a2, s0, -96
80200214: 93 09 04 fa  	addi	s3, s0, -96
80200218: 97 00 00 00  	auipc	ra, 0
8020021c: e7 80 20 5e  	jalr	1506(ra)
80200220: 63 13 05 10  	bnez	a0, 0x80200326 <.LBB0_19>
80200224: 13 05 04 f8  	addi	a0, s0, -128
80200228: 23 34 a4 f8  	sd	a0, -120(s0)

000000008020022c <.LBB0_13>:
; .LBB0_13():
8020022c: 97 14 00 00  	auipc	s1, 1
80200230: 93 84 64 dd  	addi	s1, s1, -554
80200234: 23 38 94 f8  	sd	s1, -112(s0)
80200238: 23 3c 34 f9  	sd	s3, -104(s0)

000000008020023c <.LBB0_14>:
; .LBB0_14():
8020023c: 97 29 00 00  	auipc	s3, 2
80200240: 93 89 c9 ed  	addi	s3, s3, -292
80200244: 23 30 34 fb  	sd	s3, -96(s0)
80200248: 09 45        	addi	a0, zero, 2
8020024a: 23 34 a4 fa  	sd	a0, -88(s0)
8020024e: 23 38 04 fa  	sd	zero, -80(s0)
80200252: 23 30 44 fd  	sd	s4, -64(s0)
80200256: 23 34 24 fd  	sd	s2, -56(s0)

000000008020025a <.LBB0_15>:
; .LBB0_15():
8020025a: 97 25 00 00  	auipc	a1, 2
8020025e: 93 85 65 f5  	addi	a1, a1, -170
80200262: 13 05 84 f9  	addi	a0, s0, -104
80200266: 13 06 04 fa  	addi	a2, s0, -96
8020026a: 97 00 00 00  	auipc	ra, 0
8020026e: e7 80 00 59  	jalr	1424(ra)
80200272: 55 e9        	bnez	a0, 0x80200326 <.LBB0_19>
80200274: 03 35 04 f8  	ld	a0, -128(s0)
80200278: 39 c5        	beqz	a0, 0x802002c6 <.LBB0_17>
8020027a: 13 05 04 f8  	addi	a0, s0, -128
8020027e: 23 34 a4 f8  	sd	a0, -120(s0)
80200282: 23 38 94 f8  	sd	s1, -112(s0)
80200286: 13 05 04 fa  	addi	a0, s0, -96
8020028a: 23 3c a4 f8  	sd	a0, -104(s0)
8020028e: 23 30 34 fb  	sd	s3, -96(s0)
80200292: 09 45        	addi	a0, zero, 2
80200294: 23 34 a4 fa  	sd	a0, -88(s0)
80200298: 23 38 04 fa  	sd	zero, -80(s0)
8020029c: 13 05 84 f8  	addi	a0, s0, -120
802002a0: 23 30 a4 fc  	sd	a0, -64(s0)
802002a4: 05 45        	addi	a0, zero, 1
802002a6: 23 34 a4 fc  	sd	a0, -56(s0)

00000000802002aa <.LBB0_16>:
; .LBB0_16():
802002aa: 97 25 00 00  	auipc	a1, 2
802002ae: 93 85 65 f0  	addi	a1, a1, -250
802002b2: 13 05 84 f9  	addi	a0, s0, -104
802002b6: 13 06 04 fa  	addi	a2, s0, -96
802002ba: 97 00 00 00  	auipc	ra, 0
802002be: e7 80 00 54  	jalr	1344(ra)
802002c2: 35 e1        	bnez	a0, 0x80200326 <.LBB0_19>
802002c4: 01 a0        	j	0x802002c4 <.LBB0_16+0x1a>

00000000802002c6 <.LBB0_17>:
; .LBB0_17():
802002c6: 17 35 04 00  	auipc	a0, 67
802002ca: 13 05 a5 d3  	addi	a0, a0, -710

00000000802002ce <.LBB0_18>:
; .LBB0_18():
802002ce: 97 35 04 00  	auipc	a1, 67
802002d2: 93 85 25 d3  	addi	a1, a1, -718
802002d6: 63 f9 a5 00  	bgeu	a1, a0, 0x802002e8 <.LBB0_18+0x1a>
802002da: 13 86 15 00  	addi	a2, a1, 1
802002de: 23 80 05 00  	sb	zero, 0(a1)
802002e2: b2 85        	mv	a1, a2
802002e4: e3 6b a6 fe  	bltu	a2, a0, 0x802002da <.LBB0_18+0xc>
802002e8: 09 45        	addi	a0, zero, 2
802002ea: 23 30 a4 fa  	sd	a0, -96(s0)
802002ee: 91 46        	addi	a3, zero, 4
802002f0: 91 48        	addi	a7, zero, 4
802002f2: 13 05 04 fa  	addi	a0, s0, -96
802002f6: 81 45        	mv	a1, zero
802002f8: 01 46        	mv	a2, zero
802002fa: 73 00 00 00  	ecall	
802002fe: 23 30 d4 fa  	sd	a3, -96(s0)
80200302: 91 48        	addi	a7, zero, 4
80200304: 13 05 04 fa  	addi	a0, s0, -96
80200308: 81 45        	mv	a1, zero
8020030a: 01 46        	mv	a2, zero
8020030c: 73 00 00 00  	ecall	
80200310: 21 45        	addi	a0, zero, 8
80200312: 23 30 a4 fa  	sd	a0, -96(s0)
80200316: 91 48        	addi	a7, zero, 4
80200318: 13 05 04 fa  	addi	a0, s0, -96
8020031c: 81 45        	mv	a1, zero
8020031e: 01 46        	mv	a2, zero
80200320: 73 00 00 00  	ecall	
80200324: 01 a0        	j	0x80200324 <.LBB0_18+0x56>

0000000080200326 <.LBB0_19>:
; .LBB0_19():
80200326: 17 25 00 00  	auipc	a0, 2
8020032a: 13 05 a5 e3  	addi	a0, a0, -454

000000008020032e <.LBB0_20>:
; .LBB0_20():
8020032e: 97 26 00 00  	auipc	a3, 2
80200332: 93 86 26 e6  	addi	a3, a3, -414

0000000080200336 <.LBB0_21>:
; .LBB0_21():
80200336: 17 27 00 00  	auipc	a4, 2
8020033a: 13 07 27 e1  	addi	a4, a4, -494
8020033e: 93 05 b0 02  	addi	a1, zero, 43
80200342: 13 06 04 fa  	addi	a2, s0, -96
80200346: 97 00 00 00  	auipc	ra, 0
8020034a: e7 80 60 43  	jalr	1078(ra)
8020034e: 00 00        	unimp	

0000000080200350 <_ZN4core3ptr52drop_in_place$LT$$RF$mut$u20$os..console..Stdout$GT$17h2d77eb5b1bfe1265E.llvm.14457316870692140403>:
; _ZN4core3ptr52drop_in_place$LT$$RF$mut$u20$os..console..Stdout$GT$17h2d77eb5b1bfe1265E.llvm.14457316870692140403():
80200350: 41 11        	addi	sp, sp, -16
80200352: 06 e4        	sd	ra, 8(sp)
80200354: 22 e0        	sd	s0, 0(sp)
80200356: 00 08        	addi	s0, sp, 16
80200358: 02 64        	ld	s0, 0(sp)
8020035a: a2 60        	ld	ra, 8(sp)
8020035c: 41 01        	addi	sp, sp, 16
8020035e: 82 80        	ret

0000000080200360 <_ZN2os7console5print17hd0e60baa20815953E>:
; _ZN2os7console5print17hd0e60baa20815953E():
80200360: 5d 71        	addi	sp, sp, -80
80200362: 86 e4        	sd	ra, 72(sp)
80200364: a2 e0        	sd	s0, 64(sp)
80200366: 80 08        	addi	s0, sp, 80
80200368: 0c 75        	ld	a1, 40(a0)
8020036a: 10 71        	ld	a2, 32(a0)
8020036c: 93 06 04 fc  	addi	a3, s0, -64
80200370: 23 3c d4 fa  	sd	a3, -72(s0)
80200374: 23 34 b4 fe  	sd	a1, -24(s0)
80200378: 23 30 c4 fe  	sd	a2, -32(s0)
8020037c: 0c 6d        	ld	a1, 24(a0)
8020037e: 10 69        	ld	a2, 16(a0)
80200380: 14 65        	ld	a3, 8(a0)
80200382: 08 61        	ld	a0, 0(a0)
80200384: 23 3c b4 fc  	sd	a1, -40(s0)
80200388: 23 38 c4 fc  	sd	a2, -48(s0)
8020038c: 23 34 d4 fc  	sd	a3, -56(s0)
80200390: 23 30 a4 fc  	sd	a0, -64(s0)

0000000080200394 <.LBB1_3>:
; .LBB1_3():
80200394: 97 25 00 00  	auipc	a1, 2
80200398: 93 85 c5 e1  	addi	a1, a1, -484
8020039c: 13 05 84 fb  	addi	a0, s0, -72
802003a0: 13 06 04 fc  	addi	a2, s0, -64
802003a4: 97 00 00 00  	auipc	ra, 0
802003a8: e7 80 60 45  	jalr	1110(ra)
802003ac: 09 e5        	bnez	a0, 0x802003b6 <.LBB1_4>
802003ae: 06 64        	ld	s0, 64(sp)
802003b0: a6 60        	ld	ra, 72(sp)
802003b2: 61 61        	addi	sp, sp, 80
802003b4: 82 80        	ret

00000000802003b6 <.LBB1_4>:
; .LBB1_4():
802003b6: 17 25 00 00  	auipc	a0, 2
802003ba: 13 05 a5 da  	addi	a0, a0, -598

00000000802003be <.LBB1_5>:
; .LBB1_5():
802003be: 97 26 00 00  	auipc	a3, 2
802003c2: 93 86 26 dd  	addi	a3, a3, -558

00000000802003c6 <.LBB1_6>:
; .LBB1_6():
802003c6: 17 27 00 00  	auipc	a4, 2
802003ca: 13 07 27 d8  	addi	a4, a4, -638
802003ce: 93 05 b0 02  	addi	a1, zero, 43
802003d2: 13 06 04 fc  	addi	a2, s0, -64
802003d6: 97 00 00 00  	auipc	ra, 0
802003da: e7 80 60 3a  	jalr	934(ra)
802003de: 00 00        	unimp	

00000000802003e0 <_ZN50_$LT$$RF$mut$u20$W$u20$as$u20$core..fmt..Write$GT$9write_str17h52bdb691d3e959f6E.llvm.14457316870692140403>:
; _ZN50_$LT$$RF$mut$u20$W$u20$as$u20$core..fmt..Write$GT$9write_str17h52bdb691d3e959f6E.llvm.14457316870692140403():
802003e0: 41 11        	addi	sp, sp, -16
802003e2: 06 e4        	sd	ra, 8(sp)
802003e4: 22 e0        	sd	s0, 0(sp)
802003e6: 00 08        	addi	s0, sp, 16
802003e8: 41 c2        	beqz	a2, 0x80200468 <_ZN50_$LT$$RF$mut$u20$W$u20$as$u20$core..fmt..Write$GT$9write_str17h52bdb691d3e959f6E.llvm.14457316870692140403+0x88>
802003ea: ae 86        	mv	a3, a1
802003ec: 33 87 c5 00  	add	a4, a1, a2
802003f0: 13 03 f0 0d  	addi	t1, zero, 223
802003f4: 13 08 00 0f  	addi	a6, zero, 240
802003f8: b7 02 11 00  	lui	t0, 272
802003fc: 85 48        	addi	a7, zero, 1
802003fe: 01 a8        	j	0x8020040e <_ZN50_$LT$$RF$mut$u20$W$u20$as$u20$core..fmt..Write$GT$9write_str17h52bdb691d3e959f6E.llvm.14457316870692140403+0x2e>
80200400: 85 06        	addi	a3, a3, 1
80200402: 81 45        	mv	a1, zero
80200404: 01 46        	mv	a2, zero
80200406: 73 00 00 00  	ecall	
8020040a: 63 8f e6 04  	beq	a3, a4, 0x80200468 <_ZN50_$LT$$RF$mut$u20$W$u20$as$u20$core..fmt..Write$GT$9write_str17h52bdb691d3e959f6E.llvm.14457316870692140403+0x88>
8020040e: 83 85 06 00  	lb	a1, 0(a3)
80200412: 13 f5 f5 0f  	andi	a0, a1, 255
80200416: e3 d5 05 fe  	bgez	a1, 0x80200400 <_ZN50_$LT$$RF$mut$u20$W$u20$as$u20$core..fmt..Write$GT$9write_str17h52bdb691d3e959f6E.llvm.14457316870692140403+0x20>
8020041a: 03 c6 16 00  	lbu	a2, 1(a3)
8020041e: 93 75 f5 01  	andi	a1, a0, 31
80200422: 13 76 f6 03  	andi	a2, a2, 63
80200426: 63 77 a3 02  	bgeu	t1, a0, 0x80200454 <_ZN50_$LT$$RF$mut$u20$W$u20$as$u20$core..fmt..Write$GT$9write_str17h52bdb691d3e959f6E.llvm.14457316870692140403+0x74>
8020042a: 83 c7 26 00  	lbu	a5, 2(a3)
8020042e: 1a 06        	slli	a2, a2, 6
80200430: 93 f7 f7 03  	andi	a5, a5, 63
80200434: 5d 8e        	or	a2, a2, a5
80200436: 63 64 05 03  	bltu	a0, a6, 0x8020045e <_ZN50_$LT$$RF$mut$u20$W$u20$as$u20$core..fmt..Write$GT$9write_str17h52bdb691d3e959f6E.llvm.14457316870692140403+0x7e>
8020043a: 03 c5 36 00  	lbu	a0, 3(a3)
8020043e: f6 15        	slli	a1, a1, 61
80200440: ad 91        	srli	a1, a1, 43
80200442: 1a 06        	slli	a2, a2, 6
80200444: 13 75 f5 03  	andi	a0, a0, 63
80200448: 51 8d        	or	a0, a0, a2
8020044a: 4d 8d        	or	a0, a0, a1
8020044c: 63 0e 55 00  	beq	a0, t0, 0x80200468 <_ZN50_$LT$$RF$mut$u20$W$u20$as$u20$core..fmt..Write$GT$9write_str17h52bdb691d3e959f6E.llvm.14457316870692140403+0x88>
80200450: 91 06        	addi	a3, a3, 4
80200452: 45 bf        	j	0x80200402 <_ZN50_$LT$$RF$mut$u20$W$u20$as$u20$core..fmt..Write$GT$9write_str17h52bdb691d3e959f6E.llvm.14457316870692140403+0x22>
80200454: 89 06        	addi	a3, a3, 2
80200456: 13 95 65 00  	slli	a0, a1, 6
8020045a: 51 8d        	or	a0, a0, a2
8020045c: 5d b7        	j	0x80200402 <_ZN50_$LT$$RF$mut$u20$W$u20$as$u20$core..fmt..Write$GT$9write_str17h52bdb691d3e959f6E.llvm.14457316870692140403+0x22>
8020045e: 8d 06        	addi	a3, a3, 3
80200460: 13 95 c5 00  	slli	a0, a1, 12
80200464: 51 8d        	or	a0, a0, a2
80200466: 71 bf        	j	0x80200402 <_ZN50_$LT$$RF$mut$u20$W$u20$as$u20$core..fmt..Write$GT$9write_str17h52bdb691d3e959f6E.llvm.14457316870692140403+0x22>
80200468: 01 45        	mv	a0, zero
8020046a: 02 64        	ld	s0, 0(sp)
8020046c: a2 60        	ld	ra, 8(sp)
8020046e: 41 01        	addi	sp, sp, 16
80200470: 82 80        	ret

0000000080200472 <_ZN50_$LT$$RF$mut$u20$W$u20$as$u20$core..fmt..Write$GT$10write_char17h96830225ffd664bbE.llvm.14457316870692140403>:
; _ZN50_$LT$$RF$mut$u20$W$u20$as$u20$core..fmt..Write$GT$10write_char17h96830225ffd664bbE.llvm.14457316870692140403():
80200472: 01 11        	addi	sp, sp, -32
80200474: 06 ec        	sd	ra, 24(sp)
80200476: 22 e8        	sd	s0, 16(sp)
80200478: 00 10        	addi	s0, sp, 32
8020047a: 1b 85 05 00  	sext.w	a0, a1
8020047e: 13 06 00 08  	addi	a2, zero, 128
80200482: 23 26 04 fe  	sw	zero, -20(s0)
80200486: 63 76 c5 00  	bgeu	a0, a2, 0x80200492 <_ZN50_$LT$$RF$mut$u20$W$u20$as$u20$core..fmt..Write$GT$10write_char17h96830225ffd664bbE.llvm.14457316870692140403+0x20>
8020048a: 23 06 b4 fe  	sb	a1, -20(s0)
8020048e: 05 45        	addi	a0, zero, 1
80200490: 59 a8        	j	0x80200526 <_ZN50_$LT$$RF$mut$u20$W$u20$as$u20$core..fmt..Write$GT$10write_char17h96830225ffd664bbE.llvm.14457316870692140403+0xb4>
80200492: 1b d5 b5 00  	srliw	a0, a1, 11
80200496: 05 e1        	bnez	a0, 0x802004b6 <_ZN50_$LT$$RF$mut$u20$W$u20$as$u20$core..fmt..Write$GT$10write_char17h96830225ffd664bbE.llvm.14457316870692140403+0x44>
80200498: 13 d5 65 00  	srli	a0, a1, 6
8020049c: 93 f5 f5 03  	andi	a1, a1, 63
802004a0: 13 66 05 fc  	ori	a2, a0, -64
802004a4: 23 06 c4 fe  	sb	a2, -20(s0)
802004a8: 13 e5 05 08  	ori	a0, a1, 128
802004ac: a3 06 a4 fe  	sb	a0, -19(s0)
802004b0: 09 45        	addi	a0, zero, 2
802004b2: b2 85        	mv	a1, a2
802004b4: 8d a8        	j	0x80200526 <_ZN50_$LT$$RF$mut$u20$W$u20$as$u20$core..fmt..Write$GT$10write_char17h96830225ffd664bbE.llvm.14457316870692140403+0xb4>
802004b6: 1b d5 05 01  	srliw	a0, a1, 16
802004ba: 05 e9        	bnez	a0, 0x802004ea <_ZN50_$LT$$RF$mut$u20$W$u20$as$u20$core..fmt..Write$GT$10write_char17h96830225ffd664bbE.llvm.14457316870692140403+0x78>
802004bc: 1b d5 c5 00  	srliw	a0, a1, 12
802004c0: 1b d6 65 00  	srliw	a2, a1, 6
802004c4: 93 f5 f5 03  	andi	a1, a1, 63
802004c8: 93 66 05 fe  	ori	a3, a0, -32
802004cc: 23 06 d4 fe  	sb	a3, -20(s0)
802004d0: 13 75 f6 03  	andi	a0, a2, 63
802004d4: 13 65 05 08  	ori	a0, a0, 128
802004d8: a3 06 a4 fe  	sb	a0, -19(s0)
802004dc: 13 e5 05 08  	ori	a0, a1, 128
802004e0: 23 07 a4 fe  	sb	a0, -18(s0)
802004e4: 0d 45        	addi	a0, zero, 3
802004e6: b6 85        	mv	a1, a3
802004e8: 3d a8        	j	0x80200526 <_ZN50_$LT$$RF$mut$u20$W$u20$as$u20$core..fmt..Write$GT$10write_char17h96830225ffd664bbE.llvm.14457316870692140403+0xb4>
802004ea: 1b d5 25 01  	srliw	a0, a1, 18
802004ee: 1b d6 c5 00  	srliw	a2, a1, 12
802004f2: 9b d6 65 00  	srliw	a3, a1, 6
802004f6: 93 f5 f5 03  	andi	a1, a1, 63
802004fa: 13 67 05 ff  	ori	a4, a0, -16
802004fe: 23 06 e4 fe  	sb	a4, -20(s0)
80200502: 13 75 f6 03  	andi	a0, a2, 63
80200506: 13 65 05 08  	ori	a0, a0, 128
8020050a: a3 06 a4 fe  	sb	a0, -19(s0)
8020050e: 13 f5 f6 03  	andi	a0, a3, 63
80200512: 13 65 05 08  	ori	a0, a0, 128
80200516: 23 07 a4 fe  	sb	a0, -18(s0)
8020051a: 13 e5 05 08  	ori	a0, a1, 128
8020051e: a3 07 a4 fe  	sb	a0, -17(s0)
80200522: 11 45        	addi	a0, zero, 4
80200524: ba 85        	mv	a1, a4
80200526: 93 06 c4 fe  	addi	a3, s0, -20
8020052a: 33 87 a6 00  	add	a4, a3, a0
8020052e: 13 03 f0 0d  	addi	t1, zero, 223
80200532: 13 08 00 0f  	addi	a6, zero, 240
80200536: b7 02 11 00  	lui	t0, 272
8020053a: 85 48        	addi	a7, zero, 1
8020053c: 13 95 85 03  	slli	a0, a1, 56
80200540: 13 56 85 43  	srai	a2, a0, 56
80200544: 13 f5 f5 0f  	andi	a0, a1, 255
80200548: 63 4a 06 00  	bltz	a2, 0x8020055c <_ZN50_$LT$$RF$mut$u20$W$u20$as$u20$core..fmt..Write$GT$10write_char17h96830225ffd664bbE.llvm.14457316870692140403+0xea>
8020054c: 85 06        	addi	a3, a3, 1
8020054e: 81 45        	mv	a1, zero
80200550: 01 46        	mv	a2, zero
80200552: 73 00 00 00  	ecall	
80200556: 63 9a e6 06  	bne	a3, a4, 0x802005ca <_ZN50_$LT$$RF$mut$u20$W$u20$as$u20$core..fmt..Write$GT$10write_char17h96830225ffd664bbE.llvm.14457316870692140403+0x158>
8020055a: 59 a0        	j	0x802005e0 <_ZN50_$LT$$RF$mut$u20$W$u20$as$u20$core..fmt..Write$GT$10write_char17h96830225ffd664bbE.llvm.14457316870692140403+0x16e>
8020055c: 03 c6 16 00  	lbu	a2, 1(a3)
80200560: fd 89        	andi	a1, a1, 31
80200562: 13 76 f6 03  	andi	a2, a2, 63
80200566: 63 7d a3 02  	bgeu	t1, a0, 0x802005a0 <_ZN50_$LT$$RF$mut$u20$W$u20$as$u20$core..fmt..Write$GT$10write_char17h96830225ffd664bbE.llvm.14457316870692140403+0x12e>
8020056a: 83 c7 26 00  	lbu	a5, 2(a3)
8020056e: 1a 06        	slli	a2, a2, 6
80200570: 93 f7 f7 03  	andi	a5, a5, 63
80200574: 5d 8e        	or	a2, a2, a5
80200576: 63 60 05 05  	bltu	a0, a6, 0x802005b6 <_ZN50_$LT$$RF$mut$u20$W$u20$as$u20$core..fmt..Write$GT$10write_char17h96830225ffd664bbE.llvm.14457316870692140403+0x144>
8020057a: 03 c5 36 00  	lbu	a0, 3(a3)
8020057e: f6 15        	slli	a1, a1, 61
80200580: ad 91        	srli	a1, a1, 43
80200582: 1a 06        	slli	a2, a2, 6
80200584: 13 75 f5 03  	andi	a0, a0, 63
80200588: 51 8d        	or	a0, a0, a2
8020058a: 4d 8d        	or	a0, a0, a1
8020058c: 63 0a 55 04  	beq	a0, t0, 0x802005e0 <_ZN50_$LT$$RF$mut$u20$W$u20$as$u20$core..fmt..Write$GT$10write_char17h96830225ffd664bbE.llvm.14457316870692140403+0x16e>
80200590: 91 06        	addi	a3, a3, 4
80200592: 81 45        	mv	a1, zero
80200594: 01 46        	mv	a2, zero
80200596: 73 00 00 00  	ecall	
8020059a: 63 98 e6 02  	bne	a3, a4, 0x802005ca <_ZN50_$LT$$RF$mut$u20$W$u20$as$u20$core..fmt..Write$GT$10write_char17h96830225ffd664bbE.llvm.14457316870692140403+0x158>
8020059e: 89 a0        	j	0x802005e0 <_ZN50_$LT$$RF$mut$u20$W$u20$as$u20$core..fmt..Write$GT$10write_char17h96830225ffd664bbE.llvm.14457316870692140403+0x16e>
802005a0: 89 06        	addi	a3, a3, 2
802005a2: 13 95 65 00  	slli	a0, a1, 6
802005a6: 51 8d        	or	a0, a0, a2
802005a8: 81 45        	mv	a1, zero
802005aa: 01 46        	mv	a2, zero
802005ac: 73 00 00 00  	ecall	
802005b0: 63 9d e6 00  	bne	a3, a4, 0x802005ca <_ZN50_$LT$$RF$mut$u20$W$u20$as$u20$core..fmt..Write$GT$10write_char17h96830225ffd664bbE.llvm.14457316870692140403+0x158>
802005b4: 35 a0        	j	0x802005e0 <_ZN50_$LT$$RF$mut$u20$W$u20$as$u20$core..fmt..Write$GT$10write_char17h96830225ffd664bbE.llvm.14457316870692140403+0x16e>
802005b6: 8d 06        	addi	a3, a3, 3
802005b8: 13 95 c5 00  	slli	a0, a1, 12
802005bc: 51 8d        	or	a0, a0, a2
802005be: 81 45        	mv	a1, zero
802005c0: 01 46        	mv	a2, zero
802005c2: 73 00 00 00  	ecall	
802005c6: 63 8d e6 00  	beq	a3, a4, 0x802005e0 <_ZN50_$LT$$RF$mut$u20$W$u20$as$u20$core..fmt..Write$GT$10write_char17h96830225ffd664bbE.llvm.14457316870692140403+0x16e>
802005ca: 83 c5 06 00  	lbu	a1, 0(a3)
802005ce: 13 95 85 03  	slli	a0, a1, 56
802005d2: 13 56 85 43  	srai	a2, a0, 56
802005d6: 13 f5 f5 0f  	andi	a0, a1, 255
802005da: e3 59 06 f6  	bgez	a2, 0x8020054c <_ZN50_$LT$$RF$mut$u20$W$u20$as$u20$core..fmt..Write$GT$10write_char17h96830225ffd664bbE.llvm.14457316870692140403+0xda>
802005de: bd bf        	j	0x8020055c <_ZN50_$LT$$RF$mut$u20$W$u20$as$u20$core..fmt..Write$GT$10write_char17h96830225ffd664bbE.llvm.14457316870692140403+0xea>
802005e0: 01 45        	mv	a0, zero
802005e2: 42 64        	ld	s0, 16(sp)
802005e4: e2 60        	ld	ra, 24(sp)
802005e6: 05 61        	addi	sp, sp, 32
802005e8: 82 80        	ret

00000000802005ea <_ZN50_$LT$$RF$mut$u20$W$u20$as$u20$core..fmt..Write$GT$9write_fmt17h2dfa13f7aa695999E.llvm.14457316870692140403>:
; _ZN50_$LT$$RF$mut$u20$W$u20$as$u20$core..fmt..Write$GT$9write_fmt17h2dfa13f7aa695999E.llvm.14457316870692140403():
802005ea: 5d 71        	addi	sp, sp, -80
802005ec: 86 e4        	sd	ra, 72(sp)
802005ee: a2 e0        	sd	s0, 64(sp)
802005f0: 80 08        	addi	s0, sp, 80
802005f2: 08 61        	ld	a0, 0(a0)
802005f4: 90 75        	ld	a2, 40(a1)
802005f6: 94 71        	ld	a3, 32(a1)
802005f8: 23 3c a4 fa  	sd	a0, -72(s0)
802005fc: 23 34 c4 fe  	sd	a2, -24(s0)
80200600: 23 30 d4 fe  	sd	a3, -32(s0)
80200604: 88 6d        	ld	a0, 24(a1)
80200606: 90 69        	ld	a2, 16(a1)
80200608: 94 65        	ld	a3, 8(a1)
8020060a: 8c 61        	ld	a1, 0(a1)
8020060c: 23 3c a4 fc  	sd	a0, -40(s0)
80200610: 23 38 c4 fc  	sd	a2, -48(s0)
80200614: 23 34 d4 fc  	sd	a3, -56(s0)
80200618: 23 30 b4 fc  	sd	a1, -64(s0)

000000008020061c <.LBB4_1>:
; .LBB4_1():
8020061c: 97 25 00 00  	auipc	a1, 2
80200620: 93 85 45 b9  	addi	a1, a1, -1132
80200624: 13 05 84 fb  	addi	a0, s0, -72
80200628: 13 06 04 fc  	addi	a2, s0, -64
8020062c: 97 00 00 00  	auipc	ra, 0
80200630: e7 80 e0 1c  	jalr	462(ra)
80200634: 06 64        	ld	s0, 64(sp)
80200636: a6 60        	ld	ra, 72(sp)
80200638: 61 61        	addi	sp, sp, 80
8020063a: 82 80        	ret

000000008020063c <_ZN2os3sbi8shutdown17h1849b95cc5782f2bE>:
; _ZN2os3sbi8shutdown17h1849b95cc5782f2bE():
8020063c: 5d 71        	addi	sp, sp, -80
8020063e: 86 e4        	sd	ra, 72(sp)
80200640: a2 e0        	sd	s0, 64(sp)
80200642: 26 fc        	sd	s1, 56(sp)
80200644: 4a f8        	sd	s2, 48(sp)
80200646: 80 08        	addi	s0, sp, 80

0000000080200648 <.LBB1_1>:
; .LBB1_1():
80200648: 17 25 00 00  	auipc	a0, 2
8020064c: 13 05 85 ba  	addi	a0, a0, -1112
80200650: 23 38 a4 fa  	sd	a0, -80(s0)
80200654: 05 49        	addi	s2, zero, 1
80200656: 23 3c 24 fb  	sd	s2, -72(s0)
8020065a: 23 30 04 fc  	sd	zero, -64(s0)

000000008020065e <.LBB1_2>:
; .LBB1_2():
8020065e: 97 24 00 00  	auipc	s1, 2
80200662: 93 84 24 ba  	addi	s1, s1, -1118
80200666: 23 38 94 fc  	sd	s1, -48(s0)
8020066a: 23 3c 04 fc  	sd	zero, -40(s0)
8020066e: 13 05 04 fb  	addi	a0, s0, -80
80200672: 97 00 00 00  	auipc	ra, 0
80200676: e7 80 e0 ce  	jalr	-786(ra)
8020067a: a1 48        	addi	a7, zero, 8
8020067c: 81 45        	mv	a1, zero
8020067e: 01 46        	mv	a2, zero
80200680: 01 45        	mv	a0, zero
80200682: 73 00 00 00  	ecall	

0000000080200686 <.LBB1_3>:
; .LBB1_3():
80200686: 17 25 00 00  	auipc	a0, 2
8020068a: 13 05 25 b9  	addi	a0, a0, -1134
8020068e: 23 38 a4 fa  	sd	a0, -80(s0)
80200692: 23 3c 24 fb  	sd	s2, -72(s0)
80200696: 23 30 04 fc  	sd	zero, -64(s0)
8020069a: 23 38 94 fc  	sd	s1, -48(s0)
8020069e: 23 3c 04 fc  	sd	zero, -40(s0)

00000000802006a2 <.LBB1_4>:
; .LBB1_4():
802006a2: 97 25 00 00  	auipc	a1, 2
802006a6: 93 85 65 b9  	addi	a1, a1, -1130
802006aa: 13 05 04 fb  	addi	a0, s0, -80
802006ae: 97 00 00 00  	auipc	ra, 0
802006b2: e7 80 60 0a  	jalr	166(ra)
802006b6: 00 00        	unimp	

00000000802006b8 <_ZN44_$LT$$RF$T$u20$as$u20$core..fmt..Display$GT$3fmt17hbb2c55defc31368cE>:
; _ZN44_$LT$$RF$T$u20$as$u20$core..fmt..Display$GT$3fmt17hbb2c55defc31368cE():
802006b8: 41 11        	addi	sp, sp, -16
802006ba: 06 e4        	sd	ra, 8(sp)
802006bc: 22 e0        	sd	s0, 0(sp)
802006be: 00 08        	addi	s0, sp, 16
802006c0: 10 61        	ld	a2, 0(a0)
802006c2: 14 65        	ld	a3, 8(a0)
802006c4: 2e 87        	mv	a4, a1
802006c6: 32 85        	mv	a0, a2
802006c8: b6 85        	mv	a1, a3
802006ca: 3a 86        	mv	a2, a4
802006cc: 02 64        	ld	s0, 0(sp)
802006ce: a2 60        	ld	ra, 8(sp)
802006d0: 41 01        	addi	sp, sp, 16
802006d2: 17 03 00 00  	auipc	t1, 0
802006d6: 67 00 e3 79  	jr	1950(t1)

00000000802006da <_ZN44_$LT$$RF$T$u20$as$u20$core..fmt..Display$GT$3fmt17he4f0551a8944effeE>:
; _ZN44_$LT$$RF$T$u20$as$u20$core..fmt..Display$GT$3fmt17he4f0551a8944effeE():
802006da: 41 11        	addi	sp, sp, -16
802006dc: 06 e4        	sd	ra, 8(sp)
802006de: 22 e0        	sd	s0, 0(sp)
802006e0: 00 08        	addi	s0, sp, 16
802006e2: 08 61        	ld	a0, 0(a0)
802006e4: 02 64        	ld	s0, 0(sp)
802006e6: a2 60        	ld	ra, 8(sp)
802006e8: 41 01        	addi	sp, sp, 16
802006ea: 17 03 00 00  	auipc	t1, 0
802006ee: 67 00 e3 0d  	jr	222(t1)

00000000802006f2 <_ZN4core3ops8function6FnOnce9call_once17ha977706b00eeb46bE>:
; _ZN4core3ops8function6FnOnce9call_once17ha977706b00eeb46bE():
; /rustc/9ad5d82f822b3cb67637f11be2e65c5662b66ec0/library/core/src/ptr/mod.rs:1056
802006f2: 08 61        	ld	a0, 0(a0)
; /rustc/9ad5d82f822b3cb67637f11be2e65c5662b66ec0/library/core/src/fmt/mod.rs:308
802006f4: 01 a0        	j	0x802006f4 <_ZN4core3ops8function6FnOnce9call_once17ha977706b00eeb46bE+0x2>

00000000802006f6 <_ZN4core3ptr102drop_in_place$LT$$RF$core..iter..adapters..copied..Copied$LT$core..slice..iter..Iter$LT$u8$GT$$GT$$GT$17hd038234f0759b36cE>:
; _ZN4core3ptr102drop_in_place$LT$$RF$core..iter..adapters..copied..Copied$LT$core..slice..iter..Iter$LT$u8$GT$$GT$$GT$17hd038234f0759b36cE():
; /rustc/9ad5d82f822b3cb67637f11be2e65c5662b66ec0/library/core/src/ptr/mod.rs:188
802006f6: 82 80        	ret

00000000802006f8 <_ZN36_$LT$T$u20$as$u20$core..any..Any$GT$7type_id17h1ae457c70e6ed10aE>:
; _ZN36_$LT$T$u20$as$u20$core..any..Any$GT$7type_id17h1ae457c70e6ed10aE():
; /rustc/9ad5d82f822b3cb67637f11be2e65c5662b66ec0/library/core/src/any.rs:133
802006f8: 37 55 b7 ff  	lui	a0, 1047413
802006fc: 1b 05 d5 73  	addiw	a0, a0, 1853
80200700: 32 05        	slli	a0, a0, 12
80200702: 13 05 b5 7f  	addi	a0, a0, 2043
80200706: 42 05        	slli	a0, a0, 16
80200708: 13 05 f5 35  	addi	a0, a0, 863
8020070c: 32 05        	slli	a0, a0, 12
8020070e: 13 05 d5 bc  	addi	a0, a0, -1075
; /rustc/9ad5d82f822b3cb67637f11be2e65c5662b66ec0/library/core/src/any.rs:135
80200712: 82 80        	ret

0000000080200714 <_ZN4core5panic8location8Location4file17ha32f2dfd499fe4c3E>:
; _ZN4core5panic8location8Location4file17ha32f2dfd499fe4c3E():
; /rustc/9ad5d82f822b3cb67637f11be2e65c5662b66ec0/library/core/src/panic/location.rs:126
80200714: 10 61        	ld	a2, 0(a0)
80200716: 0c 65        	ld	a1, 8(a0)
; /rustc/9ad5d82f822b3cb67637f11be2e65c5662b66ec0/library/core/src/panic/location.rs:127
80200718: 32 85        	mv	a0, a2
8020071a: 82 80        	ret

000000008020071c <_ZN4core5panic8location8Location4line17h48afce8c0e4aaa20E>:
; _ZN4core5panic8location8Location4line17h48afce8c0e4aaa20E():
; /rustc/9ad5d82f822b3cb67637f11be2e65c5662b66ec0/library/core/src/panic/location.rs:150
8020071c: 08 49        	lw	a0, 16(a0)
8020071e: 82 80        	ret

0000000080200720 <_ZN4core5panic10panic_info9PanicInfo7message17h091569c2c26ddd09E>:
; _ZN4core5panic10panic_info9PanicInfo7message17h091569c2c26ddd09E():
; /rustc/9ad5d82f822b3cb67637f11be2e65c5662b66ec0/library/core/src/panic/panic_info.rs:96
80200720: 08 69        	ld	a0, 16(a0)
; /rustc/9ad5d82f822b3cb67637f11be2e65c5662b66ec0/library/core/src/panic/panic_info.rs:97
80200722: 82 80        	ret

0000000080200724 <_ZN4core5panic10panic_info9PanicInfo8location17hd283d51ebd03caf8E>:
; _ZN4core5panic10panic_info9PanicInfo8location17hd283d51ebd03caf8E():
; /rustc/9ad5d82f822b3cb67637f11be2e65c5662b66ec0/library/core/src/panic/panic_info.rs:128
80200724: 08 6d        	ld	a0, 24(a0)
; /rustc/9ad5d82f822b3cb67637f11be2e65c5662b66ec0/library/core/src/panic/panic_info.rs:129
80200726: 82 80        	ret

0000000080200728 <_ZN4core9panicking5panic17h73df0f6209ce4d26E>:
; _ZN4core9panicking5panic17h73df0f6209ce4d26E():
; /rustc/9ad5d82f822b3cb67637f11be2e65c5662b66ec0/library/core/src/panicking.rs:41
80200728: 5d 71        	addi	sp, sp, -80
; /rustc/9ad5d82f822b3cb67637f11be2e65c5662b66ec0/library/core/src/panicking.rs:48
8020072a: 86 e4        	sd	ra, 72(sp)
8020072c: 2a fc        	sd	a0, 56(sp)
8020072e: ae e0        	sd	a1, 64(sp)
80200730: 28 18        	addi	a0, sp, 56
; /rustc/9ad5d82f822b3cb67637f11be2e65c5662b66ec0/library/core/src/fmt/mod.rs:365
80200732: 2a e4        	sd	a0, 8(sp)
80200734: 05 45        	addi	a0, zero, 1
80200736: 2a e8        	sd	a0, 16(sp)
80200738: 02 ec        	sd	zero, 24(sp)

000000008020073a <.LBB126_1>:
; .LBB126_1():
; /rustc/9ad5d82f822b3cb67637f11be2e65c5662b66ec0/library/core/src/fmt/mod.rs:365
8020073a: 17 25 00 00  	auipc	a0, 2
8020073e: 13 05 65 b1  	addi	a0, a0, -1258
80200742: 2a f4        	sd	a0, 40(sp)
80200744: 02 f8        	sd	zero, 48(sp)
; /rustc/9ad5d82f822b3cb67637f11be2e65c5662b66ec0/library/core/src/panicking.rs:48
80200746: 28 00        	addi	a0, sp, 8
80200748: b2 85        	mv	a1, a2
8020074a: 97 00 00 00  	auipc	ra, 0
8020074e: e7 80 a0 00  	jalr	10(ra)
80200752: 00 00        	unimp	

0000000080200754 <_ZN4core9panicking9panic_fmt17hd481bea3168480afE>:
; _ZN4core9panicking9panic_fmt17hd481bea3168480afE():
; /rustc/9ad5d82f822b3cb67637f11be2e65c5662b66ec0/library/core/src/panicking.rs:95
80200754: 79 71        	addi	sp, sp, -48
; /rustc/9ad5d82f822b3cb67637f11be2e65c5662b66ec0/library/core/src/panic/panic_info.rs:49
80200756: 06 f4        	sd	ra, 40(sp)

0000000080200758 <.LBB130_1>:
; .LBB130_1():
; /rustc/9ad5d82f822b3cb67637f11be2e65c5662b66ec0/library/core/src/panic/panic_info.rs:49
80200758: 17 26 00 00  	auipc	a2, 2
8020075c: 13 06 86 af  	addi	a2, a2, -1288
80200760: 32 e4        	sd	a2, 8(sp)

0000000080200762 <.LBB130_2>:
; .LBB130_2():
; /rustc/9ad5d82f822b3cb67637f11be2e65c5662b66ec0/library/core/src/panic/panic_info.rs:49
80200762: 17 26 00 00  	auipc	a2, 2
80200766: 13 06 e6 ae  	addi	a2, a2, -1298
8020076a: 32 e8        	sd	a2, 16(sp)
8020076c: 2a ec        	sd	a0, 24(sp)
8020076e: 2e f0        	sd	a1, 32(sp)
; /rustc/9ad5d82f822b3cb67637f11be2e65c5662b66ec0/library/core/src/panicking.rs:110
80200770: 28 00        	addi	a0, sp, 8
80200772: 97 00 00 00  	auipc	ra, 0
80200776: e7 80 80 8a  	jalr	-1880(ra)
8020077a: 00 00        	unimp	

000000008020077c <_ZN4core6result13unwrap_failed17hb3094b1f1fffd207E>:
; _ZN4core6result13unwrap_failed17hb3094b1f1fffd207E():
; /rustc/9ad5d82f822b3cb67637f11be2e65c5662b66ec0/library/core/src/result.rs:1689
8020077c: 19 71        	addi	sp, sp, -128
8020077e: 86 fc        	sd	ra, 120(sp)
80200780: 2a e4        	sd	a0, 8(sp)
80200782: 2e e8        	sd	a1, 16(sp)
80200784: 32 ec        	sd	a2, 24(sp)
80200786: 36 f0        	sd	a3, 32(sp)
80200788: 28 00        	addi	a0, sp, 8
; /rustc/9ad5d82f822b3cb67637f11be2e65c5662b66ec0/library/core/src/result.rs:1690
8020078a: aa ec        	sd	a0, 88(sp)

000000008020078c <.LBB135_1>:
; .LBB135_1():
; /rustc/9ad5d82f822b3cb67637f11be2e65c5662b66ec0/library/core/src/result.rs:1690
8020078c: 17 15 00 00  	auipc	a0, 1
80200790: 13 05 e5 89  	addi	a0, a0, -1890
80200794: aa f0        	sd	a0, 96(sp)
80200796: 28 08        	addi	a0, sp, 24
80200798: aa f4        	sd	a0, 104(sp)

000000008020079a <.LBB135_2>:
; .LBB135_2():
; /rustc/9ad5d82f822b3cb67637f11be2e65c5662b66ec0/library/core/src/result.rs:1690
8020079a: 17 15 00 00  	auipc	a0, 1
8020079e: 13 05 85 88  	addi	a0, a0, -1912
802007a2: aa f8        	sd	a0, 112(sp)

00000000802007a4 <.LBB135_3>:
; .LBB135_3():
; /rustc/9ad5d82f822b3cb67637f11be2e65c5662b66ec0/library/core/src/fmt/mod.rs:365
802007a4: 17 25 00 00  	auipc	a0, 2
802007a8: 13 05 45 ad  	addi	a0, a0, -1324
802007ac: 2a f4        	sd	a0, 40(sp)
802007ae: 09 45        	addi	a0, zero, 2
802007b0: 2a f8        	sd	a0, 48(sp)
802007b2: 02 fc        	sd	zero, 56(sp)
802007b4: ac 08        	addi	a1, sp, 88
802007b6: ae e4        	sd	a1, 72(sp)
802007b8: aa e8        	sd	a0, 80(sp)
; /rustc/9ad5d82f822b3cb67637f11be2e65c5662b66ec0/library/core/src/result.rs:1690
802007ba: 28 10        	addi	a0, sp, 40
802007bc: ba 85        	mv	a1, a4
802007be: 97 00 00 00  	auipc	ra, 0
802007c2: e7 80 60 f9  	jalr	-106(ra)
802007c6: 00 00        	unimp	

00000000802007c8 <_ZN59_$LT$core..fmt..Arguments$u20$as$u20$core..fmt..Display$GT$3fmt17ha06c88bc9255d02fE>:
; _ZN59_$LT$core..fmt..Arguments$u20$as$u20$core..fmt..Display$GT$3fmt17ha06c88bc9255d02fE():
; /rustc/9ad5d82f822b3cb67637f11be2e65c5662b66ec0/library/core/src/fmt/mod.rs:500
802007c8: 39 71        	addi	sp, sp, -64
; /rustc/9ad5d82f822b3cb67637f11be2e65c5662b66ec0/library/core/src/fmt/mod.rs:501
802007ca: 06 fc        	sd	ra, 56(sp)
802007cc: 10 75        	ld	a2, 40(a0)
802007ce: 18 71        	ld	a4, 32(a0)
802007d0: 1c 6d        	ld	a5, 24(a0)
802007d2: 32 f8        	sd	a2, 48(sp)
802007d4: 94 71        	ld	a3, 32(a1)
802007d6: 3a f4        	sd	a4, 40(sp)
802007d8: 3e f0        	sd	a5, 32(sp)
802007da: 10 69        	ld	a2, 16(a0)
802007dc: 18 65        	ld	a4, 8(a0)
802007de: 08 61        	ld	a0, 0(a0)
802007e0: 8c 75        	ld	a1, 40(a1)
802007e2: 32 ec        	sd	a2, 24(sp)
802007e4: 3a e8        	sd	a4, 16(sp)
802007e6: 2a e4        	sd	a0, 8(sp)
802007e8: 30 00        	addi	a2, sp, 8
802007ea: 36 85        	mv	a0, a3
802007ec: 97 00 00 00  	auipc	ra, 0
802007f0: e7 80 e0 00  	jalr	14(ra)
; /rustc/9ad5d82f822b3cb67637f11be2e65c5662b66ec0/library/core/src/fmt/mod.rs:502
802007f4: e2 70        	ld	ra, 56(sp)
802007f6: 21 61        	addi	sp, sp, 64
802007f8: 82 80        	ret

00000000802007fa <_ZN4core3fmt5write17h9a851c9a286525f3E>:
; _ZN4core3fmt5write17h9a851c9a286525f3E():
; /rustc/9ad5d82f822b3cb67637f11be2e65c5662b66ec0/library/core/src/fmt/mod.rs:1154
802007fa: 19 71        	addi	sp, sp, -128
802007fc: 86 fc        	sd	ra, 120(sp)
802007fe: a2 f8        	sd	s0, 112(sp)
80200800: a6 f4        	sd	s1, 104(sp)
80200802: ca f0        	sd	s2, 96(sp)
80200804: ce ec        	sd	s3, 88(sp)
80200806: d2 e8        	sd	s4, 80(sp)
80200808: d6 e4        	sd	s5, 72(sp)
8020080a: da e0        	sd	s6, 64(sp)
8020080c: b2 89        	mv	s3, a2
8020080e: 05 46        	addi	a2, zero, 1
80200810: 16 16        	slli	a2, a2, 37
; /rustc/9ad5d82f822b3cb67637f11be2e65c5662b66ec0/library/core/src/fmt/mod.rs:237
80200812: 32 f8        	sd	a2, 48(sp)
80200814: 0d 46        	addi	a2, zero, 3
80200816: 23 0c c1 02  	sb	a2, 56(sp)
; /rustc/9ad5d82f822b3cb67637f11be2e65c5662b66ec0/library/core/src/fmt/mod.rs:1158
8020081a: 03 b6 09 01  	ld	a2, 16(s3)
; /rustc/9ad5d82f822b3cb67637f11be2e65c5662b66ec0/library/core/src/fmt/mod.rs:237
8020081e: 02 e0        	sd	zero, 0(sp)
80200820: 02 e8        	sd	zero, 16(sp)
80200822: 2a f0        	sd	a0, 32(sp)
80200824: 2e f4        	sd	a1, 40(sp)
; /rustc/9ad5d82f822b3cb67637f11be2e65c5662b66ec0/library/core/src/fmt/mod.rs:1158
80200826: 69 ca        	beqz	a2, 0x802008f8 <.LBB172_34+0xa6>
; /rustc/9ad5d82f822b3cb67637f11be2e65c5662b66ec0/library/core/src/fmt/mod.rs:1172
80200828: 03 b5 89 01  	ld	a0, 24(s3)
; /rustc/9ad5d82f822b3cb67637f11be2e65c5662b66ec0/library/core/src/slice/iter/macros.rs:146
8020082c: 63 0c 05 10  	beqz	a0, 0x80200944 <.LBB172_34+0xf2>
80200830: 83 b5 09 00  	ld	a1, 0(s3)
; /rustc/9ad5d82f822b3cb67637f11be2e65c5662b66ec0/library/core/src/slice/iter/macros.rs:146
80200834: 93 16 35 00  	slli	a3, a0, 3
80200838: e1 16        	addi	a3, a3, -8
8020083a: 8d 82        	srli	a3, a3, 3
8020083c: 13 89 16 00  	addi	s2, a3, 1
80200840: 93 84 85 00  	addi	s1, a1, 8
80200844: 93 05 80 03  	addi	a1, zero, 56
80200848: 33 0a b5 02  	mul	s4, a0, a1
8020084c: 13 04 06 03  	addi	s0, a2, 48
80200850: 85 4a        	addi	s5, zero, 1

0000000080200852 <.LBB172_34>:
; .LBB172_34():
80200852: 17 0b 00 00  	auipc	s6, 0
80200856: 13 0b 0b ea  	addi	s6, s6, -352
; /rustc/9ad5d82f822b3cb67637f11be2e65c5662b66ec0/library/core/src/fmt/mod.rs:1179
8020085a: 90 60        	ld	a2, 0(s1)
8020085c: 09 ca        	beqz	a2, 0x8020086e <.LBB172_34+0x1c>
; /rustc/9ad5d82f822b3cb67637f11be2e65c5662b66ec0/library/core/src/fmt/mod.rs:1180
8020085e: a2 76        	ld	a3, 40(sp)
80200860: 02 75        	ld	a0, 32(sp)
80200862: 83 b5 84 ff  	ld	a1, -8(s1)
80200866: 94 6e        	ld	a3, 24(a3)
80200868: 82 96        	jalr	a3
8020086a: 63 19 05 10  	bnez	a0, 0x8020097c <.LBB172_34+0x12a>
; /rustc/9ad5d82f822b3cb67637f11be2e65c5662b66ec0/library/core/src/fmt/mod.rs:1199
8020086e: 03 25 84 ff  	lw	a0, -8(s0)
80200872: 2a da        	sw	a0, 52(sp)
; /rustc/9ad5d82f822b3cb67637f11be2e65c5662b66ec0/library/core/src/fmt/mod.rs:1200
80200874: 03 05 04 00  	lb	a0, 0(s0)
80200878: 23 0c a1 02  	sb	a0, 56(sp)
; /rustc/9ad5d82f822b3cb67637f11be2e65c5662b66ec0/library/core/src/fmt/mod.rs:1201
8020087c: 83 25 c4 ff  	lw	a1, -4(s0)
; /rustc/9ad5d82f822b3cb67637f11be2e65c5662b66ec0/library/core/src/fmt/mod.rs:1184
80200880: 03 b5 09 02  	ld	a0, 32(s3)
; /rustc/9ad5d82f822b3cb67637f11be2e65c5662b66ec0/library/core/src/fmt/mod.rs:1201
80200884: 2e d8        	sw	a1, 48(sp)
; /rustc/9ad5d82f822b3cb67637f11be2e65c5662b66ec0/library/core/src/fmt/mod.rs:1205
80200886: 83 36 84 fe  	ld	a3, -24(s0)
8020088a: 83 35 04 ff  	ld	a1, -16(s0)
; /rustc/9ad5d82f822b3cb67637f11be2e65c5662b66ec0/library/core/src/fmt/mod.rs:1220
8020088e: 89 ce        	beqz	a3, 0x802008a8 <.LBB172_34+0x56>
80200890: 01 46        	mv	a2, zero
; /rustc/9ad5d82f822b3cb67637f11be2e65c5662b66ec0/library/core/src/fmt/mod.rs:1220
80200892: 63 9c 56 01  	bne	a3, s5, 0x802008aa <.LBB172_34+0x58>
; /rustc/9ad5d82f822b3cb67637f11be2e65c5662b66ec0/library/core/src/fmt/mod.rs:333
80200896: 92 05        	slli	a1, a1, 4
80200898: aa 95        	add	a1, a1, a0
8020089a: 90 65        	ld	a2, 8(a1)
8020089c: 63 04 66 01  	beq	a2, s6, 0x802008a4 <.LBB172_34+0x52>
802008a0: 01 46        	mv	a2, zero
802008a2: 21 a0        	j	0x802008aa <.LBB172_34+0x58>
; /rustc/9ad5d82f822b3cb67637f11be2e65c5662b66ec0/library/core/src/fmt/mod.rs:336
802008a4: 8c 61        	ld	a1, 0(a1)
802008a6: 8c 61        	ld	a1, 0(a1)
802008a8: 05 46        	addi	a2, zero, 1
; /rustc/9ad5d82f822b3cb67637f11be2e65c5662b66ec0/library/core/src/fmt/mod.rs:1205
802008aa: 32 e0        	sd	a2, 0(sp)
802008ac: 2e e4        	sd	a1, 8(sp)
; /rustc/9ad5d82f822b3cb67637f11be2e65c5662b66ec0/library/core/src/fmt/mod.rs:1206
802008ae: 83 36 84 fd  	ld	a3, -40(s0)
802008b2: 83 35 04 fe  	ld	a1, -32(s0)
; /rustc/9ad5d82f822b3cb67637f11be2e65c5662b66ec0/library/core/src/fmt/mod.rs:1220
802008b6: 89 ce        	beqz	a3, 0x802008d0 <.LBB172_34+0x7e>
802008b8: 01 46        	mv	a2, zero
; /rustc/9ad5d82f822b3cb67637f11be2e65c5662b66ec0/library/core/src/fmt/mod.rs:1220
802008ba: 63 9c 56 01  	bne	a3, s5, 0x802008d2 <.LBB172_34+0x80>
; /rustc/9ad5d82f822b3cb67637f11be2e65c5662b66ec0/library/core/src/fmt/mod.rs:333
802008be: 92 05        	slli	a1, a1, 4
802008c0: aa 95        	add	a1, a1, a0
802008c2: 90 65        	ld	a2, 8(a1)
802008c4: 63 04 66 01  	beq	a2, s6, 0x802008cc <.LBB172_34+0x7a>
802008c8: 01 46        	mv	a2, zero
802008ca: 21 a0        	j	0x802008d2 <.LBB172_34+0x80>
; /rustc/9ad5d82f822b3cb67637f11be2e65c5662b66ec0/library/core/src/fmt/mod.rs:336
802008cc: 8c 61        	ld	a1, 0(a1)
802008ce: 8c 61        	ld	a1, 0(a1)
802008d0: 05 46        	addi	a2, zero, 1
; /rustc/9ad5d82f822b3cb67637f11be2e65c5662b66ec0/library/core/src/fmt/mod.rs:1206
802008d2: 32 e8        	sd	a2, 16(sp)
802008d4: 2e ec        	sd	a1, 24(sp)
; /rustc/9ad5d82f822b3cb67637f11be2e65c5662b66ec0/library/core/src/fmt/mod.rs:1213
802008d6: 83 35 04 fd  	ld	a1, -48(s0)
; /rustc/9ad5d82f822b3cb67637f11be2e65c5662b66ec0/library/core/src/ptr/const_ptr.rs:295
802008da: 92 05        	slli	a1, a1, 4
802008dc: 2e 95        	add	a0, a0, a1
; /rustc/9ad5d82f822b3cb67637f11be2e65c5662b66ec0/library/core/src/fmt/mod.rs:1216
802008de: 10 65        	ld	a2, 8(a0)
802008e0: 08 61        	ld	a0, 0(a0)
802008e2: 8a 85        	mv	a1, sp
802008e4: 02 96        	jalr	a2
; /rustc/9ad5d82f822b3cb67637f11be2e65c5662b66ec0/library/core/src/fmt/mod.rs:1184
802008e6: 59 e9        	bnez	a0, 0x8020097c <.LBB172_34+0x12a>
; /rustc/9ad5d82f822b3cb67637f11be2e65c5662b66ec0/library/core/src/slice/iter/macros.rs:146
802008e8: c1 04        	addi	s1, s1, 16
802008ea: 13 0a 8a fc  	addi	s4, s4, -56
802008ee: 13 04 84 03  	addi	s0, s0, 56
802008f2: e3 14 0a f6  	bnez	s4, 0x8020085a <.LBB172_34+0x8>
802008f6: 81 a8        	j	0x80200946 <.LBB172_34+0xf4>
; /rustc/9ad5d82f822b3cb67637f11be2e65c5662b66ec0/library/core/src/fmt/mod.rs:1161
802008f8: 03 b5 89 02  	ld	a0, 40(s3)
; /rustc/9ad5d82f822b3cb67637f11be2e65c5662b66ec0/library/core/src/slice/iter/macros.rs:146
802008fc: 29 cd        	beqz	a0, 0x80200956 <.LBB172_34+0x104>
; /rustc/9ad5d82f822b3cb67637f11be2e65c5662b66ec0/library/core/src/fmt/mod.rs:1161
802008fe: 83 b5 09 02  	ld	a1, 32(s3)
80200902: 03 b6 09 00  	ld	a2, 0(s3)
; /rustc/9ad5d82f822b3cb67637f11be2e65c5662b66ec0/library/core/src/slice/iter/macros.rs:146
80200906: 12 05        	slli	a0, a0, 4
80200908: 41 15        	addi	a0, a0, -16
8020090a: 11 81        	srli	a0, a0, 4
8020090c: 13 09 15 00  	addi	s2, a0, 1
80200910: 13 04 86 00  	addi	s0, a2, 8
80200914: 93 84 85 00  	addi	s1, a1, 8
80200918: 4a 8a        	mv	s4, s2
; /rustc/9ad5d82f822b3cb67637f11be2e65c5662b66ec0/library/core/src/fmt/mod.rs:1165
8020091a: 10 60        	ld	a2, 0(s0)
8020091c: 01 ca        	beqz	a2, 0x8020092c <.LBB172_34+0xda>
; /rustc/9ad5d82f822b3cb67637f11be2e65c5662b66ec0/library/core/src/fmt/mod.rs:1166
8020091e: a2 76        	ld	a3, 40(sp)
80200920: 02 75        	ld	a0, 32(sp)
80200922: 83 35 84 ff  	ld	a1, -8(s0)
80200926: 94 6e        	ld	a3, 24(a3)
80200928: 82 96        	jalr	a3
8020092a: 29 e9        	bnez	a0, 0x8020097c <.LBB172_34+0x12a>
; /rustc/9ad5d82f822b3cb67637f11be2e65c5662b66ec0/library/core/src/fmt/mod.rs:1168
8020092c: 90 60        	ld	a2, 0(s1)
8020092e: 03 b5 84 ff  	ld	a0, -8(s1)
80200932: 8a 85        	mv	a1, sp
80200934: 02 96        	jalr	a2
80200936: 39 e1        	bnez	a0, 0x8020097c <.LBB172_34+0x12a>
; /rustc/9ad5d82f822b3cb67637f11be2e65c5662b66ec0/library/core/src/slice/iter/macros.rs:146
80200938: 7d 1a        	addi	s4, s4, -1
8020093a: 41 04        	addi	s0, s0, 16
8020093c: c1 04        	addi	s1, s1, 16
8020093e: e3 1e 0a fc  	bnez	s4, 0x8020091a <.LBB172_34+0xc8>
80200942: 11 a0        	j	0x80200946 <.LBB172_34+0xf4>
80200944: 01 49        	mv	s2, zero
; /rustc/9ad5d82f822b3cb67637f11be2e65c5662b66ec0/library/core/src/fmt/mod.rs:1191
80200946: 03 b5 89 00  	ld	a0, 8(s3)
; /rustc/9ad5d82f822b3cb67637f11be2e65c5662b66ec0/library/core/src/slice/index.rs:162
8020094a: 63 6b a9 00  	bltu	s2, a0, 0x80200960 <.LBB172_34+0x10e>
8020094e: 01 46        	mv	a2, zero
; /rustc/9ad5d82f822b3cb67637f11be2e65c5662b66ec0/library/core/src/fmt/mod.rs:1191
80200950: 63 6f a9 00  	bltu	s2, a0, 0x8020096e <.LBB172_34+0x11c>
80200954: 35 a0        	j	0x80200980 <.LBB172_34+0x12e>
80200956: 01 49        	mv	s2, zero
; /rustc/9ad5d82f822b3cb67637f11be2e65c5662b66ec0/library/core/src/fmt/mod.rs:1191
80200958: 03 b5 89 00  	ld	a0, 8(s3)
; /rustc/9ad5d82f822b3cb67637f11be2e65c5662b66ec0/library/core/src/slice/index.rs:162
8020095c: e3 79 a9 fe  	bgeu	s2, a0, 0x8020094e <.LBB172_34+0xfc>
80200960: 83 b5 09 00  	ld	a1, 0(s3)
80200964: 13 16 49 00  	slli	a2, s2, 4
80200968: 2e 96        	add	a2, a2, a1
; /rustc/9ad5d82f822b3cb67637f11be2e65c5662b66ec0/library/core/src/fmt/mod.rs:1191
8020096a: 63 7b a9 00  	bgeu	s2, a0, 0x80200980 <.LBB172_34+0x12e>
; /rustc/9ad5d82f822b3cb67637f11be2e65c5662b66ec0/library/core/src/fmt/mod.rs:1192
8020096e: a2 76        	ld	a3, 40(sp)
80200970: 02 75        	ld	a0, 32(sp)
80200972: 0c 62        	ld	a1, 0(a2)
80200974: 10 66        	ld	a2, 8(a2)
80200976: 94 6e        	ld	a3, 24(a3)
80200978: 82 96        	jalr	a3
8020097a: 19 c1        	beqz	a0, 0x80200980 <.LBB172_34+0x12e>
8020097c: 05 45        	addi	a0, zero, 1
8020097e: 11 a0        	j	0x80200982 <.LBB172_34+0x130>
80200980: 01 45        	mv	a0, zero
; /rustc/9ad5d82f822b3cb67637f11be2e65c5662b66ec0/library/core/src/fmt/mod.rs:1196
80200982: 06 6b        	ld	s6, 64(sp)
80200984: a6 6a        	ld	s5, 72(sp)
80200986: 46 6a        	ld	s4, 80(sp)
80200988: e6 69        	ld	s3, 88(sp)
8020098a: 06 79        	ld	s2, 96(sp)
8020098c: a6 74        	ld	s1, 104(sp)
8020098e: 46 74        	ld	s0, 112(sp)
80200990: e6 70        	ld	ra, 120(sp)
80200992: 09 61        	addi	sp, sp, 128
80200994: 82 80        	ret

0000000080200996 <_ZN4core3fmt9Formatter12pad_integral17h4d93d6ef3d3008c6E>:
; _ZN4core3fmt9Formatter12pad_integral17h4d93d6ef3d3008c6E():
; /rustc/9ad5d82f822b3cb67637f11be2e65c5662b66ec0/library/core/src/fmt/mod.rs:1320
80200996: 1d 71        	addi	sp, sp, -96
80200998: 86 ec        	sd	ra, 88(sp)
8020099a: a2 e8        	sd	s0, 80(sp)
8020099c: a6 e4        	sd	s1, 72(sp)
8020099e: ca e0        	sd	s2, 64(sp)
802009a0: 4e fc        	sd	s3, 56(sp)
802009a2: 52 f8        	sd	s4, 48(sp)
802009a4: 56 f4        	sd	s5, 40(sp)
802009a6: 5a f0        	sd	s6, 32(sp)
802009a8: 5e ec        	sd	s7, 24(sp)
802009aa: 62 e8        	sd	s8, 16(sp)
802009ac: 66 e4        	sd	s9, 8(sp)
802009ae: 6a e0        	sd	s10, 0(sp)
802009b0: be 89        	mv	s3, a5
802009b2: 3a 89        	mv	s2, a4
802009b4: 36 8b        	mv	s6, a3
802009b6: aa 8b        	mv	s7, a0
; /rustc/9ad5d82f822b3cb67637f11be2e65c5662b66ec0/library/core/src/fmt/mod.rs:1324
802009b8: a1 c5        	beqz	a1, 0x80200a00 <_ZN4core3fmt9Formatter12pad_integral17h4d93d6ef3d3008c6E+0x6a>
; /rustc/9ad5d82f822b3cb67637f11be2e65c5662b66ec0/library/core/src/fmt/mod.rs:1801
802009ba: 03 e5 0b 03  	lwu	a0, 48(s7)
802009be: 93 75 15 00  	andi	a1, a0, 1
802009c2: 37 0a 11 00  	lui	s4, 272
; /rustc/9ad5d82f822b3cb67637f11be2e65c5662b66ec0/library/core/src/fmt/mod.rs:1327
802009c6: 99 c1        	beqz	a1, 0x802009cc <_ZN4core3fmt9Formatter12pad_integral17h4d93d6ef3d3008c6E+0x36>
802009c8: 13 0a b0 02  	addi	s4, zero, 43
; /rustc/9ad5d82f822b3cb67637f11be2e65c5662b66ec0/library/core/src/fmt/mod.rs:1327
802009cc: 33 84 35 01  	add	s0, a1, s3
; /rustc/9ad5d82f822b3cb67637f11be2e65c5662b66ec0/library/core/src/fmt/mod.rs:1858
802009d0: 93 75 45 00  	andi	a1, a0, 4
; /rustc/9ad5d82f822b3cb67637f11be2e65c5662b66ec0/library/core/src/fmt/mod.rs:1332
802009d4: 9d cd        	beqz	a1, 0x80200a12 <_ZN4core3fmt9Formatter12pad_integral17h4d93d6ef3d3008c6E+0x7c>
802009d6: 81 45        	mv	a1, zero
; /rustc/9ad5d82f822b3cb67637f11be2e65c5662b66ec0/library/core/src/slice/iter/macros.rs:146
802009d8: 63 0e 0b 00  	beqz	s6, 0x802009f4 <_ZN4core3fmt9Formatter12pad_integral17h4d93d6ef3d3008c6E+0x5e>
802009dc: 93 06 f0 fb  	addi	a3, zero, -65
802009e0: 5a 87        	mv	a4, s6
802009e2: b2 87        	mv	a5, a2
; /rustc/9ad5d82f822b3cb67637f11be2e65c5662b66ec0/library/core/src/iter/traits/iterator.rs:2167
802009e4: 83 84 07 00  	lb	s1, 0(a5)
; /rustc/9ad5d82f822b3cb67637f11be2e65c5662b66ec0/library/core/src/ptr/mut_ptr.rs:307
802009e8: 85 07        	addi	a5, a5, 1
; /rustc/9ad5d82f822b3cb67637f11be2e65c5662b66ec0/library/core/src/str/validations.rs:25
802009ea: b3 a4 96 00  	slt	s1, a3, s1
; /rustc/9ad5d82f822b3cb67637f11be2e65c5662b66ec0/library/core/src/slice/iter/macros.rs:146
802009ee: 7d 17        	addi	a4, a4, -1
; /rustc/9ad5d82f822b3cb67637f11be2e65c5662b66ec0/library/core/src/iter/traits/accum.rs:45
802009f0: a6 95        	add	a1, a1, s1
; /rustc/9ad5d82f822b3cb67637f11be2e65c5662b66ec0/library/core/src/slice/iter/macros.rs:146
802009f2: 6d fb        	bnez	a4, 0x802009e4 <_ZN4core3fmt9Formatter12pad_integral17h4d93d6ef3d3008c6E+0x4e>
; /rustc/9ad5d82f822b3cb67637f11be2e65c5662b66ec0/library/core/src/fmt/mod.rs:1333
802009f4: 2e 94        	add	s0, s0, a1
802009f6: 32 8c        	mv	s8, a2
; /rustc/9ad5d82f822b3cb67637f11be2e65c5662b66ec0/library/core/src/fmt/mod.rs:1349
802009f8: 83 b5 0b 00  	ld	a1, 0(s7)
802009fc: 99 ed        	bnez	a1, 0x80200a1a <_ZN4core3fmt9Formatter12pad_integral17h4d93d6ef3d3008c6E+0x84>
802009fe: a9 a0        	j	0x80200a48 <_ZN4core3fmt9Formatter12pad_integral17h4d93d6ef3d3008c6E+0xb2>
; /rustc/9ad5d82f822b3cb67637f11be2e65c5662b66ec0/library/core/src/fmt/mod.rs:1858
80200a00: 03 e5 0b 03  	lwu	a0, 48(s7)
; /rustc/9ad5d82f822b3cb67637f11be2e65c5662b66ec0/library/core/src/fmt/mod.rs:1326
80200a04: 13 84 19 00  	addi	s0, s3, 1
80200a08: 13 0a d0 02  	addi	s4, zero, 45
; /rustc/9ad5d82f822b3cb67637f11be2e65c5662b66ec0/library/core/src/fmt/mod.rs:1858
80200a0c: 93 75 45 00  	andi	a1, a0, 4
; /rustc/9ad5d82f822b3cb67637f11be2e65c5662b66ec0/library/core/src/fmt/mod.rs:1332
80200a10: f9 f1        	bnez	a1, 0x802009d6 <_ZN4core3fmt9Formatter12pad_integral17h4d93d6ef3d3008c6E+0x40>
80200a12: 01 4c        	mv	s8, zero
; /rustc/9ad5d82f822b3cb67637f11be2e65c5662b66ec0/library/core/src/fmt/mod.rs:1349
80200a14: 83 b5 0b 00  	ld	a1, 0(s7)
80200a18: 85 c9        	beqz	a1, 0x80200a48 <_ZN4core3fmt9Formatter12pad_integral17h4d93d6ef3d3008c6E+0xb2>
; /rustc/9ad5d82f822b3cb67637f11be2e65c5662b66ec0/library/core/src/fmt/mod.rs:1358
80200a1a: 83 b4 8b 00  	ld	s1, 8(s7)
80200a1e: 63 75 94 02  	bgeu	s0, s1, 0x80200a48 <_ZN4core3fmt9Formatter12pad_integral17h4d93d6ef3d3008c6E+0xb2>
; /rustc/9ad5d82f822b3cb67637f11be2e65c5662b66ec0/library/core/src/fmt/mod.rs:1884
80200a22: 21 89        	andi	a0, a0, 8
; /rustc/9ad5d82f822b3cb67637f11be2e65c5662b66ec0/library/core/src/fmt/mod.rs:1364
80200a24: 41 e1        	bnez	a0, 0x80200aa4 <_ZN4core3fmt9Formatter12pad_integral17h4d93d6ef3d3008c6E+0x10e>
; /rustc/9ad5d82f822b3cb67637f11be2e65c5662b66ec0/library/core/src/fmt/mod.rs:1469
80200a26: 83 c5 8b 03  	lbu	a1, 56(s7)
80200a2a: 0d 46        	addi	a2, zero, 3
80200a2c: 05 45        	addi	a0, zero, 1
80200a2e: 63 83 c5 00  	beq	a1, a2, 0x80200a34 <_ZN4core3fmt9Formatter12pad_integral17h4d93d6ef3d3008c6E+0x9e>
80200a32: 2e 85        	mv	a0, a1
; /rustc/9ad5d82f822b3cb67637f11be2e65c5662b66ec0/library/core/src/fmt/mod.rs:1474
80200a34: 93 75 35 00  	andi	a1, a0, 3
80200a38: 33 85 84 40  	sub	a0, s1, s0
80200a3c: cd c9        	beqz	a1, 0x80200aee <_ZN4core3fmt9Formatter12pad_integral17h4d93d6ef3d3008c6E+0x158>
80200a3e: 05 46        	addi	a2, zero, 1
; /rustc/9ad5d82f822b3cb67637f11be2e65c5662b66ec0/library/core/src/fmt/mod.rs:1474
80200a40: 63 9a c5 0a  	bne	a1, a2, 0x80200af4 <_ZN4core3fmt9Formatter12pad_integral17h4d93d6ef3d3008c6E+0x15e>
80200a44: 81 4c        	mv	s9, zero
80200a46: 65 a8        	j	0x80200afe <_ZN4core3fmt9Formatter12pad_integral17h4d93d6ef3d3008c6E+0x168>
80200a48: 5e 85        	mv	a0, s7
80200a4a: d2 85        	mv	a1, s4
80200a4c: 62 86        	mv	a2, s8
80200a4e: da 86        	mv	a3, s6
80200a50: 97 00 00 00  	auipc	ra, 0
80200a54: e7 80 a0 1a  	jalr	426(ra)
80200a58: 85 4a        	addi	s5, zero, 1
80200a5a: 05 c1        	beqz	a0, 0x80200a7a <_ZN4core3fmt9Formatter12pad_integral17h4d93d6ef3d3008c6E+0xe4>
; /rustc/9ad5d82f822b3cb67637f11be2e65c5662b66ec0/library/core/src/fmt/mod.rs:1383
80200a5c: 56 85        	mv	a0, s5
80200a5e: 02 6d        	ld	s10, 0(sp)
80200a60: a2 6c        	ld	s9, 8(sp)
80200a62: 42 6c        	ld	s8, 16(sp)
80200a64: e2 6b        	ld	s7, 24(sp)
80200a66: 02 7b        	ld	s6, 32(sp)
80200a68: a2 7a        	ld	s5, 40(sp)
80200a6a: 42 7a        	ld	s4, 48(sp)
80200a6c: e2 79        	ld	s3, 56(sp)
80200a6e: 06 69        	ld	s2, 64(sp)
80200a70: a6 64        	ld	s1, 72(sp)
80200a72: 46 64        	ld	s0, 80(sp)
80200a74: e6 60        	ld	ra, 88(sp)
80200a76: 25 61        	addi	sp, sp, 96
80200a78: 82 80        	ret
80200a7a: 83 b5 8b 02  	ld	a1, 40(s7)
80200a7e: 03 b5 0b 02  	ld	a0, 32(s7)
80200a82: 9c 6d        	ld	a5, 24(a1)
80200a84: ca 85        	mv	a1, s2
80200a86: 4e 86        	mv	a2, s3
80200a88: 02 6d        	ld	s10, 0(sp)
80200a8a: a2 6c        	ld	s9, 8(sp)
80200a8c: 42 6c        	ld	s8, 16(sp)
80200a8e: e2 6b        	ld	s7, 24(sp)
80200a90: 02 7b        	ld	s6, 32(sp)
80200a92: a2 7a        	ld	s5, 40(sp)
80200a94: 42 7a        	ld	s4, 48(sp)
80200a96: e2 79        	ld	s3, 56(sp)
80200a98: 06 69        	ld	s2, 64(sp)
80200a9a: a6 64        	ld	s1, 72(sp)
80200a9c: 46 64        	ld	s0, 80(sp)
80200a9e: e6 60        	ld	ra, 88(sp)
80200aa0: 25 61        	addi	sp, sp, 96
80200aa2: 82 87        	jr	a5
; /rustc/9ad5d82f822b3cb67637f11be2e65c5662b66ec0/library/core/src/mem/mod.rs:839
80200aa4: 83 ec 4b 03  	lwu	s9, 52(s7)
80200aa8: 13 05 00 03  	addi	a0, zero, 48
80200aac: 03 cd 8b 03  	lbu	s10, 56(s7)
; /rustc/9ad5d82f822b3cb67637f11be2e65c5662b66ec0/library/core/src/ptr/mod.rs:892
80200ab0: 23 aa ab 02  	sw	a0, 52(s7)
80200ab4: 85 4a        	addi	s5, zero, 1
80200ab6: 23 8c 5b 03  	sb	s5, 56(s7)
; /rustc/9ad5d82f822b3cb67637f11be2e65c5662b66ec0/library/core/src/fmt/mod.rs:1367
80200aba: 5e 85        	mv	a0, s7
80200abc: d2 85        	mv	a1, s4
80200abe: 62 86        	mv	a2, s8
80200ac0: da 86        	mv	a3, s6
80200ac2: 97 00 00 00  	auipc	ra, 0
80200ac6: e7 80 80 13  	jalr	312(ra)
80200aca: 49 f9        	bnez	a0, 0x80200a5c <_ZN4core3fmt9Formatter12pad_integral17h4d93d6ef3d3008c6E+0xc6>
; /rustc/9ad5d82f822b3cb67637f11be2e65c5662b66ec0/library/core/src/fmt/mod.rs:1469
80200acc: 83 c5 8b 03  	lbu	a1, 56(s7)
80200ad0: 0d 46        	addi	a2, zero, 3
80200ad2: 05 45        	addi	a0, zero, 1
; /rustc/9ad5d82f822b3cb67637f11be2e65c5662b66ec0/library/core/src/fmt/mod.rs:1474
80200ad4: 63 83 c5 00  	beq	a1, a2, 0x80200ada <_ZN4core3fmt9Formatter12pad_integral17h4d93d6ef3d3008c6E+0x144>
80200ad8: 2e 85        	mv	a0, a1
; /rustc/9ad5d82f822b3cb67637f11be2e65c5662b66ec0/library/core/src/fmt/mod.rs:1474
80200ada: 93 75 35 00  	andi	a1, a0, 3
80200ade: 33 85 84 40  	sub	a0, s1, s0
; /rustc/9ad5d82f822b3cb67637f11be2e65c5662b66ec0/library/core/src/fmt/mod.rs:1474
80200ae2: d9 c5        	beqz	a1, 0x80200b70 <_ZN4core3fmt9Formatter12pad_integral17h4d93d6ef3d3008c6E+0x1da>
80200ae4: 05 46        	addi	a2, zero, 1
; /rustc/9ad5d82f822b3cb67637f11be2e65c5662b66ec0/library/core/src/fmt/mod.rs:1474
80200ae6: 63 98 c5 08  	bne	a1, a2, 0x80200b76 <_ZN4core3fmt9Formatter12pad_integral17h4d93d6ef3d3008c6E+0x1e0>
80200aea: 01 4a        	mv	s4, zero
80200aec: 51 a8        	j	0x80200b80 <_ZN4core3fmt9Formatter12pad_integral17h4d93d6ef3d3008c6E+0x1ea>
80200aee: aa 8c        	mv	s9, a0
80200af0: 01 45        	mv	a0, zero
80200af2: 31 a0        	j	0x80200afe <_ZN4core3fmt9Formatter12pad_integral17h4d93d6ef3d3008c6E+0x168>
; /rustc/9ad5d82f822b3cb67637f11be2e65c5662b66ec0/library/core/src/fmt/mod.rs:1477
80200af4: 93 05 15 00  	addi	a1, a0, 1
80200af8: 05 81        	srli	a0, a0, 1
80200afa: 93 dc 15 00  	srli	s9, a1, 1
80200afe: 83 ba 0b 02  	ld	s5, 32(s7)
80200b02: 03 b4 8b 02  	ld	s0, 40(s7)
80200b06: 03 ed 4b 03  	lwu	s10, 52(s7)
; /rustc/9ad5d82f822b3cb67637f11be2e65c5662b66ec0/library/core/src/fmt/mod.rs:1480
80200b0a: 93 04 15 00  	addi	s1, a0, 1
; /rustc/9ad5d82f822b3cb67637f11be2e65c5662b66ec0/library/core/src/cmp.rs:1378
80200b0e: fd 14        	addi	s1, s1, -1
; /rustc/9ad5d82f822b3cb67637f11be2e65c5662b66ec0/library/core/src/iter/range.rs:621
80200b10: 99 c4        	beqz	s1, 0x80200b1e <_ZN4core3fmt9Formatter12pad_integral17h4d93d6ef3d3008c6E+0x188>
; /rustc/9ad5d82f822b3cb67637f11be2e65c5662b66ec0/library/core/src/fmt/mod.rs:1481
80200b12: 10 70        	ld	a2, 32(s0)
80200b14: 56 85        	mv	a0, s5
80200b16: ea 85        	mv	a1, s10
80200b18: 02 96        	jalr	a2
80200b1a: 75 d9        	beqz	a0, 0x80200b0e <_ZN4core3fmt9Formatter12pad_integral17h4d93d6ef3d3008c6E+0x178>
80200b1c: 49 a0        	j	0x80200b9e <_ZN4core3fmt9Formatter12pad_integral17h4d93d6ef3d3008c6E+0x208>
; /rustc/9ad5d82f822b3cb67637f11be2e65c5662b66ec0/library/core/src/fmt/mod.rs:1377
80200b1e: 1b 05 0d 00  	sext.w	a0, s10
80200b22: b7 05 11 00  	lui	a1, 272
80200b26: 85 4a        	addi	s5, zero, 1
80200b28: e3 0a b5 f2  	beq	a0, a1, 0x80200a5c <_ZN4core3fmt9Formatter12pad_integral17h4d93d6ef3d3008c6E+0xc6>
; /rustc/9ad5d82f822b3cb67637f11be2e65c5662b66ec0/library/core/src/fmt/mod.rs:1378
80200b2c: 5e 85        	mv	a0, s7
80200b2e: d2 85        	mv	a1, s4
80200b30: 62 86        	mv	a2, s8
80200b32: da 86        	mv	a3, s6
80200b34: 97 00 00 00  	auipc	ra, 0
80200b38: e7 80 60 0c  	jalr	198(ra)
80200b3c: 05 f1        	bnez	a0, 0x80200a5c <_ZN4core3fmt9Formatter12pad_integral17h4d93d6ef3d3008c6E+0xc6>
; /rustc/9ad5d82f822b3cb67637f11be2e65c5662b66ec0/library/core/src/fmt/mod.rs:1379
80200b3e: 83 b5 8b 02  	ld	a1, 40(s7)
80200b42: 03 b5 0b 02  	ld	a0, 32(s7)
80200b46: 94 6d        	ld	a3, 24(a1)
80200b48: ca 85        	mv	a1, s2
80200b4a: 4e 86        	mv	a2, s3
80200b4c: 82 96        	jalr	a3
80200b4e: 19 f5        	bnez	a0, 0x80200a5c <_ZN4core3fmt9Formatter12pad_integral17h4d93d6ef3d3008c6E+0xc6>
80200b50: 03 b9 0b 02  	ld	s2, 32(s7)
80200b54: 03 b4 8b 02  	ld	s0, 40(s7)
80200b58: 81 44        	mv	s1, zero
80200b5a: 63 8c 9c 08  	beq	s9, s1, 0x80200bf2 <_ZN4core3fmt9Formatter12pad_integral17h4d93d6ef3d3008c6E+0x25c>
; /rustc/9ad5d82f822b3cb67637f11be2e65c5662b66ec0/library/core/src/fmt/mod.rs:1247
80200b5e: 10 70        	ld	a2, 32(s0)
; /rustc/9ad5d82f822b3cb67637f11be2e65c5662b66ec0/library/core/src/num/uint_macros.rs:464
80200b60: 85 04        	addi	s1, s1, 1
; /rustc/9ad5d82f822b3cb67637f11be2e65c5662b66ec0/library/core/src/fmt/mod.rs:1247
80200b62: 4a 85        	mv	a0, s2
80200b64: ea 85        	mv	a1, s10
80200b66: 02 96        	jalr	a2
80200b68: 6d d9        	beqz	a0, 0x80200b5a <_ZN4core3fmt9Formatter12pad_integral17h4d93d6ef3d3008c6E+0x1c4>
80200b6a: 13 85 f4 ff  	addi	a0, s1, -1
80200b6e: 59 a0        	j	0x80200bf4 <_ZN4core3fmt9Formatter12pad_integral17h4d93d6ef3d3008c6E+0x25e>
80200b70: 2a 8a        	mv	s4, a0
80200b72: 01 45        	mv	a0, zero
80200b74: 31 a0        	j	0x80200b80 <_ZN4core3fmt9Formatter12pad_integral17h4d93d6ef3d3008c6E+0x1ea>
; /rustc/9ad5d82f822b3cb67637f11be2e65c5662b66ec0/library/core/src/fmt/mod.rs:1477
80200b76: 93 05 15 00  	addi	a1, a0, 1
80200b7a: 05 81        	srli	a0, a0, 1
80200b7c: 13 da 15 00  	srli	s4, a1, 1
80200b80: 83 ba 0b 02  	ld	s5, 32(s7)
80200b84: 03 b4 8b 02  	ld	s0, 40(s7)
80200b88: 03 eb 4b 03  	lwu	s6, 52(s7)
; /rustc/9ad5d82f822b3cb67637f11be2e65c5662b66ec0/library/core/src/fmt/mod.rs:1480
80200b8c: 93 04 15 00  	addi	s1, a0, 1
; /rustc/9ad5d82f822b3cb67637f11be2e65c5662b66ec0/library/core/src/cmp.rs:1378
80200b90: fd 14        	addi	s1, s1, -1
; /rustc/9ad5d82f822b3cb67637f11be2e65c5662b66ec0/library/core/src/iter/range.rs:621
80200b92: 81 c8        	beqz	s1, 0x80200ba2 <_ZN4core3fmt9Formatter12pad_integral17h4d93d6ef3d3008c6E+0x20c>
; /rustc/9ad5d82f822b3cb67637f11be2e65c5662b66ec0/library/core/src/fmt/mod.rs:1481
80200b94: 10 70        	ld	a2, 32(s0)
80200b96: 56 85        	mv	a0, s5
80200b98: da 85        	mv	a1, s6
80200b9a: 02 96        	jalr	a2
80200b9c: 75 d9        	beqz	a0, 0x80200b90 <_ZN4core3fmt9Formatter12pad_integral17h4d93d6ef3d3008c6E+0x1fa>
80200b9e: 85 4a        	addi	s5, zero, 1
80200ba0: 75 bd        	j	0x80200a5c <_ZN4core3fmt9Formatter12pad_integral17h4d93d6ef3d3008c6E+0xc6>
; /rustc/9ad5d82f822b3cb67637f11be2e65c5662b66ec0/library/core/src/fmt/mod.rs:1368
80200ba2: 1b 05 0b 00  	sext.w	a0, s6
80200ba6: b7 05 11 00  	lui	a1, 272
80200baa: 85 4a        	addi	s5, zero, 1
80200bac: e3 08 b5 ea  	beq	a0, a1, 0x80200a5c <_ZN4core3fmt9Formatter12pad_integral17h4d93d6ef3d3008c6E+0xc6>
; /rustc/9ad5d82f822b3cb67637f11be2e65c5662b66ec0/library/core/src/fmt/mod.rs:1369
80200bb0: 83 b5 8b 02  	ld	a1, 40(s7)
80200bb4: 03 b5 0b 02  	ld	a0, 32(s7)
80200bb8: 94 6d        	ld	a3, 24(a1)
80200bba: ca 85        	mv	a1, s2
80200bbc: 4e 86        	mv	a2, s3
80200bbe: 82 96        	jalr	a3
80200bc0: e3 1e 05 e8  	bnez	a0, 0x80200a5c <_ZN4core3fmt9Formatter12pad_integral17h4d93d6ef3d3008c6E+0xc6>
80200bc4: 03 b9 0b 02  	ld	s2, 32(s7)
80200bc8: 03 b4 8b 02  	ld	s0, 40(s7)
80200bcc: 81 44        	mv	s1, zero
; /rustc/9ad5d82f822b3cb67637f11be2e65c5662b66ec0/library/core/src/iter/range.rs:621
80200bce: 63 0c 9a 00  	beq	s4, s1, 0x80200be6 <_ZN4core3fmt9Formatter12pad_integral17h4d93d6ef3d3008c6E+0x250>
; /rustc/9ad5d82f822b3cb67637f11be2e65c5662b66ec0/library/core/src/fmt/mod.rs:1247
80200bd2: 10 70        	ld	a2, 32(s0)
; /rustc/9ad5d82f822b3cb67637f11be2e65c5662b66ec0/library/core/src/num/uint_macros.rs:464
80200bd4: 85 04        	addi	s1, s1, 1
; /rustc/9ad5d82f822b3cb67637f11be2e65c5662b66ec0/library/core/src/fmt/mod.rs:1247
80200bd6: 4a 85        	mv	a0, s2
80200bd8: da 85        	mv	a1, s6
80200bda: 02 96        	jalr	a2
80200bdc: 6d d9        	beqz	a0, 0x80200bce <_ZN4core3fmt9Formatter12pad_integral17h4d93d6ef3d3008c6E+0x238>
; /rustc/9ad5d82f822b3cb67637f11be2e65c5662b66ec0/library/core/src/cmp.rs:1378
80200bde: 13 85 f4 ff  	addi	a0, s1, -1
; /rustc/9ad5d82f822b3cb67637f11be2e65c5662b66ec0/library/core/src/fmt/mod.rs:1370
80200be2: e3 6d 45 e7  	bltu	a0, s4, 0x80200a5c <_ZN4core3fmt9Formatter12pad_integral17h4d93d6ef3d3008c6E+0xc6>
80200be6: 81 4a        	mv	s5, zero
; /rustc/9ad5d82f822b3cb67637f11be2e65c5662b66ec0/library/core/src/fmt/mod.rs:1371
80200be8: 23 aa 9b 03  	sw	s9, 52(s7)
; /rustc/9ad5d82f822b3cb67637f11be2e65c5662b66ec0/library/core/src/fmt/mod.rs:1372
80200bec: 23 8c ab 03  	sb	s10, 56(s7)
80200bf0: b5 b5        	j	0x80200a5c <_ZN4core3fmt9Formatter12pad_integral17h4d93d6ef3d3008c6E+0xc6>
80200bf2: 66 85        	mv	a0, s9
; /rustc/9ad5d82f822b3cb67637f11be2e65c5662b66ec0/library/core/src/cmp.rs:1378
80200bf4: b3 3a 95 01  	sltu	s5, a0, s9
80200bf8: 95 b5        	j	0x80200a5c <_ZN4core3fmt9Formatter12pad_integral17h4d93d6ef3d3008c6E+0xc6>

0000000080200bfa <_ZN4core3fmt9Formatter12pad_integral12write_prefix17hdef2e18a60234a50E>:
; _ZN4core3fmt9Formatter12pad_integral12write_prefix17hdef2e18a60234a50E():
; /rustc/9ad5d82f822b3cb67637f11be2e65c5662b66ec0/library/core/src/fmt/mod.rs:1341
80200bfa: 01 11        	addi	sp, sp, -32
80200bfc: 06 ec        	sd	ra, 24(sp)
80200bfe: 22 e8        	sd	s0, 16(sp)
80200c00: 26 e4        	sd	s1, 8(sp)
80200c02: 4a e0        	sd	s2, 0(sp)
80200c04: 1b 87 05 00  	sext.w	a4, a1
80200c08: b7 07 11 00  	lui	a5, 272
80200c0c: 36 89        	mv	s2, a3
80200c0e: b2 84        	mv	s1, a2
80200c10: 2a 84        	mv	s0, a0
; /rustc/9ad5d82f822b3cb67637f11be2e65c5662b66ec0/library/core/src/fmt/mod.rs:1342
80200c12: 63 09 f7 00  	beq	a4, a5, 0x80200c24 <_ZN4core3fmt9Formatter12pad_integral12write_prefix17hdef2e18a60234a50E+0x2a>
; /rustc/9ad5d82f822b3cb67637f11be2e65c5662b66ec0/library/core/src/fmt/mod.rs:1343
80200c16: 10 74        	ld	a2, 40(s0)
80200c18: 08 70        	ld	a0, 32(s0)
80200c1a: 10 72        	ld	a2, 32(a2)
80200c1c: 02 96        	jalr	a2
80200c1e: aa 85        	mv	a1, a0
80200c20: 05 45        	addi	a0, zero, 1
80200c22: 91 ed        	bnez	a1, 0x80200c3e <_ZN4core3fmt9Formatter12pad_integral12write_prefix17hdef2e18a60234a50E+0x44>
; /rustc/9ad5d82f822b3cb67637f11be2e65c5662b66ec0/library/core/src/fmt/mod.rs:1345
80200c24: 81 cc        	beqz	s1, 0x80200c3c <_ZN4core3fmt9Formatter12pad_integral12write_prefix17hdef2e18a60234a50E+0x42>
80200c26: 0c 74        	ld	a1, 40(s0)
80200c28: 08 70        	ld	a0, 32(s0)
80200c2a: 9c 6d        	ld	a5, 24(a1)
80200c2c: a6 85        	mv	a1, s1
80200c2e: 4a 86        	mv	a2, s2
80200c30: 02 69        	ld	s2, 0(sp)
80200c32: a2 64        	ld	s1, 8(sp)
80200c34: 42 64        	ld	s0, 16(sp)
80200c36: e2 60        	ld	ra, 24(sp)
80200c38: 05 61        	addi	sp, sp, 32
80200c3a: 82 87        	jr	a5
80200c3c: 01 45        	mv	a0, zero
; /rustc/9ad5d82f822b3cb67637f11be2e65c5662b66ec0/library/core/src/fmt/mod.rs:1346
80200c3e: 02 69        	ld	s2, 0(sp)
80200c40: a2 64        	ld	s1, 8(sp)
80200c42: 42 64        	ld	s0, 16(sp)
80200c44: e2 60        	ld	ra, 24(sp)
80200c46: 05 61        	addi	sp, sp, 32
80200c48: 82 80        	ret

0000000080200c4a <_ZN4core3fmt9Formatter3pad17heb20eb156e3cd483E>:
; _ZN4core3fmt9Formatter3pad17heb20eb156e3cd483E():
; /rustc/9ad5d82f822b3cb67637f11be2e65c5662b66ec0/library/core/src/fmt/mod.rs:1414
80200c4a: 5d 71        	addi	sp, sp, -80
80200c4c: 86 e4        	sd	ra, 72(sp)
80200c4e: a2 e0        	sd	s0, 64(sp)
80200c50: 26 fc        	sd	s1, 56(sp)
80200c52: 4a f8        	sd	s2, 48(sp)
80200c54: 4e f4        	sd	s3, 40(sp)
80200c56: 52 f0        	sd	s4, 32(sp)
80200c58: 56 ec        	sd	s5, 24(sp)
80200c5a: 5a e8        	sd	s6, 16(sp)
80200c5c: 5e e4        	sd	s7, 8(sp)
80200c5e: 18 69        	ld	a4, 16(a0)
; /rustc/9ad5d82f822b3cb67637f11be2e65c5662b66ec0/library/core/src/fmt/mod.rs:1416
80200c60: 14 61        	ld	a3, 0(a0)
80200c62: b2 89        	mv	s3, a2
80200c64: 2e 89        	mv	s2, a1
80200c66: 93 05 f7 ff  	addi	a1, a4, -1
80200c6a: 05 46        	addi	a2, zero, 1
80200c6c: 93 b5 15 00  	seqz	a1, a1
; /rustc/9ad5d82f822b3cb67637f11be2e65c5662b66ec0/library/core/src/fmt/mod.rs:1416
80200c70: 63 94 c6 00  	bne	a3, a2, 0x80200c78 <_ZN4core3fmt9Formatter3pad17heb20eb156e3cd483E+0x2e>
; /rustc/9ad5d82f822b3cb67637f11be2e65c5662b66ec0/library/core/src/fmt/mod.rs:1421
80200c74: 81 e5        	bnez	a1, 0x80200c7c <_ZN4core3fmt9Formatter3pad17heb20eb156e3cd483E+0x32>
80200c76: 21 a2        	j	0x80200d7e <_ZN4core3fmt9Formatter3pad17heb20eb156e3cd483E+0x134>
; /rustc/9ad5d82f822b3cb67637f11be2e65c5662b66ec0/library/core/src/fmt/mod.rs:1416
80200c78: 63 85 05 14  	beqz	a1, 0x80200dc2 <_ZN4core3fmt9Formatter3pad17heb20eb156e3cd483E+0x178>
; /rustc/9ad5d82f822b3cb67637f11be2e65c5662b66ec0/library/core/src/fmt/mod.rs:1421
80200c7c: 18 6d        	ld	a4, 24(a0)
80200c7e: 93 85 f6 ff  	addi	a1, a3, -1
80200c82: 93 b8 15 00  	seqz	a7, a1
; /rustc/9ad5d82f822b3cb67637f11be2e65c5662b66ec0/library/core/src/ptr/const_ptr.rs:295
80200c86: b3 06 39 01  	add	a3, s2, s3
80200c8a: 01 46        	mv	a2, zero
; /rustc/9ad5d82f822b3cb67637f11be2e65c5662b66ec0/library/core/src/iter/range.rs:621
80200c8c: 35 cb        	beqz	a4, 0x80200d00 <_ZN4core3fmt9Formatter3pad17heb20eb156e3cd483E+0xb6>
80200c8e: 13 03 00 0e  	addi	t1, zero, 224
80200c92: 93 02 00 0f  	addi	t0, zero, 240
80200c96: 37 08 11 00  	lui	a6, 272
80200c9a: 4a 84        	mv	s0, s2
80200c9c: 01 a8        	j	0x80200cac <_ZN4core3fmt9Formatter3pad17heb20eb156e3cd483E+0x62>
80200c9e: 93 05 14 00  	addi	a1, s0, 1
; /rustc/9ad5d82f822b3cb67637f11be2e65c5662b66ec0/library/core/src/str/iter.rs:146
80200ca2: 01 8e        	sub	a2, a2, s0
; /rustc/9ad5d82f822b3cb67637f11be2e65c5662b66ec0/library/core/src/cmp.rs:1378
80200ca4: 7d 17        	addi	a4, a4, -1
; /rustc/9ad5d82f822b3cb67637f11be2e65c5662b66ec0/library/core/src/str/iter.rs:146
80200ca6: 2e 96        	add	a2, a2, a1
80200ca8: 2e 84        	mv	s0, a1
; /rustc/9ad5d82f822b3cb67637f11be2e65c5662b66ec0/library/core/src/iter/range.rs:621
80200caa: 21 cf        	beqz	a4, 0x80200d02 <_ZN4core3fmt9Formatter3pad17heb20eb156e3cd483E+0xb8>
; /rustc/9ad5d82f822b3cb67637f11be2e65c5662b66ec0/library/core/src/slice/iter/macros.rs:146
80200cac: 63 07 d4 0c  	beq	s0, a3, 0x80200d7a <_ZN4core3fmt9Formatter3pad17heb20eb156e3cd483E+0x130>
; /rustc/9ad5d82f822b3cb67637f11be2e65c5662b66ec0/library/core/src/str/validations.rs:38
80200cb0: 83 05 04 00  	lb	a1, 0(s0)
; /rustc/9ad5d82f822b3cb67637f11be2e65c5662b66ec0/library/core/src/str/validations.rs:39
80200cb4: e3 d5 05 fe  	bgez	a1, 0x80200c9e <_ZN4core3fmt9Formatter3pad17heb20eb156e3cd483E+0x54>
80200cb8: 93 f5 f5 0f  	andi	a1, a1, 255
; /rustc/9ad5d82f822b3cb67637f11be2e65c5662b66ec0/library/core/src/str/validations.rs:51
80200cbc: 63 ec 65 02  	bltu	a1, t1, 0x80200cf4 <_ZN4core3fmt9Formatter3pad17heb20eb156e3cd483E+0xaa>
; /rustc/9ad5d82f822b3cb67637f11be2e65c5662b66ec0/library/core/src/str/validations.rs:59
80200cc0: 63 ed 55 02  	bltu	a1, t0, 0x80200cfa <_ZN4core3fmt9Formatter3pad17heb20eb156e3cd483E+0xb0>
; /rustc/9ad5d82f822b3cb67637f11be2e65c5662b66ec0/library/core/src/str/validations.rs:49
80200cc4: 83 44 14 00  	lbu	s1, 1(s0)
; /rustc/9ad5d82f822b3cb67637f11be2e65c5662b66ec0/library/core/src/str/validations.rs:56
80200cc8: 83 47 24 00  	lbu	a5, 2(s0)
; /rustc/9ad5d82f822b3cb67637f11be2e65c5662b66ec0/library/core/src/str/validations.rs:18
80200ccc: 93 f4 f4 03  	andi	s1, s1, 63
80200cd0: 93 f7 f7 03  	andi	a5, a5, 63
; /rustc/9ad5d82f822b3cb67637f11be2e65c5662b66ec0/library/core/src/str/validations.rs:64
80200cd4: 83 43 34 00  	lbu	t2, 3(s0)
; /rustc/9ad5d82f822b3cb67637f11be2e65c5662b66ec0/library/core/src/str/validations.rs:65
80200cd8: f6 15        	slli	a1, a1, 61
80200cda: ad 91        	srli	a1, a1, 43
; /rustc/9ad5d82f822b3cb67637f11be2e65c5662b66ec0/library/core/src/str/validations.rs:18
80200cdc: b2 04        	slli	s1, s1, 12
80200cde: 9a 07        	slli	a5, a5, 6
80200ce0: c5 8f        	or	a5, a5, s1
80200ce2: 93 f4 f3 03  	andi	s1, t2, 63
80200ce6: c5 8f        	or	a5, a5, s1
; /rustc/9ad5d82f822b3cb67637f11be2e65c5662b66ec0/library/core/src/str/validations.rs:65
80200ce8: dd 8d        	or	a1, a1, a5
; /rustc/9ad5d82f822b3cb67637f11be2e65c5662b66ec0/library/core/src/str/iter.rs:141
80200cea: 63 88 05 09  	beq	a1, a6, 0x80200d7a <_ZN4core3fmt9Formatter3pad17heb20eb156e3cd483E+0x130>
80200cee: 93 05 44 00  	addi	a1, s0, 4
80200cf2: 45 bf        	j	0x80200ca2 <_ZN4core3fmt9Formatter3pad17heb20eb156e3cd483E+0x58>
80200cf4: 93 05 24 00  	addi	a1, s0, 2
80200cf8: 6d b7        	j	0x80200ca2 <_ZN4core3fmt9Formatter3pad17heb20eb156e3cd483E+0x58>
80200cfa: 93 05 34 00  	addi	a1, s0, 3
80200cfe: 55 b7        	j	0x80200ca2 <_ZN4core3fmt9Formatter3pad17heb20eb156e3cd483E+0x58>
80200d00: ca 85        	mv	a1, s2
; /rustc/9ad5d82f822b3cb67637f11be2e65c5662b66ec0/library/core/src/slice/iter/macros.rs:146
80200d02: 63 8c d5 06  	beq	a1, a3, 0x80200d7a <_ZN4core3fmt9Formatter3pad17heb20eb156e3cd483E+0x130>
; /rustc/9ad5d82f822b3cb67637f11be2e65c5662b66ec0/library/core/src/str/validations.rs:38
80200d06: 83 c6 05 00  	lbu	a3, 0(a1)
80200d0a: 13 07 00 0f  	addi	a4, zero, 240
; /rustc/9ad5d82f822b3cb67637f11be2e65c5662b66ec0/library/core/src/str/validations.rs:39
80200d0e: 63 e9 e6 02  	bltu	a3, a4, 0x80200d40 <_ZN4core3fmt9Formatter3pad17heb20eb156e3cd483E+0xf6>
; /rustc/9ad5d82f822b3cb67637f11be2e65c5662b66ec0/library/core/src/str/validations.rs:49
80200d12: 03 c7 15 00  	lbu	a4, 1(a1)
; /rustc/9ad5d82f822b3cb67637f11be2e65c5662b66ec0/library/core/src/str/validations.rs:56
80200d16: 83 c7 25 00  	lbu	a5, 2(a1)
; /rustc/9ad5d82f822b3cb67637f11be2e65c5662b66ec0/library/core/src/str/validations.rs:18
80200d1a: 13 77 f7 03  	andi	a4, a4, 63
80200d1e: 93 f7 f7 03  	andi	a5, a5, 63
; /rustc/9ad5d82f822b3cb67637f11be2e65c5662b66ec0/library/core/src/str/validations.rs:64
80200d22: 83 c5 35 00  	lbu	a1, 3(a1)
; /rustc/9ad5d82f822b3cb67637f11be2e65c5662b66ec0/library/core/src/str/validations.rs:65
80200d26: f6 16        	slli	a3, a3, 61
80200d28: ad 92        	srli	a3, a3, 43
; /rustc/9ad5d82f822b3cb67637f11be2e65c5662b66ec0/library/core/src/str/validations.rs:18
80200d2a: 32 07        	slli	a4, a4, 12
80200d2c: 9a 07        	slli	a5, a5, 6
80200d2e: 5d 8f        	or	a4, a4, a5
80200d30: 93 f5 f5 03  	andi	a1, a1, 63
80200d34: d9 8d        	or	a1, a1, a4
; /rustc/9ad5d82f822b3cb67637f11be2e65c5662b66ec0/library/core/src/str/validations.rs:65
80200d36: d5 8d        	or	a1, a1, a3
80200d38: b7 06 11 00  	lui	a3, 272
; /rustc/9ad5d82f822b3cb67637f11be2e65c5662b66ec0/library/core/src/str/iter.rs:141
80200d3c: 63 8f d5 02  	beq	a1, a3, 0x80200d7a <_ZN4core3fmt9Formatter3pad17heb20eb156e3cd483E+0x130>
; /rustc/9ad5d82f822b3cb67637f11be2e65c5662b66ec0/library/core/src/str/mod.rs:201
80200d40: 05 c2        	beqz	a2, 0x80200d60 <_ZN4core3fmt9Formatter3pad17heb20eb156e3cd483E+0x116>
; /rustc/9ad5d82f822b3cb67637f11be2e65c5662b66ec0/library/core/src/str/mod.rs:205
80200d42: 63 74 36 03  	bgeu	a2, s3, 0x80200d6a <_ZN4core3fmt9Formatter3pad17heb20eb156e3cd483E+0x120>
80200d46: b3 05 c9 00  	add	a1, s2, a2
; /rustc/9ad5d82f822b3cb67637f11be2e65c5662b66ec0/library/core/src/str/mod.rs:218
80200d4a: 83 85 05 00  	lb	a1, 0(a1)
80200d4e: 93 06 00 fc  	addi	a3, zero, -64
; /rustc/9ad5d82f822b3cb67637f11be2e65c5662b66ec0/library/core/src/str/traits.rs:254
80200d52: 63 cd d5 0e  	blt	a1, a3, 0x80200e4c <_ZN4core3fmt9Formatter3pad17heb20eb156e3cd483E+0x202>
80200d56: b2 85        	mv	a1, a2
80200d58: 2e 86        	mv	a2, a1
80200d5a: ca 85        	mv	a1, s2
; /rustc/9ad5d82f822b3cb67637f11be2e65c5662b66ec0/library/core/src/option.rs:754
80200d5c: 99 cd        	beqz	a1, 0x80200d7a <_ZN4core3fmt9Formatter3pad17heb20eb156e3cd483E+0x130>
80200d5e: 21 a8        	j	0x80200d76 <_ZN4core3fmt9Formatter3pad17heb20eb156e3cd483E+0x12c>
80200d60: 81 45        	mv	a1, zero
80200d62: 2e 86        	mv	a2, a1
80200d64: ca 85        	mv	a1, s2
; /rustc/9ad5d82f822b3cb67637f11be2e65c5662b66ec0/library/core/src/option.rs:754
80200d66: 91 c9        	beqz	a1, 0x80200d7a <_ZN4core3fmt9Formatter3pad17heb20eb156e3cd483E+0x130>
80200d68: 39 a0        	j	0x80200d76 <_ZN4core3fmt9Formatter3pad17heb20eb156e3cd483E+0x12c>
80200d6a: ce 85        	mv	a1, s3
; /rustc/9ad5d82f822b3cb67637f11be2e65c5662b66ec0/library/core/src/str/traits.rs:254
80200d6c: 63 10 36 0f  	bne	a2, s3, 0x80200e4c <_ZN4core3fmt9Formatter3pad17heb20eb156e3cd483E+0x202>
80200d70: 2e 86        	mv	a2, a1
80200d72: ca 85        	mv	a1, s2
; /rustc/9ad5d82f822b3cb67637f11be2e65c5662b66ec0/library/core/src/option.rs:754
80200d74: 99 c1        	beqz	a1, 0x80200d7a <_ZN4core3fmt9Formatter3pad17heb20eb156e3cd483E+0x130>
80200d76: 2e 89        	mv	s2, a1
80200d78: b2 89        	mv	s3, a2
; /rustc/9ad5d82f822b3cb67637f11be2e65c5662b66ec0/library/core/src/fmt/mod.rs:1438
80200d7a: 63 84 08 04  	beqz	a7, 0x80200dc2 <_ZN4core3fmt9Formatter3pad17heb20eb156e3cd483E+0x178>
; /rustc/9ad5d82f822b3cb67637f11be2e65c5662b66ec0/library/core/src/fmt/mod.rs:1442
80200d7e: 0c 65        	ld	a1, 8(a0)
80200d80: 01 46        	mv	a2, zero
80200d82: 63 8e 09 00  	beqz	s3, 0x80200d9e <_ZN4core3fmt9Formatter3pad17heb20eb156e3cd483E+0x154>
80200d86: 93 06 f0 fb  	addi	a3, zero, -65
80200d8a: 4e 87        	mv	a4, s3
80200d8c: ca 87        	mv	a5, s2
; /rustc/9ad5d82f822b3cb67637f11be2e65c5662b66ec0/library/core/src/iter/traits/iterator.rs:2167
80200d8e: 83 84 07 00  	lb	s1, 0(a5)
; /rustc/9ad5d82f822b3cb67637f11be2e65c5662b66ec0/library/core/src/ptr/mut_ptr.rs:307
80200d92: 85 07        	addi	a5, a5, 1
; /rustc/9ad5d82f822b3cb67637f11be2e65c5662b66ec0/library/core/src/str/validations.rs:25
80200d94: b3 a4 96 00  	slt	s1, a3, s1
; /rustc/9ad5d82f822b3cb67637f11be2e65c5662b66ec0/library/core/src/slice/iter/macros.rs:146
80200d98: 7d 17        	addi	a4, a4, -1
; /rustc/9ad5d82f822b3cb67637f11be2e65c5662b66ec0/library/core/src/iter/traits/accum.rs:45
80200d9a: 26 96        	add	a2, a2, s1
80200d9c: 6d fb        	bnez	a4, 0x80200d8e <_ZN4core3fmt9Formatter3pad17heb20eb156e3cd483E+0x144>
80200d9e: 63 72 b6 02  	bgeu	a2, a1, 0x80200dc2 <_ZN4core3fmt9Formatter3pad17heb20eb156e3cd483E+0x178>
; /rustc/9ad5d82f822b3cb67637f11be2e65c5662b66ec0/library/core/src/fmt/mod.rs:1469
80200da2: 83 46 85 03  	lbu	a3, 56(a0)
80200da6: 8d 47        	addi	a5, zero, 3
80200da8: 01 47        	mv	a4, zero
80200daa: 63 83 f6 00  	beq	a3, a5, 0x80200db0 <_ZN4core3fmt9Formatter3pad17heb20eb156e3cd483E+0x166>
80200dae: 36 87        	mv	a4, a3
; /rustc/9ad5d82f822b3cb67637f11be2e65c5662b66ec0/library/core/src/fmt/mod.rs:1474
80200db0: 93 76 37 00  	andi	a3, a4, 3
80200db4: 91 8d        	sub	a1, a1, a2
80200db6: 95 c6        	beqz	a3, 0x80200de2 <_ZN4core3fmt9Formatter3pad17heb20eb156e3cd483E+0x198>
80200db8: 05 46        	addi	a2, zero, 1
; /rustc/9ad5d82f822b3cb67637f11be2e65c5662b66ec0/library/core/src/fmt/mod.rs:1474
80200dba: 63 97 c6 02  	bne	a3, a2, 0x80200de8 <_ZN4core3fmt9Formatter3pad17heb20eb156e3cd483E+0x19e>
80200dbe: 81 4a        	mv	s5, zero
80200dc0: 0d a8        	j	0x80200df2 <_ZN4core3fmt9Formatter3pad17heb20eb156e3cd483E+0x1a8>
80200dc2: 0c 75        	ld	a1, 40(a0)
80200dc4: 08 71        	ld	a0, 32(a0)
80200dc6: 9c 6d        	ld	a5, 24(a1)
80200dc8: ca 85        	mv	a1, s2
80200dca: 4e 86        	mv	a2, s3
80200dcc: a2 6b        	ld	s7, 8(sp)
80200dce: 42 6b        	ld	s6, 16(sp)
80200dd0: e2 6a        	ld	s5, 24(sp)
80200dd2: 02 7a        	ld	s4, 32(sp)
80200dd4: a2 79        	ld	s3, 40(sp)
80200dd6: 42 79        	ld	s2, 48(sp)
80200dd8: e2 74        	ld	s1, 56(sp)
80200dda: 06 64        	ld	s0, 64(sp)
80200ddc: a6 60        	ld	ra, 72(sp)
80200dde: 61 61        	addi	sp, sp, 80
80200de0: 82 87        	jr	a5
80200de2: ae 8a        	mv	s5, a1
80200de4: 81 45        	mv	a1, zero
80200de6: 31 a0        	j	0x80200df2 <_ZN4core3fmt9Formatter3pad17heb20eb156e3cd483E+0x1a8>
; /rustc/9ad5d82f822b3cb67637f11be2e65c5662b66ec0/library/core/src/fmt/mod.rs:1477
80200de8: 13 86 15 00  	addi	a2, a1, 1
80200dec: 85 81        	srli	a1, a1, 1
80200dee: 93 5a 16 00  	srli	s5, a2, 1
80200df2: 03 3b 05 02  	ld	s6, 32(a0)
80200df6: 83 3b 85 02  	ld	s7, 40(a0)
80200dfa: 03 64 45 03  	lwu	s0, 52(a0)
; /rustc/9ad5d82f822b3cb67637f11be2e65c5662b66ec0/library/core/src/fmt/mod.rs:1480
80200dfe: 93 84 15 00  	addi	s1, a1, 1
; /rustc/9ad5d82f822b3cb67637f11be2e65c5662b66ec0/library/core/src/cmp.rs:1378
80200e02: fd 14        	addi	s1, s1, -1
; /rustc/9ad5d82f822b3cb67637f11be2e65c5662b66ec0/library/core/src/iter/range.rs:621
80200e04: 89 c8        	beqz	s1, 0x80200e16 <_ZN4core3fmt9Formatter3pad17heb20eb156e3cd483E+0x1cc>
; /rustc/9ad5d82f822b3cb67637f11be2e65c5662b66ec0/library/core/src/fmt/mod.rs:1481
80200e06: 03 b6 0b 02  	ld	a2, 32(s7)
80200e0a: 5a 85        	mv	a0, s6
80200e0c: a2 85        	mv	a1, s0
80200e0e: 02 96        	jalr	a2
80200e10: 6d d9        	beqz	a0, 0x80200e02 <_ZN4core3fmt9Formatter3pad17heb20eb156e3cd483E+0x1b8>
80200e12: 05 4a        	addi	s4, zero, 1
80200e14: 91 a0        	j	0x80200e58 <_ZN4core3fmt9Formatter3pad17heb20eb156e3cd483E+0x20e>
; /rustc/9ad5d82f822b3cb67637f11be2e65c5662b66ec0/library/core/src/fmt/mod.rs:1453
80200e16: 1b 05 04 00  	sext.w	a0, s0
80200e1a: b7 05 11 00  	lui	a1, 272
80200e1e: 05 4a        	addi	s4, zero, 1
80200e20: 63 0c b5 02  	beq	a0, a1, 0x80200e58 <_ZN4core3fmt9Formatter3pad17heb20eb156e3cd483E+0x20e>
; /rustc/9ad5d82f822b3cb67637f11be2e65c5662b66ec0/library/core/src/fmt/mod.rs:1454
80200e24: 83 b6 8b 01  	ld	a3, 24(s7)
80200e28: 5a 85        	mv	a0, s6
80200e2a: ca 85        	mv	a1, s2
80200e2c: 4e 86        	mv	a2, s3
80200e2e: 82 96        	jalr	a3
80200e30: 05 e5        	bnez	a0, 0x80200e58 <_ZN4core3fmt9Formatter3pad17heb20eb156e3cd483E+0x20e>
80200e32: 81 44        	mv	s1, zero
; /rustc/9ad5d82f822b3cb67637f11be2e65c5662b66ec0/library/core/src/iter/range.rs:621
80200e34: 63 8f 9a 00  	beq	s5, s1, 0x80200e52 <_ZN4core3fmt9Formatter3pad17heb20eb156e3cd483E+0x208>
; /rustc/9ad5d82f822b3cb67637f11be2e65c5662b66ec0/library/core/src/fmt/mod.rs:1247
80200e38: 03 b6 0b 02  	ld	a2, 32(s7)
; /rustc/9ad5d82f822b3cb67637f11be2e65c5662b66ec0/library/core/src/num/uint_macros.rs:464
80200e3c: 85 04        	addi	s1, s1, 1
; /rustc/9ad5d82f822b3cb67637f11be2e65c5662b66ec0/library/core/src/fmt/mod.rs:1247
80200e3e: 5a 85        	mv	a0, s6
80200e40: a2 85        	mv	a1, s0
80200e42: 02 96        	jalr	a2
80200e44: 65 d9        	beqz	a0, 0x80200e34 <_ZN4core3fmt9Formatter3pad17heb20eb156e3cd483E+0x1ea>
80200e46: 13 85 f4 ff  	addi	a0, s1, -1
80200e4a: 29 a0        	j	0x80200e54 <_ZN4core3fmt9Formatter3pad17heb20eb156e3cd483E+0x20a>
80200e4c: 81 45        	mv	a1, zero
; /rustc/9ad5d82f822b3cb67637f11be2e65c5662b66ec0/library/core/src/option.rs:754
80200e4e: 95 d5        	beqz	a1, 0x80200d7a <_ZN4core3fmt9Formatter3pad17heb20eb156e3cd483E+0x130>
80200e50: 1d b7        	j	0x80200d76 <_ZN4core3fmt9Formatter3pad17heb20eb156e3cd483E+0x12c>
80200e52: 56 85        	mv	a0, s5
; /rustc/9ad5d82f822b3cb67637f11be2e65c5662b66ec0/library/core/src/cmp.rs:1378
80200e54: 33 3a 55 01  	sltu	s4, a0, s5
; /rustc/9ad5d82f822b3cb67637f11be2e65c5662b66ec0/library/core/src/fmt/mod.rs:1459
80200e58: 52 85        	mv	a0, s4
80200e5a: a2 6b        	ld	s7, 8(sp)
80200e5c: 42 6b        	ld	s6, 16(sp)
80200e5e: e2 6a        	ld	s5, 24(sp)
80200e60: 02 7a        	ld	s4, 32(sp)
80200e62: a2 79        	ld	s3, 40(sp)
80200e64: 42 79        	ld	s2, 48(sp)
80200e66: e2 74        	ld	s1, 56(sp)
80200e68: 06 64        	ld	s0, 64(sp)
80200e6a: a6 60        	ld	ra, 72(sp)
80200e6c: 61 61        	addi	sp, sp, 80
80200e6e: 82 80        	ret

0000000080200e70 <_ZN42_$LT$str$u20$as$u20$core..fmt..Display$GT$3fmt17h71611f9dab9a6398E>:
; _ZN42_$LT$str$u20$as$u20$core..fmt..Display$GT$3fmt17h71611f9dab9a6398E():
; /rustc/9ad5d82f822b3cb67637f11be2e65c5662b66ec0/library/core/src/fmt/mod.rs:2174
80200e70: ae 86        	mv	a3, a1
80200e72: aa 85        	mv	a1, a0
; /rustc/9ad5d82f822b3cb67637f11be2e65c5662b66ec0/library/core/src/fmt/mod.rs:2175
80200e74: 32 85        	mv	a0, a2
80200e76: 36 86        	mv	a2, a3
80200e78: 17 03 00 00  	auipc	t1, 0
80200e7c: 67 00 23 dd  	jr	-558(t1)

0000000080200e80 <_ZN4core3fmt3num3imp7fmt_u6417he7d0319b0f6241a3E>:
; _ZN4core3fmt3num3imp7fmt_u6417he7d0319b0f6241a3E():
; /rustc/9ad5d82f822b3cb67637f11be2e65c5662b66ec0/library/core/src/fmt/num.rs:211
80200e80: 39 71        	addi	sp, sp, -64
80200e82: 06 fc        	sd	ra, 56(sp)
80200e84: 22 f8        	sd	s0, 48(sp)
80200e86: 26 f4        	sd	s1, 40(sp)
80200e88: 32 88        	mv	a6, a2
; /rustc/9ad5d82f822b3cb67637f11be2e65c5662b66ec0/library/core/src/fmt/num.rs:230
80200e8a: 13 56 45 00  	srli	a2, a0, 4
80200e8e: 13 07 70 02  	addi	a4, zero, 39
80200e92: 93 06 10 27  	addi	a3, zero, 625

0000000080200e96 <.LBB488_10>:
; .LBB488_10():
80200e96: 97 18 00 00  	auipc	a7, 1
80200e9a: 93 88 28 40  	addi	a7, a7, 1026
; /rustc/9ad5d82f822b3cb67637f11be2e65c5662b66ec0/library/core/src/fmt/num.rs:230
80200e9e: 63 73 d6 02  	bgeu	a2, a3, 0x80200ec4 <.LBB488_10+0x2e>
80200ea2: 13 06 30 06  	addi	a2, zero, 99
; /rustc/9ad5d82f822b3cb67637f11be2e65c5662b66ec0/library/core/src/fmt/num.rs:249
80200ea6: 63 4f a6 0a  	blt	a2, a0, 0x80200f64 <.LBB488_10+0xce>
80200eaa: 29 46        	addi	a2, zero, 10
; /rustc/9ad5d82f822b3cb67637f11be2e65c5662b66ec0/library/core/src/fmt/num.rs:257
80200eac: 63 5d c5 0e  	bge	a0, a2, 0x80200fa6 <.LBB488_10+0x110>
; /rustc/9ad5d82f822b3cb67637f11be2e65c5662b66ec0/library/core/src/fmt/num.rs:258
80200eb0: 13 06 f7 ff  	addi	a2, a4, -1
80200eb4: 93 06 11 00  	addi	a3, sp, 1
; /rustc/9ad5d82f822b3cb67637f11be2e65c5662b66ec0/library/core/src/ptr/mut_ptr.rs:307
80200eb8: b2 96        	add	a3, a3, a2
; /rustc/9ad5d82f822b3cb67637f11be2e65c5662b66ec0/library/core/src/fmt/num.rs:259
80200eba: 13 05 05 03  	addi	a0, a0, 48
80200ebe: 23 80 a6 00  	sb	a0, 0(a3)
80200ec2: 09 a2        	j	0x80200fc4 <.LBB488_10+0x12e>
80200ec4: 01 47        	mv	a4, zero
80200ec6: 37 36 1a 00  	lui	a2, 419
80200eca: 1b 06 36 6e  	addiw	a2, a2, 1763
80200ece: 3a 06        	slli	a2, a2, 14
80200ed0: 13 06 76 ac  	addi	a2, a2, -1337
80200ed4: 3a 06        	slli	a2, a2, 14
80200ed6: 13 06 36 43  	addi	a2, a2, 1075
80200eda: 36 06        	slli	a2, a2, 13
80200edc: 93 03 b6 94  	addi	t2, a2, -1717
80200ee0: 09 66        	lui	a2, 2
80200ee2: 1b 0e 06 71  	addiw	t3, a2, 1808
80200ee6: 05 66        	lui	a2, 1
80200ee8: 9b 0e b6 47  	addiw	t4, a2, 1147
80200eec: 93 02 40 06  	addi	t0, zero, 100
80200ef0: 13 03 11 00  	addi	t1, sp, 1
80200ef4: b7 e7 f5 05  	lui	a5, 24414
80200ef8: 1b 8f f7 0f  	addiw	t5, a5, 255
80200efc: aa 86        	mv	a3, a0
; /rustc/9ad5d82f822b3cb67637f11be2e65c5662b66ec0/library/core/src/fmt/num.rs:232
80200efe: 33 35 75 02  	mulhu	a0, a0, t2
80200f02: 2d 81        	srli	a0, a0, 11
80200f04: 33 06 c5 03  	mul	a2, a0, t3
80200f08: 33 86 c6 40  	sub	a2, a3, a2
; /rustc/9ad5d82f822b3cb67637f11be2e65c5662b66ec0/library/core/src/fmt/num.rs:234
80200f0c: 93 17 06 03  	slli	a5, a2, 48
80200f10: c9 93        	srli	a5, a5, 50
80200f12: b3 87 d7 03  	mul	a5, a5, t4
80200f16: c5 83        	srli	a5, a5, 17
80200f18: 93 9f 17 00  	slli	t6, a5, 1
80200f1c: b3 87 57 02  	mul	a5, a5, t0
80200f20: 1d 8e        	sub	a2, a2, a5
; /rustc/9ad5d82f822b3cb67637f11be2e65c5662b66ec0/library/core/src/fmt/num.rs:235
80200f22: 46 16        	slli	a2, a2, 49
80200f24: 13 54 06 03  	srli	s0, a2, 48
; /rustc/9ad5d82f822b3cb67637f11be2e65c5662b66ec0/library/core/src/ptr/const_ptr.rs:295
80200f28: b3 87 1f 01  	add	a5, t6, a7
; /rustc/9ad5d82f822b3cb67637f11be2e65c5662b66ec0/library/core/src/intrinsics.rs:2083
80200f2c: 33 06 e3 00  	add	a2, t1, a4
80200f30: 83 cf 07 00  	lbu	t6, 0(a5)
80200f34: 83 87 17 00  	lb	a5, 1(a5)
; /rustc/9ad5d82f822b3cb67637f11be2e65c5662b66ec0/library/core/src/ptr/const_ptr.rs:295
80200f38: 46 94        	add	s0, s0, a7
; /rustc/9ad5d82f822b3cb67637f11be2e65c5662b66ec0/library/core/src/intrinsics.rs:2083
80200f3a: 83 04 14 00  	lb	s1, 1(s0)
80200f3e: 03 44 04 00  	lbu	s0, 0(s0)
80200f42: 23 02 f6 02  	sb	a5, 36(a2)
80200f46: a3 01 f6 03  	sb	t6, 35(a2)
80200f4a: 23 03 96 02  	sb	s1, 38(a2)
80200f4e: a3 02 86 02  	sb	s0, 37(a2)
; /rustc/9ad5d82f822b3cb67637f11be2e65c5662b66ec0/library/core/src/fmt/num.rs:230
80200f52: 71 17        	addi	a4, a4, -4
80200f54: e3 64 df fa  	bltu	t5, a3, 0x80200efc <.LBB488_10+0x66>
; /rustc/9ad5d82f822b3cb67637f11be2e65c5662b66ec0/library/core/src/fmt/num.rs:249
80200f58: 13 07 77 02  	addi	a4, a4, 39
80200f5c: 13 06 30 06  	addi	a2, zero, 99
80200f60: e3 55 a6 f4  	bge	a2, a0, 0x80200eaa <.LBB488_10+0x14>
; /rustc/9ad5d82f822b3cb67637f11be2e65c5662b66ec0/library/core/src/fmt/num.rs:251
80200f64: 13 16 05 03  	slli	a2, a0, 48
80200f68: 49 92        	srli	a2, a2, 50
80200f6a: 85 66        	lui	a3, 1
80200f6c: 9b 86 b6 47  	addiw	a3, a3, 1147
80200f70: 33 06 d6 02  	mul	a2, a2, a3
80200f74: 45 82        	srli	a2, a2, 17
80200f76: 93 06 40 06  	addi	a3, zero, 100
80200f7a: b3 06 d6 02  	mul	a3, a2, a3
80200f7e: 15 8d        	sub	a0, a0, a3
; /rustc/9ad5d82f822b3cb67637f11be2e65c5662b66ec0/library/core/src/fmt/num.rs:250
80200f80: 46 15        	slli	a0, a0, 49
80200f82: 41 91        	srli	a0, a0, 48
; /rustc/9ad5d82f822b3cb67637f11be2e65c5662b66ec0/library/core/src/fmt/num.rs:252
80200f84: 79 17        	addi	a4, a4, -2
; /rustc/9ad5d82f822b3cb67637f11be2e65c5662b66ec0/library/core/src/ptr/const_ptr.rs:295
80200f86: 46 95        	add	a0, a0, a7
; /rustc/9ad5d82f822b3cb67637f11be2e65c5662b66ec0/library/core/src/intrinsics.rs:2083
80200f88: 83 06 15 00  	lb	a3, 1(a0)
80200f8c: 03 45 05 00  	lbu	a0, 0(a0)
80200f90: 93 07 11 00  	addi	a5, sp, 1
; /rustc/9ad5d82f822b3cb67637f11be2e65c5662b66ec0/library/core/src/ptr/mut_ptr.rs:307
80200f94: ba 97        	add	a5, a5, a4
; /rustc/9ad5d82f822b3cb67637f11be2e65c5662b66ec0/library/core/src/intrinsics.rs:2083
80200f96: a3 80 d7 00  	sb	a3, 1(a5)
80200f9a: 23 80 a7 00  	sb	a0, 0(a5)
80200f9e: 32 85        	mv	a0, a2
80200fa0: 29 46        	addi	a2, zero, 10
; /rustc/9ad5d82f822b3cb67637f11be2e65c5662b66ec0/library/core/src/fmt/num.rs:257
80200fa2: e3 47 c5 f0  	blt	a0, a2, 0x80200eb0 <.LBB488_10+0x1a>
; /rustc/9ad5d82f822b3cb67637f11be2e65c5662b66ec0/library/core/src/fmt/num.rs:261
80200fa6: 06 05        	slli	a0, a0, 1
; /rustc/9ad5d82f822b3cb67637f11be2e65c5662b66ec0/library/core/src/fmt/num.rs:262
80200fa8: 13 06 e7 ff  	addi	a2, a4, -2
; /rustc/9ad5d82f822b3cb67637f11be2e65c5662b66ec0/library/core/src/ptr/const_ptr.rs:295
80200fac: 46 95        	add	a0, a0, a7
; /rustc/9ad5d82f822b3cb67637f11be2e65c5662b66ec0/library/core/src/intrinsics.rs:2083
80200fae: 83 06 15 00  	lb	a3, 1(a0)
80200fb2: 03 45 05 00  	lbu	a0, 0(a0)
80200fb6: 13 07 11 00  	addi	a4, sp, 1
; /rustc/9ad5d82f822b3cb67637f11be2e65c5662b66ec0/library/core/src/ptr/mut_ptr.rs:307
80200fba: 32 97        	add	a4, a4, a2
; /rustc/9ad5d82f822b3cb67637f11be2e65c5662b66ec0/library/core/src/intrinsics.rs:2083
80200fbc: a3 00 d7 00  	sb	a3, 1(a4)
80200fc0: 23 00 a7 00  	sb	a0, 0(a4)
80200fc4: 13 05 11 00  	addi	a0, sp, 1
; /rustc/9ad5d82f822b3cb67637f11be2e65c5662b66ec0/library/core/src/ptr/mut_ptr.rs:307
80200fc8: 33 07 c5 00  	add	a4, a0, a2
80200fcc: 13 05 70 02  	addi	a0, zero, 39
; /rustc/9ad5d82f822b3cb67637f11be2e65c5662b66ec0/library/core/src/fmt/num.rs:271
80200fd0: b3 07 c5 40  	sub	a5, a0, a2

0000000080200fd4 <.LBB488_11>:
; .LBB488_11():
; /rustc/9ad5d82f822b3cb67637f11be2e65c5662b66ec0/library/core/src/fmt/num.rs:273
80200fd4: 17 16 00 00  	auipc	a2, 1
80200fd8: 13 06 c6 27  	addi	a2, a2, 636
80200fdc: 42 85        	mv	a0, a6
80200fde: 81 46        	mv	a3, zero
80200fe0: 97 00 00 00  	auipc	ra, 0
80200fe4: e7 80 60 9b  	jalr	-1610(ra)
; /rustc/9ad5d82f822b3cb67637f11be2e65c5662b66ec0/library/core/src/fmt/num.rs:274
80200fe8: a2 74        	ld	s1, 40(sp)
80200fea: 42 74        	ld	s0, 48(sp)
80200fec: e2 70        	ld	ra, 56(sp)
80200fee: 21 61        	addi	sp, sp, 64
80200ff0: 82 80        	ret

0000000080200ff2 <_ZN4core3fmt3num3imp52_$LT$impl$u20$core..fmt..Display$u20$for$u20$u32$GT$3fmt17h088c6e9675da2aebE>:
; _ZN4core3fmt3num3imp52_$LT$impl$u20$core..fmt..Display$u20$for$u20$u32$GT$3fmt17h088c6e9675da2aebE():
; /rustc/9ad5d82f822b3cb67637f11be2e65c5662b66ec0/library/core/src/fmt/num.rs:45
80200ff2: 03 65 05 00  	lwu	a0, 0(a0)
80200ff6: 2e 86        	mv	a2, a1
; /rustc/9ad5d82f822b3cb67637f11be2e65c5662b66ec0/library/core/src/fmt/num.rs:287
80200ff8: 85 45        	addi	a1, zero, 1
80200ffa: 17 03 00 00  	auipc	t1, 0
80200ffe: 67 00 63 e8  	jr	-378(t1)

0000000080201002 <_ZN4core3fmt3num3imp54_$LT$impl$u20$core..fmt..Display$u20$for$u20$usize$GT$3fmt17hd9c16d7572507252E>:
; _ZN4core3fmt3num3imp52_$LT$impl$u20$core..fmt..Display$u20$for$u20$u64$GT$3fmt17h16304a8b762c462bE():
; /rustc/9ad5d82f822b3cb67637f11be2e65c5662b66ec0/library/core/src/fmt/num.rs:45
80201002: 08 61        	ld	a0, 0(a0)
80201004: 2e 86        	mv	a2, a1
; /rustc/9ad5d82f822b3cb67637f11be2e65c5662b66ec0/library/core/src/fmt/num.rs:287
80201006: 85 45        	addi	a1, zero, 1
80201008: 17 03 00 00  	auipc	t1, 0
8020100c: 67 00 83 e7  	jr	-392(t1)

0000000080201010 <_ZN53_$LT$core..fmt..Error$u20$as$u20$core..fmt..Debug$GT$3fmt17h1a2ef9fef0ff4e41E>:
; _ZN53_$LT$core..fmt..Error$u20$as$u20$core..fmt..Debug$GT$3fmt17h1a2ef9fef0ff4e41E():
; /rustc/9ad5d82f822b3cb67637f11be2e65c5662b66ec0/library/core/src/fmt/mod.rs:1599
80201010: 90 75        	ld	a2, 40(a1)
80201012: 88 71        	ld	a0, 32(a1)
80201014: 1c 6e        	ld	a5, 24(a2)

0000000080201016 <.LBB520_1>:
; .LBB520_1():
; /rustc/9ad5d82f822b3cb67637f11be2e65c5662b66ec0/library/core/src/fmt/mod.rs:1599
80201016: 97 15 00 00  	auipc	a1, 1
8020101a: 93 85 a5 34  	addi	a1, a1, 842
8020101e: 15 46        	addi	a2, zero, 5
80201020: 82 87        	jr	a5

0000000080201022 <_ZN42_$LT$$RF$T$u20$as$u20$core..fmt..Debug$GT$3fmt17hfd91d91e762f255cE>:
; _ZN42_$LT$$RF$T$u20$as$u20$core..fmt..Debug$GT$3fmt17hfd91d91e762f255cE():
; /rustc/9ad5d82f822b3cb67637f11be2e65c5662b66ec0/library/core/src/fmt/mod.rs:2106
80201022: 10 65        	ld	a2, 8(a0)
80201024: 08 61        	ld	a0, 0(a0)
80201026: 1c 6e        	ld	a5, 24(a2)
80201028: 82 87        	jr	a5

000000008020102a <_ZN44_$LT$$RF$T$u20$as$u20$core..fmt..Display$GT$3fmt17h5d27d82e2dbf06d5E>:
; _ZN44_$LT$$RF$T$u20$as$u20$core..fmt..Display$GT$3fmt17h5d27d82e2dbf06d5E():
; /rustc/9ad5d82f822b3cb67637f11be2e65c5662b66ec0/library/core/src/fmt/mod.rs:2106
8020102a: 14 61        	ld	a3, 0(a0)
8020102c: 10 65        	ld	a2, 8(a0)
8020102e: 2e 85        	mv	a0, a1
; /rustc/9ad5d82f822b3cb67637f11be2e65c5662b66ec0/library/core/src/fmt/mod.rs:2175
80201030: b6 85        	mv	a1, a3
80201032: 17 03 00 00  	auipc	t1, 0
80201036: 67 00 83 c1  	jr	-1000(t1)
make[1]: 离开目录“/home/weihuan/WorkSpace/MyOS/os”
make[1]: 进入目录“/home/weihuan/WorkSpace/MyOS/os”

target/riscv64gc-unknown-none-elf/release/os:	file format elf64-littleriscv

Disassembly of section .text:

0000000080200000 <stext>:
; stext():
80200000: 2a 82        	mv	tp, a0
80200002: 93 02 15 00  	addi	t0, a0, 1
80200006: c2 02        	slli	t0, t0, 16

0000000080200008 <.Lpcrel_hi0>:
; .Lpcrel_hi0():
80200008: 17 21 00 00  	auipc	sp, 2
8020000c: 13 01 81 ff  	addi	sp, sp, -8
80200010: 16 91        	add	sp, sp, t0
80200012: 97 00 00 00  	auipc	ra, 0
80200016: e7 80 c0 1a  	jalr	428(ra)

000000008020001a <rust_begin_unwind>:
; rust_begin_unwind():
8020001a: 71 71        	addi	sp, sp, -176
8020001c: 06 f5        	sd	ra, 168(sp)
8020001e: 22 f1        	sd	s0, 160(sp)
80200020: 26 ed        	sd	s1, 152(sp)
80200022: 4a e9        	sd	s2, 144(sp)
80200024: 00 19        	addi	s0, sp, 176
80200026: 2a 89        	mv	s2, a0
80200028: 97 00 00 00  	auipc	ra, 0
8020002c: e7 80 00 6b  	jalr	1712(ra)
80200030: 15 e5        	bnez	a0, 0x8020005c <.LBB0_10+0x16>
80200032: 4a 85        	mv	a0, s2
80200034: 97 00 00 00  	auipc	ra, 0
80200038: e7 80 00 6a  	jalr	1696(ra)
8020003c: 2d e5        	bnez	a0, 0x802000a6 <.LBB0_12+0x16>

000000008020003e <.LBB0_9>:
; .LBB0_9():
8020003e: 17 15 00 00  	auipc	a0, 1
80200042: 13 05 a5 08  	addi	a0, a0, 138

0000000080200046 <.LBB0_10>:
; .LBB0_10():
80200046: 17 16 00 00  	auipc	a2, 1
8020004a: 13 06 26 00  	addi	a2, a2, 2
8020004e: 93 05 b0 02  	addi	a1, zero, 43
80200052: 97 00 00 00  	auipc	ra, 0
80200056: e7 80 a0 68  	jalr	1674(ra)
8020005a: 00 00        	unimp	
8020005c: aa 84        	mv	s1, a0
8020005e: 97 00 00 00  	auipc	ra, 0
80200062: e7 80 a0 66  	jalr	1642(ra)
80200066: 23 34 a4 f8  	sd	a0, -120(s0)
8020006a: 23 38 b4 f8  	sd	a1, -112(s0)
8020006e: 26 85        	mv	a0, s1
80200070: 97 00 00 00  	auipc	ra, 0
80200074: e7 80 00 66  	jalr	1632(ra)
80200078: 23 2e a4 f8  	sw	a0, -100(s0)
8020007c: 4a 85        	mv	a0, s2
8020007e: 97 00 00 00  	auipc	ra, 0
80200082: e7 80 60 65  	jalr	1622(ra)
80200086: 41 e5        	bnez	a0, 0x8020010e <.LBB0_15+0x24>

0000000080200088 <.LBB0_11>:
; .LBB0_11():
80200088: 17 15 00 00  	auipc	a0, 1
8020008c: 13 05 05 04  	addi	a0, a0, 64

0000000080200090 <.LBB0_12>:
; .LBB0_12():
80200090: 17 16 00 00  	auipc	a2, 1
80200094: 13 06 06 02  	addi	a2, a2, 32
80200098: 93 05 b0 02  	addi	a1, zero, 43
8020009c: 97 00 00 00  	auipc	ra, 0
802000a0: e7 80 00 64  	jalr	1600(ra)
802000a4: 00 00        	unimp	
802000a6: 23 34 a4 fa  	sd	a0, -88(s0)
802000aa: 13 05 84 fa  	addi	a0, s0, -88
802000ae: 23 3c a4 f4  	sd	a0, -168(s0)

00000000802000b2 <.LBB0_13>:
; .LBB0_13():
802000b2: 17 05 00 00  	auipc	a0, 0
802000b6: 13 05 c5 5d  	addi	a0, a0, 1500
802000ba: 23 30 a4 f6  	sd	a0, -160(s0)
802000be: 13 05 04 fb  	addi	a0, s0, -80
802000c2: 23 34 a4 f8  	sd	a0, -120(s0)

00000000802000c6 <.LBB0_14>:
; .LBB0_14():
802000c6: 17 15 00 00  	auipc	a0, 1
802000ca: 13 05 a5 f4  	addi	a0, a0, -182
802000ce: 23 38 a4 fa  	sd	a0, -80(s0)
802000d2: 09 45        	addi	a0, zero, 2
802000d4: 23 3c a4 fa  	sd	a0, -72(s0)
802000d8: 23 30 04 fc  	sd	zero, -64(s0)
802000dc: 13 05 84 f5  	addi	a0, s0, -168
802000e0: 23 38 a4 fc  	sd	a0, -48(s0)
802000e4: 05 45        	addi	a0, zero, 1
802000e6: 23 3c a4 fc  	sd	a0, -40(s0)

00000000802000ea <.LBB0_15>:
; .LBB0_15():
802000ea: 97 15 00 00  	auipc	a1, 1
802000ee: 93 85 65 0a  	addi	a1, a1, 166
802000f2: 13 05 84 f8  	addi	a0, s0, -120
802000f6: 13 06 04 fb  	addi	a2, s0, -80
802000fa: 97 00 00 00  	auipc	ra, 0
802000fe: e7 80 40 6b  	jalr	1716(ra)
80200102: 49 e9        	bnez	a0, 0x80200194 <.LBB0_21>
80200104: 97 00 00 00  	auipc	ra, 0
80200108: e7 80 c0 4e  	jalr	1260(ra)
8020010c: 00 00        	unimp	
8020010e: 23 30 a4 fa  	sd	a0, -96(s0)
80200112: 13 05 84 f8  	addi	a0, s0, -120
80200116: 23 3c a4 f4  	sd	a0, -168(s0)

000000008020011a <.LBB0_16>:
; .LBB0_16():
8020011a: 17 05 00 00  	auipc	a0, 0
8020011e: 13 05 25 55  	addi	a0, a0, 1362
80200122: 23 30 a4 f6  	sd	a0, -160(s0)
80200126: 13 05 c4 f9  	addi	a0, s0, -100
8020012a: 23 34 a4 f6  	sd	a0, -152(s0)

000000008020012e <.LBB0_17>:
; .LBB0_17():
8020012e: 17 15 00 00  	auipc	a0, 1
80200132: 13 05 85 e7  	addi	a0, a0, -392
80200136: 23 38 a4 f6  	sd	a0, -144(s0)
8020013a: 13 05 04 fa  	addi	a0, s0, -96
8020013e: 23 3c a4 f6  	sd	a0, -136(s0)

0000000080200142 <.LBB0_18>:
; .LBB0_18():
80200142: 17 05 00 00  	auipc	a0, 0
80200146: 13 05 c5 54  	addi	a0, a0, 1356
8020014a: 23 30 a4 f8  	sd	a0, -128(s0)
8020014e: 13 05 04 fb  	addi	a0, s0, -80
80200152: 23 34 a4 fa  	sd	a0, -88(s0)

0000000080200156 <.LBB0_19>:
; .LBB0_19():
80200156: 17 15 00 00  	auipc	a0, 1
8020015a: 13 05 a5 f1  	addi	a0, a0, -230
8020015e: 23 38 a4 fa  	sd	a0, -80(s0)
80200162: 11 45        	addi	a0, zero, 4
80200164: 23 3c a4 fa  	sd	a0, -72(s0)
80200168: 23 30 04 fc  	sd	zero, -64(s0)
8020016c: 13 05 84 f5  	addi	a0, s0, -168
80200170: 23 38 a4 fc  	sd	a0, -48(s0)
80200174: 0d 45        	addi	a0, zero, 3
80200176: 23 3c a4 fc  	sd	a0, -40(s0)

000000008020017a <.LBB0_20>:
; .LBB0_20():
8020017a: 97 15 00 00  	auipc	a1, 1
8020017e: 93 85 65 01  	addi	a1, a1, 22
80200182: 13 05 84 fa  	addi	a0, s0, -88
80200186: 13 06 04 fb  	addi	a2, s0, -80
8020018a: 97 00 00 00  	auipc	ra, 0
8020018e: e7 80 40 62  	jalr	1572(ra)
80200192: 2d d9        	beqz	a0, 0x80200104 <.LBB0_15+0x1a>

0000000080200194 <.LBB0_21>:
; .LBB0_21():
80200194: 17 15 00 00  	auipc	a0, 1
80200198: 13 05 c5 fa  	addi	a0, a0, -84

000000008020019c <.LBB0_22>:
; .LBB0_22():
8020019c: 97 16 00 00  	auipc	a3, 1
802001a0: 93 86 46 fd  	addi	a3, a3, -44

00000000802001a4 <.LBB0_23>:
; .LBB0_23():
802001a4: 17 17 00 00  	auipc	a4, 1
802001a8: 13 07 47 f8  	addi	a4, a4, -124
802001ac: 93 05 b0 02  	addi	a1, zero, 43
802001b0: 13 06 04 fb  	addi	a2, s0, -80
802001b4: 97 00 00 00  	auipc	ra, 0
802001b8: e7 80 c0 57  	jalr	1404(ra)
802001bc: 00 00        	unimp	

00000000802001be <os_main>:
; os_main():
802001be: 59 71        	addi	sp, sp, -112
802001c0: 86 f4        	sd	ra, 104(sp)
802001c2: a2 f0        	sd	s0, 96(sp)
802001c4: a6 ec        	sd	s1, 88(sp)
802001c6: ca e8        	sd	s2, 80(sp)
802001c8: 80 18        	addi	s0, sp, 112
802001ca: 23 38 a4 f8  	sd	a0, -112(s0)
802001ce: 13 05 04 f9  	addi	a0, s0, -112
802001d2: 23 3c a4 f8  	sd	a0, -104(s0)

00000000802001d6 <.LBB0_9>:
; .LBB0_9():
802001d6: 17 19 00 00  	auipc	s2, 1
802001da: 13 09 09 de  	addi	s2, s2, -544
802001de: 23 30 24 fb  	sd	s2, -96(s0)
802001e2: 13 05 04 fb  	addi	a0, s0, -80
802001e6: 23 34 a4 fa  	sd	a0, -88(s0)

00000000802001ea <.LBB0_10>:
; .LBB0_10():
802001ea: 97 14 00 00  	auipc	s1, 1
802001ee: 93 84 e4 f0  	addi	s1, s1, -242
802001f2: 23 38 94 fa  	sd	s1, -80(s0)
802001f6: 09 45        	addi	a0, zero, 2
802001f8: 23 3c a4 fa  	sd	a0, -72(s0)
802001fc: 23 30 04 fc  	sd	zero, -64(s0)
80200200: 13 05 84 f9  	addi	a0, s0, -104
80200204: 23 38 a4 fc  	sd	a0, -48(s0)
80200208: 05 45        	addi	a0, zero, 1
8020020a: 23 3c a4 fc  	sd	a0, -40(s0)

000000008020020e <.LBB0_11>:
; .LBB0_11():
8020020e: 97 15 00 00  	auipc	a1, 1
80200212: 93 85 25 f8  	addi	a1, a1, -126
80200216: 13 05 84 fa  	addi	a0, s0, -88
8020021a: 13 06 04 fb  	addi	a2, s0, -80
8020021e: 97 00 00 00  	auipc	ra, 0
80200222: e7 80 00 59  	jalr	1424(ra)
80200226: 55 e9        	bnez	a0, 0x802002da <.LBB0_15>
80200228: 03 35 04 f9  	ld	a0, -112(s0)
8020022c: 39 c5        	beqz	a0, 0x8020027a <.LBB0_13>
8020022e: 13 05 04 f9  	addi	a0, s0, -112
80200232: 23 3c a4 f8  	sd	a0, -104(s0)
80200236: 23 30 24 fb  	sd	s2, -96(s0)
8020023a: 13 05 04 fb  	addi	a0, s0, -80
8020023e: 23 34 a4 fa  	sd	a0, -88(s0)
80200242: 23 38 94 fa  	sd	s1, -80(s0)
80200246: 09 45        	addi	a0, zero, 2
80200248: 23 3c a4 fa  	sd	a0, -72(s0)
8020024c: 23 30 04 fc  	sd	zero, -64(s0)
80200250: 13 05 84 f9  	addi	a0, s0, -104
80200254: 23 38 a4 fc  	sd	a0, -48(s0)
80200258: 05 45        	addi	a0, zero, 1
8020025a: 23 3c a4 fc  	sd	a0, -40(s0)

000000008020025e <.LBB0_12>:
; .LBB0_12():
8020025e: 97 15 00 00  	auipc	a1, 1
80200262: 93 85 25 f3  	addi	a1, a1, -206
80200266: 13 05 84 fa  	addi	a0, s0, -88
8020026a: 13 06 04 fb  	addi	a2, s0, -80
8020026e: 97 00 00 00  	auipc	ra, 0
80200272: e7 80 00 54  	jalr	1344(ra)
80200276: 35 e1        	bnez	a0, 0x802002da <.LBB0_15>
80200278: 01 a0        	j	0x80200278 <.LBB0_12+0x1a>

000000008020027a <.LBB0_13>:
; .LBB0_13():
8020027a: 17 25 04 00  	auipc	a0, 66
8020027e: 13 05 65 d8  	addi	a0, a0, -634

0000000080200282 <.LBB0_14>:
; .LBB0_14():
80200282: 97 25 04 00  	auipc	a1, 66
80200286: 93 85 e5 d7  	addi	a1, a1, -642
8020028a: 63 f9 a5 00  	bgeu	a1, a0, 0x8020029c <.LBB0_14+0x1a>
8020028e: 13 86 15 00  	addi	a2, a1, 1
80200292: 23 80 05 00  	sb	zero, 0(a1)
80200296: b2 85        	mv	a1, a2
80200298: e3 6b a6 fe  	bltu	a2, a0, 0x8020028e <.LBB0_14+0xc>
8020029c: 09 45        	addi	a0, zero, 2
8020029e: 23 38 a4 fa  	sd	a0, -80(s0)
802002a2: 91 46        	addi	a3, zero, 4
802002a4: 91 48        	addi	a7, zero, 4
802002a6: 13 05 04 fb  	addi	a0, s0, -80
802002aa: 81 45        	mv	a1, zero
802002ac: 01 46        	mv	a2, zero
802002ae: 73 00 00 00  	ecall	
802002b2: 23 38 d4 fa  	sd	a3, -80(s0)
802002b6: 91 48        	addi	a7, zero, 4
802002b8: 13 05 04 fb  	addi	a0, s0, -80
802002bc: 81 45        	mv	a1, zero
802002be: 01 46        	mv	a2, zero
802002c0: 73 00 00 00  	ecall	
802002c4: 21 45        	addi	a0, zero, 8
802002c6: 23 38 a4 fa  	sd	a0, -80(s0)
802002ca: 91 48        	addi	a7, zero, 4
802002cc: 13 05 04 fb  	addi	a0, s0, -80
802002d0: 81 45        	mv	a1, zero
802002d2: 01 46        	mv	a2, zero
802002d4: 73 00 00 00  	ecall	
802002d8: 01 a0        	j	0x802002d8 <.LBB0_14+0x56>

00000000802002da <.LBB0_15>:
; .LBB0_15():
802002da: 17 15 00 00  	auipc	a0, 1
802002de: 13 05 65 e6  	addi	a0, a0, -410

00000000802002e2 <.LBB0_16>:
; .LBB0_16():
802002e2: 97 16 00 00  	auipc	a3, 1
802002e6: 93 86 e6 e8  	addi	a3, a3, -370

00000000802002ea <.LBB0_17>:
; .LBB0_17():
802002ea: 17 17 00 00  	auipc	a4, 1
802002ee: 13 07 e7 e3  	addi	a4, a4, -450
802002f2: 93 05 b0 02  	addi	a1, zero, 43
802002f6: 13 06 04 fb  	addi	a2, s0, -80
802002fa: 97 00 00 00  	auipc	ra, 0
802002fe: e7 80 60 43  	jalr	1078(ra)
80200302: 00 00        	unimp	

0000000080200304 <_ZN4core3ptr52drop_in_place$LT$$RF$mut$u20$os..console..Stdout$GT$17h2d77eb5b1bfe1265E.llvm.14457316870692140403>:
; _ZN4core3ptr52drop_in_place$LT$$RF$mut$u20$os..console..Stdout$GT$17h2d77eb5b1bfe1265E.llvm.14457316870692140403():
80200304: 41 11        	addi	sp, sp, -16
80200306: 06 e4        	sd	ra, 8(sp)
80200308: 22 e0        	sd	s0, 0(sp)
8020030a: 00 08        	addi	s0, sp, 16
8020030c: 02 64        	ld	s0, 0(sp)
8020030e: a2 60        	ld	ra, 8(sp)
80200310: 41 01        	addi	sp, sp, 16
80200312: 82 80        	ret

0000000080200314 <_ZN2os7console5print17hd0e60baa20815953E>:
; _ZN2os7console5print17hd0e60baa20815953E():
80200314: 5d 71        	addi	sp, sp, -80
80200316: 86 e4        	sd	ra, 72(sp)
80200318: a2 e0        	sd	s0, 64(sp)
8020031a: 80 08        	addi	s0, sp, 80
8020031c: 0c 75        	ld	a1, 40(a0)
8020031e: 10 71        	ld	a2, 32(a0)
80200320: 93 06 04 fc  	addi	a3, s0, -64
80200324: 23 3c d4 fa  	sd	a3, -72(s0)
80200328: 23 34 b4 fe  	sd	a1, -24(s0)
8020032c: 23 30 c4 fe  	sd	a2, -32(s0)
80200330: 0c 6d        	ld	a1, 24(a0)
80200332: 10 69        	ld	a2, 16(a0)
80200334: 14 65        	ld	a3, 8(a0)
80200336: 08 61        	ld	a0, 0(a0)
80200338: 23 3c b4 fc  	sd	a1, -40(s0)
8020033c: 23 38 c4 fc  	sd	a2, -48(s0)
80200340: 23 34 d4 fc  	sd	a3, -56(s0)
80200344: 23 30 a4 fc  	sd	a0, -64(s0)

0000000080200348 <.LBB1_3>:
; .LBB1_3():
80200348: 97 15 00 00  	auipc	a1, 1
8020034c: 93 85 85 e4  	addi	a1, a1, -440
80200350: 13 05 84 fb  	addi	a0, s0, -72
80200354: 13 06 04 fc  	addi	a2, s0, -64
80200358: 97 00 00 00  	auipc	ra, 0
8020035c: e7 80 60 45  	jalr	1110(ra)
80200360: 09 e5        	bnez	a0, 0x8020036a <.LBB1_4>
80200362: 06 64        	ld	s0, 64(sp)
80200364: a6 60        	ld	ra, 72(sp)
80200366: 61 61        	addi	sp, sp, 80
80200368: 82 80        	ret

000000008020036a <.LBB1_4>:
; .LBB1_4():
8020036a: 17 15 00 00  	auipc	a0, 1
8020036e: 13 05 65 dd  	addi	a0, a0, -554

0000000080200372 <.LBB1_5>:
; .LBB1_5():
80200372: 97 16 00 00  	auipc	a3, 1
80200376: 93 86 e6 df  	addi	a3, a3, -514

000000008020037a <.LBB1_6>:
; .LBB1_6():
8020037a: 17 17 00 00  	auipc	a4, 1
8020037e: 13 07 e7 da  	addi	a4, a4, -594
80200382: 93 05 b0 02  	addi	a1, zero, 43
80200386: 13 06 04 fc  	addi	a2, s0, -64
8020038a: 97 00 00 00  	auipc	ra, 0
8020038e: e7 80 60 3a  	jalr	934(ra)
80200392: 00 00        	unimp	

0000000080200394 <_ZN50_$LT$$RF$mut$u20$W$u20$as$u20$core..fmt..Write$GT$9write_str17h52bdb691d3e959f6E.llvm.14457316870692140403>:
; _ZN50_$LT$$RF$mut$u20$W$u20$as$u20$core..fmt..Write$GT$9write_str17h52bdb691d3e959f6E.llvm.14457316870692140403():
80200394: 41 11        	addi	sp, sp, -16
80200396: 06 e4        	sd	ra, 8(sp)
80200398: 22 e0        	sd	s0, 0(sp)
8020039a: 00 08        	addi	s0, sp, 16
8020039c: 41 c2        	beqz	a2, 0x8020041c <_ZN50_$LT$$RF$mut$u20$W$u20$as$u20$core..fmt..Write$GT$9write_str17h52bdb691d3e959f6E.llvm.14457316870692140403+0x88>
8020039e: ae 86        	mv	a3, a1
802003a0: 33 87 c5 00  	add	a4, a1, a2
802003a4: 13 03 f0 0d  	addi	t1, zero, 223
802003a8: 13 08 00 0f  	addi	a6, zero, 240
802003ac: b7 02 11 00  	lui	t0, 272
802003b0: 85 48        	addi	a7, zero, 1
802003b2: 01 a8        	j	0x802003c2 <_ZN50_$LT$$RF$mut$u20$W$u20$as$u20$core..fmt..Write$GT$9write_str17h52bdb691d3e959f6E.llvm.14457316870692140403+0x2e>
802003b4: 85 06        	addi	a3, a3, 1
802003b6: 81 45        	mv	a1, zero
802003b8: 01 46        	mv	a2, zero
802003ba: 73 00 00 00  	ecall	
802003be: 63 8f e6 04  	beq	a3, a4, 0x8020041c <_ZN50_$LT$$RF$mut$u20$W$u20$as$u20$core..fmt..Write$GT$9write_str17h52bdb691d3e959f6E.llvm.14457316870692140403+0x88>
802003c2: 83 85 06 00  	lb	a1, 0(a3)
802003c6: 13 f5 f5 0f  	andi	a0, a1, 255
802003ca: e3 d5 05 fe  	bgez	a1, 0x802003b4 <_ZN50_$LT$$RF$mut$u20$W$u20$as$u20$core..fmt..Write$GT$9write_str17h52bdb691d3e959f6E.llvm.14457316870692140403+0x20>
802003ce: 03 c6 16 00  	lbu	a2, 1(a3)
802003d2: 93 75 f5 01  	andi	a1, a0, 31
802003d6: 13 76 f6 03  	andi	a2, a2, 63
802003da: 63 77 a3 02  	bgeu	t1, a0, 0x80200408 <_ZN50_$LT$$RF$mut$u20$W$u20$as$u20$core..fmt..Write$GT$9write_str17h52bdb691d3e959f6E.llvm.14457316870692140403+0x74>
802003de: 83 c7 26 00  	lbu	a5, 2(a3)
802003e2: 1a 06        	slli	a2, a2, 6
802003e4: 93 f7 f7 03  	andi	a5, a5, 63
802003e8: 5d 8e        	or	a2, a2, a5
802003ea: 63 64 05 03  	bltu	a0, a6, 0x80200412 <_ZN50_$LT$$RF$mut$u20$W$u20$as$u20$core..fmt..Write$GT$9write_str17h52bdb691d3e959f6E.llvm.14457316870692140403+0x7e>
802003ee: 03 c5 36 00  	lbu	a0, 3(a3)
802003f2: f6 15        	slli	a1, a1, 61
802003f4: ad 91        	srli	a1, a1, 43
802003f6: 1a 06        	slli	a2, a2, 6
802003f8: 13 75 f5 03  	andi	a0, a0, 63
802003fc: 51 8d        	or	a0, a0, a2
802003fe: 4d 8d        	or	a0, a0, a1
80200400: 63 0e 55 00  	beq	a0, t0, 0x8020041c <_ZN50_$LT$$RF$mut$u20$W$u20$as$u20$core..fmt..Write$GT$9write_str17h52bdb691d3e959f6E.llvm.14457316870692140403+0x88>
80200404: 91 06        	addi	a3, a3, 4
80200406: 45 bf        	j	0x802003b6 <_ZN50_$LT$$RF$mut$u20$W$u20$as$u20$core..fmt..Write$GT$9write_str17h52bdb691d3e959f6E.llvm.14457316870692140403+0x22>
80200408: 89 06        	addi	a3, a3, 2
8020040a: 13 95 65 00  	slli	a0, a1, 6
8020040e: 51 8d        	or	a0, a0, a2
80200410: 5d b7        	j	0x802003b6 <_ZN50_$LT$$RF$mut$u20$W$u20$as$u20$core..fmt..Write$GT$9write_str17h52bdb691d3e959f6E.llvm.14457316870692140403+0x22>
80200412: 8d 06        	addi	a3, a3, 3
80200414: 13 95 c5 00  	slli	a0, a1, 12
80200418: 51 8d        	or	a0, a0, a2
8020041a: 71 bf        	j	0x802003b6 <_ZN50_$LT$$RF$mut$u20$W$u20$as$u20$core..fmt..Write$GT$9write_str17h52bdb691d3e959f6E.llvm.14457316870692140403+0x22>
8020041c: 01 45        	mv	a0, zero
8020041e: 02 64        	ld	s0, 0(sp)
80200420: a2 60        	ld	ra, 8(sp)
80200422: 41 01        	addi	sp, sp, 16
80200424: 82 80        	ret

0000000080200426 <_ZN50_$LT$$RF$mut$u20$W$u20$as$u20$core..fmt..Write$GT$10write_char17h96830225ffd664bbE.llvm.14457316870692140403>:
; _ZN50_$LT$$RF$mut$u20$W$u20$as$u20$core..fmt..Write$GT$10write_char17h96830225ffd664bbE.llvm.14457316870692140403():
80200426: 01 11        	addi	sp, sp, -32
80200428: 06 ec        	sd	ra, 24(sp)
8020042a: 22 e8        	sd	s0, 16(sp)
8020042c: 00 10        	addi	s0, sp, 32
8020042e: 1b 85 05 00  	sext.w	a0, a1
80200432: 13 06 00 08  	addi	a2, zero, 128
80200436: 23 26 04 fe  	sw	zero, -20(s0)
8020043a: 63 76 c5 00  	bgeu	a0, a2, 0x80200446 <_ZN50_$LT$$RF$mut$u20$W$u20$as$u20$core..fmt..Write$GT$10write_char17h96830225ffd664bbE.llvm.14457316870692140403+0x20>
8020043e: 23 06 b4 fe  	sb	a1, -20(s0)
80200442: 05 45        	addi	a0, zero, 1
80200444: 59 a8        	j	0x802004da <_ZN50_$LT$$RF$mut$u20$W$u20$as$u20$core..fmt..Write$GT$10write_char17h96830225ffd664bbE.llvm.14457316870692140403+0xb4>
80200446: 1b d5 b5 00  	srliw	a0, a1, 11
8020044a: 05 e1        	bnez	a0, 0x8020046a <_ZN50_$LT$$RF$mut$u20$W$u20$as$u20$core..fmt..Write$GT$10write_char17h96830225ffd664bbE.llvm.14457316870692140403+0x44>
8020044c: 13 d5 65 00  	srli	a0, a1, 6
80200450: 93 f5 f5 03  	andi	a1, a1, 63
80200454: 13 66 05 fc  	ori	a2, a0, -64
80200458: 23 06 c4 fe  	sb	a2, -20(s0)
8020045c: 13 e5 05 08  	ori	a0, a1, 128
80200460: a3 06 a4 fe  	sb	a0, -19(s0)
80200464: 09 45        	addi	a0, zero, 2
80200466: b2 85        	mv	a1, a2
80200468: 8d a8        	j	0x802004da <_ZN50_$LT$$RF$mut$u20$W$u20$as$u20$core..fmt..Write$GT$10write_char17h96830225ffd664bbE.llvm.14457316870692140403+0xb4>
8020046a: 1b d5 05 01  	srliw	a0, a1, 16
8020046e: 05 e9        	bnez	a0, 0x8020049e <_ZN50_$LT$$RF$mut$u20$W$u20$as$u20$core..fmt..Write$GT$10write_char17h96830225ffd664bbE.llvm.14457316870692140403+0x78>
80200470: 1b d5 c5 00  	srliw	a0, a1, 12
80200474: 1b d6 65 00  	srliw	a2, a1, 6
80200478: 93 f5 f5 03  	andi	a1, a1, 63
8020047c: 93 66 05 fe  	ori	a3, a0, -32
80200480: 23 06 d4 fe  	sb	a3, -20(s0)
80200484: 13 75 f6 03  	andi	a0, a2, 63
80200488: 13 65 05 08  	ori	a0, a0, 128
8020048c: a3 06 a4 fe  	sb	a0, -19(s0)
80200490: 13 e5 05 08  	ori	a0, a1, 128
80200494: 23 07 a4 fe  	sb	a0, -18(s0)
80200498: 0d 45        	addi	a0, zero, 3
8020049a: b6 85        	mv	a1, a3
8020049c: 3d a8        	j	0x802004da <_ZN50_$LT$$RF$mut$u20$W$u20$as$u20$core..fmt..Write$GT$10write_char17h96830225ffd664bbE.llvm.14457316870692140403+0xb4>
8020049e: 1b d5 25 01  	srliw	a0, a1, 18
802004a2: 1b d6 c5 00  	srliw	a2, a1, 12
802004a6: 9b d6 65 00  	srliw	a3, a1, 6
802004aa: 93 f5 f5 03  	andi	a1, a1, 63
802004ae: 13 67 05 ff  	ori	a4, a0, -16
802004b2: 23 06 e4 fe  	sb	a4, -20(s0)
802004b6: 13 75 f6 03  	andi	a0, a2, 63
802004ba: 13 65 05 08  	ori	a0, a0, 128
802004be: a3 06 a4 fe  	sb	a0, -19(s0)
802004c2: 13 f5 f6 03  	andi	a0, a3, 63
802004c6: 13 65 05 08  	ori	a0, a0, 128
802004ca: 23 07 a4 fe  	sb	a0, -18(s0)
802004ce: 13 e5 05 08  	ori	a0, a1, 128
802004d2: a3 07 a4 fe  	sb	a0, -17(s0)
802004d6: 11 45        	addi	a0, zero, 4
802004d8: ba 85        	mv	a1, a4
802004da: 93 06 c4 fe  	addi	a3, s0, -20
802004de: 33 87 a6 00  	add	a4, a3, a0
802004e2: 13 03 f0 0d  	addi	t1, zero, 223
802004e6: 13 08 00 0f  	addi	a6, zero, 240
802004ea: b7 02 11 00  	lui	t0, 272
802004ee: 85 48        	addi	a7, zero, 1
802004f0: 13 95 85 03  	slli	a0, a1, 56
802004f4: 13 56 85 43  	srai	a2, a0, 56
802004f8: 13 f5 f5 0f  	andi	a0, a1, 255
802004fc: 63 4a 06 00  	bltz	a2, 0x80200510 <_ZN50_$LT$$RF$mut$u20$W$u20$as$u20$core..fmt..Write$GT$10write_char17h96830225ffd664bbE.llvm.14457316870692140403+0xea>
80200500: 85 06        	addi	a3, a3, 1
80200502: 81 45        	mv	a1, zero
80200504: 01 46        	mv	a2, zero
80200506: 73 00 00 00  	ecall	
8020050a: 63 9a e6 06  	bne	a3, a4, 0x8020057e <_ZN50_$LT$$RF$mut$u20$W$u20$as$u20$core..fmt..Write$GT$10write_char17h96830225ffd664bbE.llvm.14457316870692140403+0x158>
8020050e: 59 a0        	j	0x80200594 <_ZN50_$LT$$RF$mut$u20$W$u20$as$u20$core..fmt..Write$GT$10write_char17h96830225ffd664bbE.llvm.14457316870692140403+0x16e>
80200510: 03 c6 16 00  	lbu	a2, 1(a3)
80200514: fd 89        	andi	a1, a1, 31
80200516: 13 76 f6 03  	andi	a2, a2, 63
8020051a: 63 7d a3 02  	bgeu	t1, a0, 0x80200554 <_ZN50_$LT$$RF$mut$u20$W$u20$as$u20$core..fmt..Write$GT$10write_char17h96830225ffd664bbE.llvm.14457316870692140403+0x12e>
8020051e: 83 c7 26 00  	lbu	a5, 2(a3)
80200522: 1a 06        	slli	a2, a2, 6
80200524: 93 f7 f7 03  	andi	a5, a5, 63
80200528: 5d 8e        	or	a2, a2, a5
8020052a: 63 60 05 05  	bltu	a0, a6, 0x8020056a <_ZN50_$LT$$RF$mut$u20$W$u20$as$u20$core..fmt..Write$GT$10write_char17h96830225ffd664bbE.llvm.14457316870692140403+0x144>
8020052e: 03 c5 36 00  	lbu	a0, 3(a3)
80200532: f6 15        	slli	a1, a1, 61
80200534: ad 91        	srli	a1, a1, 43
80200536: 1a 06        	slli	a2, a2, 6
80200538: 13 75 f5 03  	andi	a0, a0, 63
8020053c: 51 8d        	or	a0, a0, a2
8020053e: 4d 8d        	or	a0, a0, a1
80200540: 63 0a 55 04  	beq	a0, t0, 0x80200594 <_ZN50_$LT$$RF$mut$u20$W$u20$as$u20$core..fmt..Write$GT$10write_char17h96830225ffd664bbE.llvm.14457316870692140403+0x16e>
80200544: 91 06        	addi	a3, a3, 4
80200546: 81 45        	mv	a1, zero
80200548: 01 46        	mv	a2, zero
8020054a: 73 00 00 00  	ecall	
8020054e: 63 98 e6 02  	bne	a3, a4, 0x8020057e <_ZN50_$LT$$RF$mut$u20$W$u20$as$u20$core..fmt..Write$GT$10write_char17h96830225ffd664bbE.llvm.14457316870692140403+0x158>
80200552: 89 a0        	j	0x80200594 <_ZN50_$LT$$RF$mut$u20$W$u20$as$u20$core..fmt..Write$GT$10write_char17h96830225ffd664bbE.llvm.14457316870692140403+0x16e>
80200554: 89 06        	addi	a3, a3, 2
80200556: 13 95 65 00  	slli	a0, a1, 6
8020055a: 51 8d        	or	a0, a0, a2
8020055c: 81 45        	mv	a1, zero
8020055e: 01 46        	mv	a2, zero
80200560: 73 00 00 00  	ecall	
80200564: 63 9d e6 00  	bne	a3, a4, 0x8020057e <_ZN50_$LT$$RF$mut$u20$W$u20$as$u20$core..fmt..Write$GT$10write_char17h96830225ffd664bbE.llvm.14457316870692140403+0x158>
80200568: 35 a0        	j	0x80200594 <_ZN50_$LT$$RF$mut$u20$W$u20$as$u20$core..fmt..Write$GT$10write_char17h96830225ffd664bbE.llvm.14457316870692140403+0x16e>
8020056a: 8d 06        	addi	a3, a3, 3
8020056c: 13 95 c5 00  	slli	a0, a1, 12
80200570: 51 8d        	or	a0, a0, a2
80200572: 81 45        	mv	a1, zero
80200574: 01 46        	mv	a2, zero
80200576: 73 00 00 00  	ecall	
8020057a: 63 8d e6 00  	beq	a3, a4, 0x80200594 <_ZN50_$LT$$RF$mut$u20$W$u20$as$u20$core..fmt..Write$GT$10write_char17h96830225ffd664bbE.llvm.14457316870692140403+0x16e>
8020057e: 83 c5 06 00  	lbu	a1, 0(a3)
80200582: 13 95 85 03  	slli	a0, a1, 56
80200586: 13 56 85 43  	srai	a2, a0, 56
8020058a: 13 f5 f5 0f  	andi	a0, a1, 255
8020058e: e3 59 06 f6  	bgez	a2, 0x80200500 <_ZN50_$LT$$RF$mut$u20$W$u20$as$u20$core..fmt..Write$GT$10write_char17h96830225ffd664bbE.llvm.14457316870692140403+0xda>
80200592: bd bf        	j	0x80200510 <_ZN50_$LT$$RF$mut$u20$W$u20$as$u20$core..fmt..Write$GT$10write_char17h96830225ffd664bbE.llvm.14457316870692140403+0xea>
80200594: 01 45        	mv	a0, zero
80200596: 42 64        	ld	s0, 16(sp)
80200598: e2 60        	ld	ra, 24(sp)
8020059a: 05 61        	addi	sp, sp, 32
8020059c: 82 80        	ret

000000008020059e <_ZN50_$LT$$RF$mut$u20$W$u20$as$u20$core..fmt..Write$GT$9write_fmt17h2dfa13f7aa695999E.llvm.14457316870692140403>:
; _ZN50_$LT$$RF$mut$u20$W$u20$as$u20$core..fmt..Write$GT$9write_fmt17h2dfa13f7aa695999E.llvm.14457316870692140403():
8020059e: 5d 71        	addi	sp, sp, -80
802005a0: 86 e4        	sd	ra, 72(sp)
802005a2: a2 e0        	sd	s0, 64(sp)
802005a4: 80 08        	addi	s0, sp, 80
802005a6: 08 61        	ld	a0, 0(a0)
802005a8: 90 75        	ld	a2, 40(a1)
802005aa: 94 71        	ld	a3, 32(a1)
802005ac: 23 3c a4 fa  	sd	a0, -72(s0)
802005b0: 23 34 c4 fe  	sd	a2, -24(s0)
802005b4: 23 30 d4 fe  	sd	a3, -32(s0)
802005b8: 88 6d        	ld	a0, 24(a1)
802005ba: 90 69        	ld	a2, 16(a1)
802005bc: 94 65        	ld	a3, 8(a1)
802005be: 8c 61        	ld	a1, 0(a1)
802005c0: 23 3c a4 fc  	sd	a0, -40(s0)
802005c4: 23 38 c4 fc  	sd	a2, -48(s0)
802005c8: 23 34 d4 fc  	sd	a3, -56(s0)
802005cc: 23 30 b4 fc  	sd	a1, -64(s0)

00000000802005d0 <.LBB4_1>:
; .LBB4_1():
802005d0: 97 15 00 00  	auipc	a1, 1
802005d4: 93 85 05 bc  	addi	a1, a1, -1088
802005d8: 13 05 84 fb  	addi	a0, s0, -72
802005dc: 13 06 04 fc  	addi	a2, s0, -64
802005e0: 97 00 00 00  	auipc	ra, 0
802005e4: e7 80 e0 1c  	jalr	462(ra)
802005e8: 06 64        	ld	s0, 64(sp)
802005ea: a6 60        	ld	ra, 72(sp)
802005ec: 61 61        	addi	sp, sp, 80
802005ee: 82 80        	ret

00000000802005f0 <_ZN2os3sbi8shutdown17h1849b95cc5782f2bE>:
; _ZN2os3sbi8shutdown17h1849b95cc5782f2bE():
802005f0: 5d 71        	addi	sp, sp, -80
802005f2: 86 e4        	sd	ra, 72(sp)
802005f4: a2 e0        	sd	s0, 64(sp)
802005f6: 26 fc        	sd	s1, 56(sp)
802005f8: 4a f8        	sd	s2, 48(sp)
802005fa: 80 08        	addi	s0, sp, 80

00000000802005fc <.LBB1_1>:
; .LBB1_1():
802005fc: 17 15 00 00  	auipc	a0, 1
80200600: 13 05 45 bd  	addi	a0, a0, -1068
80200604: 23 38 a4 fa  	sd	a0, -80(s0)
80200608: 05 49        	addi	s2, zero, 1
8020060a: 23 3c 24 fb  	sd	s2, -72(s0)
8020060e: 23 30 04 fc  	sd	zero, -64(s0)

0000000080200612 <.LBB1_2>:
; .LBB1_2():
80200612: 97 14 00 00  	auipc	s1, 1
80200616: 93 84 e4 bc  	addi	s1, s1, -1074
8020061a: 23 38 94 fc  	sd	s1, -48(s0)
8020061e: 23 3c 04 fc  	sd	zero, -40(s0)
80200622: 13 05 04 fb  	addi	a0, s0, -80
80200626: 97 00 00 00  	auipc	ra, 0
8020062a: e7 80 e0 ce  	jalr	-786(ra)
8020062e: a1 48        	addi	a7, zero, 8
80200630: 81 45        	mv	a1, zero
80200632: 01 46        	mv	a2, zero
80200634: 01 45        	mv	a0, zero
80200636: 73 00 00 00  	ecall	

000000008020063a <.LBB1_3>:
; .LBB1_3():
8020063a: 17 15 00 00  	auipc	a0, 1
8020063e: 13 05 e5 bb  	addi	a0, a0, -1090
80200642: 23 38 a4 fa  	sd	a0, -80(s0)
80200646: 23 3c 24 fb  	sd	s2, -72(s0)
8020064a: 23 30 04 fc  	sd	zero, -64(s0)
8020064e: 23 38 94 fc  	sd	s1, -48(s0)
80200652: 23 3c 04 fc  	sd	zero, -40(s0)

0000000080200656 <.LBB1_4>:
; .LBB1_4():
80200656: 97 15 00 00  	auipc	a1, 1
8020065a: 93 85 25 bc  	addi	a1, a1, -1086
8020065e: 13 05 04 fb  	addi	a0, s0, -80
80200662: 97 00 00 00  	auipc	ra, 0
80200666: e7 80 60 0a  	jalr	166(ra)
8020066a: 00 00        	unimp	

000000008020066c <_ZN44_$LT$$RF$T$u20$as$u20$core..fmt..Display$GT$3fmt17hbb2c55defc31368cE>:
; _ZN44_$LT$$RF$T$u20$as$u20$core..fmt..Display$GT$3fmt17hbb2c55defc31368cE():
8020066c: 41 11        	addi	sp, sp, -16
8020066e: 06 e4        	sd	ra, 8(sp)
80200670: 22 e0        	sd	s0, 0(sp)
80200672: 00 08        	addi	s0, sp, 16
80200674: 10 61        	ld	a2, 0(a0)
80200676: 14 65        	ld	a3, 8(a0)
80200678: 2e 87        	mv	a4, a1
8020067a: 32 85        	mv	a0, a2
8020067c: b6 85        	mv	a1, a3
8020067e: 3a 86        	mv	a2, a4
80200680: 02 64        	ld	s0, 0(sp)
80200682: a2 60        	ld	ra, 8(sp)
80200684: 41 01        	addi	sp, sp, 16
80200686: 17 03 00 00  	auipc	t1, 0
8020068a: 67 00 e3 79  	jr	1950(t1)

000000008020068e <_ZN44_$LT$$RF$T$u20$as$u20$core..fmt..Display$GT$3fmt17he4f0551a8944effeE>:
; _ZN44_$LT$$RF$T$u20$as$u20$core..fmt..Display$GT$3fmt17he4f0551a8944effeE():
8020068e: 41 11        	addi	sp, sp, -16
80200690: 06 e4        	sd	ra, 8(sp)
80200692: 22 e0        	sd	s0, 0(sp)
80200694: 00 08        	addi	s0, sp, 16
80200696: 08 61        	ld	a0, 0(a0)
80200698: 02 64        	ld	s0, 0(sp)
8020069a: a2 60        	ld	ra, 8(sp)
8020069c: 41 01        	addi	sp, sp, 16
8020069e: 17 03 00 00  	auipc	t1, 0
802006a2: 67 00 e3 0d  	jr	222(t1)

00000000802006a6 <_ZN4core3ops8function6FnOnce9call_once17ha977706b00eeb46bE>:
; _ZN4core3ops8function6FnOnce9call_once17ha977706b00eeb46bE():
; /rustc/9ad5d82f822b3cb67637f11be2e65c5662b66ec0/library/core/src/ptr/mod.rs:1056
802006a6: 08 61        	ld	a0, 0(a0)
; /rustc/9ad5d82f822b3cb67637f11be2e65c5662b66ec0/library/core/src/fmt/mod.rs:308
802006a8: 01 a0        	j	0x802006a8 <_ZN4core3ops8function6FnOnce9call_once17ha977706b00eeb46bE+0x2>

00000000802006aa <_ZN4core3ptr102drop_in_place$LT$$RF$core..iter..adapters..copied..Copied$LT$core..slice..iter..Iter$LT$u8$GT$$GT$$GT$17hd038234f0759b36cE>:
; _ZN4core3ptr102drop_in_place$LT$$RF$core..iter..adapters..copied..Copied$LT$core..slice..iter..Iter$LT$u8$GT$$GT$$GT$17hd038234f0759b36cE():
; /rustc/9ad5d82f822b3cb67637f11be2e65c5662b66ec0/library/core/src/ptr/mod.rs:188
802006aa: 82 80        	ret

00000000802006ac <_ZN36_$LT$T$u20$as$u20$core..any..Any$GT$7type_id17h1ae457c70e6ed10aE>:
; _ZN36_$LT$T$u20$as$u20$core..any..Any$GT$7type_id17h1ae457c70e6ed10aE():
; /rustc/9ad5d82f822b3cb67637f11be2e65c5662b66ec0/library/core/src/any.rs:133
802006ac: 37 55 b7 ff  	lui	a0, 1047413
802006b0: 1b 05 d5 73  	addiw	a0, a0, 1853
802006b4: 32 05        	slli	a0, a0, 12
802006b6: 13 05 b5 7f  	addi	a0, a0, 2043
802006ba: 42 05        	slli	a0, a0, 16
802006bc: 13 05 f5 35  	addi	a0, a0, 863
802006c0: 32 05        	slli	a0, a0, 12
802006c2: 13 05 d5 bc  	addi	a0, a0, -1075
; /rustc/9ad5d82f822b3cb67637f11be2e65c5662b66ec0/library/core/src/any.rs:135
802006c6: 82 80        	ret

00000000802006c8 <_ZN4core5panic8location8Location4file17ha32f2dfd499fe4c3E>:
; _ZN4core5panic8location8Location4file17ha32f2dfd499fe4c3E():
; /rustc/9ad5d82f822b3cb67637f11be2e65c5662b66ec0/library/core/src/panic/location.rs:126
802006c8: 10 61        	ld	a2, 0(a0)
802006ca: 0c 65        	ld	a1, 8(a0)
; /rustc/9ad5d82f822b3cb67637f11be2e65c5662b66ec0/library/core/src/panic/location.rs:127
802006cc: 32 85        	mv	a0, a2
802006ce: 82 80        	ret

00000000802006d0 <_ZN4core5panic8location8Location4line17h48afce8c0e4aaa20E>:
; _ZN4core5panic8location8Location4line17h48afce8c0e4aaa20E():
; /rustc/9ad5d82f822b3cb67637f11be2e65c5662b66ec0/library/core/src/panic/location.rs:150
802006d0: 08 49        	lw	a0, 16(a0)
802006d2: 82 80        	ret

00000000802006d4 <_ZN4core5panic10panic_info9PanicInfo7message17h091569c2c26ddd09E>:
; _ZN4core5panic10panic_info9PanicInfo7message17h091569c2c26ddd09E():
; /rustc/9ad5d82f822b3cb67637f11be2e65c5662b66ec0/library/core/src/panic/panic_info.rs:96
802006d4: 08 69        	ld	a0, 16(a0)
; /rustc/9ad5d82f822b3cb67637f11be2e65c5662b66ec0/library/core/src/panic/panic_info.rs:97
802006d6: 82 80        	ret

00000000802006d8 <_ZN4core5panic10panic_info9PanicInfo8location17hd283d51ebd03caf8E>:
; _ZN4core5panic10panic_info9PanicInfo8location17hd283d51ebd03caf8E():
; /rustc/9ad5d82f822b3cb67637f11be2e65c5662b66ec0/library/core/src/panic/panic_info.rs:128
802006d8: 08 6d        	ld	a0, 24(a0)
; /rustc/9ad5d82f822b3cb67637f11be2e65c5662b66ec0/library/core/src/panic/panic_info.rs:129
802006da: 82 80        	ret

00000000802006dc <_ZN4core9panicking5panic17h73df0f6209ce4d26E>:
; _ZN4core9panicking5panic17h73df0f6209ce4d26E():
; /rustc/9ad5d82f822b3cb67637f11be2e65c5662b66ec0/library/core/src/panicking.rs:41
802006dc: 5d 71        	addi	sp, sp, -80
; /rustc/9ad5d82f822b3cb67637f11be2e65c5662b66ec0/library/core/src/panicking.rs:48
802006de: 86 e4        	sd	ra, 72(sp)
802006e0: 2a fc        	sd	a0, 56(sp)
802006e2: ae e0        	sd	a1, 64(sp)
802006e4: 28 18        	addi	a0, sp, 56
; /rustc/9ad5d82f822b3cb67637f11be2e65c5662b66ec0/library/core/src/fmt/mod.rs:365
802006e6: 2a e4        	sd	a0, 8(sp)
802006e8: 05 45        	addi	a0, zero, 1
802006ea: 2a e8        	sd	a0, 16(sp)
802006ec: 02 ec        	sd	zero, 24(sp)

00000000802006ee <.LBB126_1>:
; .LBB126_1():
; /rustc/9ad5d82f822b3cb67637f11be2e65c5662b66ec0/library/core/src/fmt/mod.rs:365
802006ee: 17 15 00 00  	auipc	a0, 1
802006f2: 13 05 25 b4  	addi	a0, a0, -1214
802006f6: 2a f4        	sd	a0, 40(sp)
802006f8: 02 f8        	sd	zero, 48(sp)
; /rustc/9ad5d82f822b3cb67637f11be2e65c5662b66ec0/library/core/src/panicking.rs:48
802006fa: 28 00        	addi	a0, sp, 8
802006fc: b2 85        	mv	a1, a2
802006fe: 97 00 00 00  	auipc	ra, 0
80200702: e7 80 a0 00  	jalr	10(ra)
80200706: 00 00        	unimp	

0000000080200708 <_ZN4core9panicking9panic_fmt17hd481bea3168480afE>:
; _ZN4core9panicking9panic_fmt17hd481bea3168480afE():
; /rustc/9ad5d82f822b3cb67637f11be2e65c5662b66ec0/library/core/src/panicking.rs:95
80200708: 79 71        	addi	sp, sp, -48
; /rustc/9ad5d82f822b3cb67637f11be2e65c5662b66ec0/library/core/src/panic/panic_info.rs:49
8020070a: 06 f4        	sd	ra, 40(sp)

000000008020070c <.LBB130_1>:
; .LBB130_1():
; /rustc/9ad5d82f822b3cb67637f11be2e65c5662b66ec0/library/core/src/panic/panic_info.rs:49
8020070c: 17 16 00 00  	auipc	a2, 1
80200710: 13 06 46 b2  	addi	a2, a2, -1244
80200714: 32 e4        	sd	a2, 8(sp)

0000000080200716 <.LBB130_2>:
; .LBB130_2():
; /rustc/9ad5d82f822b3cb67637f11be2e65c5662b66ec0/library/core/src/panic/panic_info.rs:49
80200716: 17 16 00 00  	auipc	a2, 1
8020071a: 13 06 a6 b1  	addi	a2, a2, -1254
8020071e: 32 e8        	sd	a2, 16(sp)
80200720: 2a ec        	sd	a0, 24(sp)
80200722: 2e f0        	sd	a1, 32(sp)
; /rustc/9ad5d82f822b3cb67637f11be2e65c5662b66ec0/library/core/src/panicking.rs:110
80200724: 28 00        	addi	a0, sp, 8
80200726: 97 00 00 00  	auipc	ra, 0
8020072a: e7 80 40 8f  	jalr	-1804(ra)
8020072e: 00 00        	unimp	

0000000080200730 <_ZN4core6result13unwrap_failed17hb3094b1f1fffd207E>:
; _ZN4core6result13unwrap_failed17hb3094b1f1fffd207E():
; /rustc/9ad5d82f822b3cb67637f11be2e65c5662b66ec0/library/core/src/result.rs:1689
80200730: 19 71        	addi	sp, sp, -128
80200732: 86 fc        	sd	ra, 120(sp)
80200734: 2a e4        	sd	a0, 8(sp)
80200736: 2e e8        	sd	a1, 16(sp)
80200738: 32 ec        	sd	a2, 24(sp)
8020073a: 36 f0        	sd	a3, 32(sp)
8020073c: 28 00        	addi	a0, sp, 8
; /rustc/9ad5d82f822b3cb67637f11be2e65c5662b66ec0/library/core/src/result.rs:1690
8020073e: aa ec        	sd	a0, 88(sp)

0000000080200740 <.LBB135_1>:
; .LBB135_1():
; /rustc/9ad5d82f822b3cb67637f11be2e65c5662b66ec0/library/core/src/result.rs:1690
80200740: 17 15 00 00  	auipc	a0, 1
80200744: 13 05 e5 89  	addi	a0, a0, -1890
80200748: aa f0        	sd	a0, 96(sp)
8020074a: 28 08        	addi	a0, sp, 24
8020074c: aa f4        	sd	a0, 104(sp)

000000008020074e <.LBB135_2>:
; .LBB135_2():
; /rustc/9ad5d82f822b3cb67637f11be2e65c5662b66ec0/library/core/src/result.rs:1690
8020074e: 17 15 00 00  	auipc	a0, 1
80200752: 13 05 85 88  	addi	a0, a0, -1912
80200756: aa f8        	sd	a0, 112(sp)

0000000080200758 <.LBB135_3>:
; .LBB135_3():
; /rustc/9ad5d82f822b3cb67637f11be2e65c5662b66ec0/library/core/src/fmt/mod.rs:365
80200758: 17 15 00 00  	auipc	a0, 1
8020075c: 13 05 05 b0  	addi	a0, a0, -1280
80200760: 2a f4        	sd	a0, 40(sp)
80200762: 09 45        	addi	a0, zero, 2
80200764: 2a f8        	sd	a0, 48(sp)
80200766: 02 fc        	sd	zero, 56(sp)
80200768: ac 08        	addi	a1, sp, 88
8020076a: ae e4        	sd	a1, 72(sp)
8020076c: aa e8        	sd	a0, 80(sp)
; /rustc/9ad5d82f822b3cb67637f11be2e65c5662b66ec0/library/core/src/result.rs:1690
8020076e: 28 10        	addi	a0, sp, 40
80200770: ba 85        	mv	a1, a4
80200772: 97 00 00 00  	auipc	ra, 0
80200776: e7 80 60 f9  	jalr	-106(ra)
8020077a: 00 00        	unimp	

000000008020077c <_ZN59_$LT$core..fmt..Arguments$u20$as$u20$core..fmt..Display$GT$3fmt17ha06c88bc9255d02fE>:
; _ZN59_$LT$core..fmt..Arguments$u20$as$u20$core..fmt..Display$GT$3fmt17ha06c88bc9255d02fE():
; /rustc/9ad5d82f822b3cb67637f11be2e65c5662b66ec0/library/core/src/fmt/mod.rs:500
8020077c: 39 71        	addi	sp, sp, -64
; /rustc/9ad5d82f822b3cb67637f11be2e65c5662b66ec0/library/core/src/fmt/mod.rs:501
8020077e: 06 fc        	sd	ra, 56(sp)
80200780: 10 75        	ld	a2, 40(a0)
80200782: 18 71        	ld	a4, 32(a0)
80200784: 1c 6d        	ld	a5, 24(a0)
80200786: 32 f8        	sd	a2, 48(sp)
80200788: 94 71        	ld	a3, 32(a1)
8020078a: 3a f4        	sd	a4, 40(sp)
8020078c: 3e f0        	sd	a5, 32(sp)
8020078e: 10 69        	ld	a2, 16(a0)
80200790: 18 65        	ld	a4, 8(a0)
80200792: 08 61        	ld	a0, 0(a0)
80200794: 8c 75        	ld	a1, 40(a1)
80200796: 32 ec        	sd	a2, 24(sp)
80200798: 3a e8        	sd	a4, 16(sp)
8020079a: 2a e4        	sd	a0, 8(sp)
8020079c: 30 00        	addi	a2, sp, 8
8020079e: 36 85        	mv	a0, a3
802007a0: 97 00 00 00  	auipc	ra, 0
802007a4: e7 80 e0 00  	jalr	14(ra)
; /rustc/9ad5d82f822b3cb67637f11be2e65c5662b66ec0/library/core/src/fmt/mod.rs:502
802007a8: e2 70        	ld	ra, 56(sp)
802007aa: 21 61        	addi	sp, sp, 64
802007ac: 82 80        	ret

00000000802007ae <_ZN4core3fmt5write17h9a851c9a286525f3E>:
; _ZN4core3fmt5write17h9a851c9a286525f3E():
; /rustc/9ad5d82f822b3cb67637f11be2e65c5662b66ec0/library/core/src/fmt/mod.rs:1154
802007ae: 19 71        	addi	sp, sp, -128
802007b0: 86 fc        	sd	ra, 120(sp)
802007b2: a2 f8        	sd	s0, 112(sp)
802007b4: a6 f4        	sd	s1, 104(sp)
802007b6: ca f0        	sd	s2, 96(sp)
802007b8: ce ec        	sd	s3, 88(sp)
802007ba: d2 e8        	sd	s4, 80(sp)
802007bc: d6 e4        	sd	s5, 72(sp)
802007be: da e0        	sd	s6, 64(sp)
802007c0: b2 89        	mv	s3, a2
802007c2: 05 46        	addi	a2, zero, 1
802007c4: 16 16        	slli	a2, a2, 37
; /rustc/9ad5d82f822b3cb67637f11be2e65c5662b66ec0/library/core/src/fmt/mod.rs:237
802007c6: 32 f8        	sd	a2, 48(sp)
802007c8: 0d 46        	addi	a2, zero, 3
802007ca: 23 0c c1 02  	sb	a2, 56(sp)
; /rustc/9ad5d82f822b3cb67637f11be2e65c5662b66ec0/library/core/src/fmt/mod.rs:1158
802007ce: 03 b6 09 01  	ld	a2, 16(s3)
; /rustc/9ad5d82f822b3cb67637f11be2e65c5662b66ec0/library/core/src/fmt/mod.rs:237
802007d2: 02 e0        	sd	zero, 0(sp)
802007d4: 02 e8        	sd	zero, 16(sp)
802007d6: 2a f0        	sd	a0, 32(sp)
802007d8: 2e f4        	sd	a1, 40(sp)
; /rustc/9ad5d82f822b3cb67637f11be2e65c5662b66ec0/library/core/src/fmt/mod.rs:1158
802007da: 69 ca        	beqz	a2, 0x802008ac <.LBB172_34+0xa6>
; /rustc/9ad5d82f822b3cb67637f11be2e65c5662b66ec0/library/core/src/fmt/mod.rs:1172
802007dc: 03 b5 89 01  	ld	a0, 24(s3)
; /rustc/9ad5d82f822b3cb67637f11be2e65c5662b66ec0/library/core/src/slice/iter/macros.rs:146
802007e0: 63 0c 05 10  	beqz	a0, 0x802008f8 <.LBB172_34+0xf2>
802007e4: 83 b5 09 00  	ld	a1, 0(s3)
; /rustc/9ad5d82f822b3cb67637f11be2e65c5662b66ec0/library/core/src/slice/iter/macros.rs:146
802007e8: 93 16 35 00  	slli	a3, a0, 3
802007ec: e1 16        	addi	a3, a3, -8
802007ee: 8d 82        	srli	a3, a3, 3
802007f0: 13 89 16 00  	addi	s2, a3, 1
802007f4: 93 84 85 00  	addi	s1, a1, 8
802007f8: 93 05 80 03  	addi	a1, zero, 56
802007fc: 33 0a b5 02  	mul	s4, a0, a1
80200800: 13 04 06 03  	addi	s0, a2, 48
80200804: 85 4a        	addi	s5, zero, 1

0000000080200806 <.LBB172_34>:
; .LBB172_34():
80200806: 17 0b 00 00  	auipc	s6, 0
8020080a: 13 0b 0b ea  	addi	s6, s6, -352
; /rustc/9ad5d82f822b3cb67637f11be2e65c5662b66ec0/library/core/src/fmt/mod.rs:1179
8020080e: 90 60        	ld	a2, 0(s1)
80200810: 09 ca        	beqz	a2, 0x80200822 <.LBB172_34+0x1c>
; /rustc/9ad5d82f822b3cb67637f11be2e65c5662b66ec0/library/core/src/fmt/mod.rs:1180
80200812: a2 76        	ld	a3, 40(sp)
80200814: 02 75        	ld	a0, 32(sp)
80200816: 83 b5 84 ff  	ld	a1, -8(s1)
8020081a: 94 6e        	ld	a3, 24(a3)
8020081c: 82 96        	jalr	a3
8020081e: 63 19 05 10  	bnez	a0, 0x80200930 <.LBB172_34+0x12a>
; /rustc/9ad5d82f822b3cb67637f11be2e65c5662b66ec0/library/core/src/fmt/mod.rs:1199
80200822: 03 25 84 ff  	lw	a0, -8(s0)
80200826: 2a da        	sw	a0, 52(sp)
; /rustc/9ad5d82f822b3cb67637f11be2e65c5662b66ec0/library/core/src/fmt/mod.rs:1200
80200828: 03 05 04 00  	lb	a0, 0(s0)
8020082c: 23 0c a1 02  	sb	a0, 56(sp)
; /rustc/9ad5d82f822b3cb67637f11be2e65c5662b66ec0/library/core/src/fmt/mod.rs:1201
80200830: 83 25 c4 ff  	lw	a1, -4(s0)
; /rustc/9ad5d82f822b3cb67637f11be2e65c5662b66ec0/library/core/src/fmt/mod.rs:1184
80200834: 03 b5 09 02  	ld	a0, 32(s3)
; /rustc/9ad5d82f822b3cb67637f11be2e65c5662b66ec0/library/core/src/fmt/mod.rs:1201
80200838: 2e d8        	sw	a1, 48(sp)
; /rustc/9ad5d82f822b3cb67637f11be2e65c5662b66ec0/library/core/src/fmt/mod.rs:1205
8020083a: 83 36 84 fe  	ld	a3, -24(s0)
8020083e: 83 35 04 ff  	ld	a1, -16(s0)
; /rustc/9ad5d82f822b3cb67637f11be2e65c5662b66ec0/library/core/src/fmt/mod.rs:1220
80200842: 89 ce        	beqz	a3, 0x8020085c <.LBB172_34+0x56>
80200844: 01 46        	mv	a2, zero
; /rustc/9ad5d82f822b3cb67637f11be2e65c5662b66ec0/library/core/src/fmt/mod.rs:1220
80200846: 63 9c 56 01  	bne	a3, s5, 0x8020085e <.LBB172_34+0x58>
; /rustc/9ad5d82f822b3cb67637f11be2e65c5662b66ec0/library/core/src/fmt/mod.rs:333
8020084a: 92 05        	slli	a1, a1, 4
8020084c: aa 95        	add	a1, a1, a0
8020084e: 90 65        	ld	a2, 8(a1)
80200850: 63 04 66 01  	beq	a2, s6, 0x80200858 <.LBB172_34+0x52>
80200854: 01 46        	mv	a2, zero
80200856: 21 a0        	j	0x8020085e <.LBB172_34+0x58>
; /rustc/9ad5d82f822b3cb67637f11be2e65c5662b66ec0/library/core/src/fmt/mod.rs:336
80200858: 8c 61        	ld	a1, 0(a1)
8020085a: 8c 61        	ld	a1, 0(a1)
8020085c: 05 46        	addi	a2, zero, 1
; /rustc/9ad5d82f822b3cb67637f11be2e65c5662b66ec0/library/core/src/fmt/mod.rs:1205
8020085e: 32 e0        	sd	a2, 0(sp)
80200860: 2e e4        	sd	a1, 8(sp)
; /rustc/9ad5d82f822b3cb67637f11be2e65c5662b66ec0/library/core/src/fmt/mod.rs:1206
80200862: 83 36 84 fd  	ld	a3, -40(s0)
80200866: 83 35 04 fe  	ld	a1, -32(s0)
; /rustc/9ad5d82f822b3cb67637f11be2e65c5662b66ec0/library/core/src/fmt/mod.rs:1220
8020086a: 89 ce        	beqz	a3, 0x80200884 <.LBB172_34+0x7e>
8020086c: 01 46        	mv	a2, zero
; /rustc/9ad5d82f822b3cb67637f11be2e65c5662b66ec0/library/core/src/fmt/mod.rs:1220
8020086e: 63 9c 56 01  	bne	a3, s5, 0x80200886 <.LBB172_34+0x80>
; /rustc/9ad5d82f822b3cb67637f11be2e65c5662b66ec0/library/core/src/fmt/mod.rs:333
80200872: 92 05        	slli	a1, a1, 4
80200874: aa 95        	add	a1, a1, a0
80200876: 90 65        	ld	a2, 8(a1)
80200878: 63 04 66 01  	beq	a2, s6, 0x80200880 <.LBB172_34+0x7a>
8020087c: 01 46        	mv	a2, zero
8020087e: 21 a0        	j	0x80200886 <.LBB172_34+0x80>
; /rustc/9ad5d82f822b3cb67637f11be2e65c5662b66ec0/library/core/src/fmt/mod.rs:336
80200880: 8c 61        	ld	a1, 0(a1)
80200882: 8c 61        	ld	a1, 0(a1)
80200884: 05 46        	addi	a2, zero, 1
; /rustc/9ad5d82f822b3cb67637f11be2e65c5662b66ec0/library/core/src/fmt/mod.rs:1206
80200886: 32 e8        	sd	a2, 16(sp)
80200888: 2e ec        	sd	a1, 24(sp)
; /rustc/9ad5d82f822b3cb67637f11be2e65c5662b66ec0/library/core/src/fmt/mod.rs:1213
8020088a: 83 35 04 fd  	ld	a1, -48(s0)
; /rustc/9ad5d82f822b3cb67637f11be2e65c5662b66ec0/library/core/src/ptr/const_ptr.rs:295
8020088e: 92 05        	slli	a1, a1, 4
80200890: 2e 95        	add	a0, a0, a1
; /rustc/9ad5d82f822b3cb67637f11be2e65c5662b66ec0/library/core/src/fmt/mod.rs:1216
80200892: 10 65        	ld	a2, 8(a0)
80200894: 08 61        	ld	a0, 0(a0)
80200896: 8a 85        	mv	a1, sp
80200898: 02 96        	jalr	a2
; /rustc/9ad5d82f822b3cb67637f11be2e65c5662b66ec0/library/core/src/fmt/mod.rs:1184
8020089a: 59 e9        	bnez	a0, 0x80200930 <.LBB172_34+0x12a>
; /rustc/9ad5d82f822b3cb67637f11be2e65c5662b66ec0/library/core/src/slice/iter/macros.rs:146
8020089c: c1 04        	addi	s1, s1, 16
8020089e: 13 0a 8a fc  	addi	s4, s4, -56
802008a2: 13 04 84 03  	addi	s0, s0, 56
802008a6: e3 14 0a f6  	bnez	s4, 0x8020080e <.LBB172_34+0x8>
802008aa: 81 a8        	j	0x802008fa <.LBB172_34+0xf4>
; /rustc/9ad5d82f822b3cb67637f11be2e65c5662b66ec0/library/core/src/fmt/mod.rs:1161
802008ac: 03 b5 89 02  	ld	a0, 40(s3)
; /rustc/9ad5d82f822b3cb67637f11be2e65c5662b66ec0/library/core/src/slice/iter/macros.rs:146
802008b0: 29 cd        	beqz	a0, 0x8020090a <.LBB172_34+0x104>
; /rustc/9ad5d82f822b3cb67637f11be2e65c5662b66ec0/library/core/src/fmt/mod.rs:1161
802008b2: 83 b5 09 02  	ld	a1, 32(s3)
802008b6: 03 b6 09 00  	ld	a2, 0(s3)
; /rustc/9ad5d82f822b3cb67637f11be2e65c5662b66ec0/library/core/src/slice/iter/macros.rs:146
802008ba: 12 05        	slli	a0, a0, 4
802008bc: 41 15        	addi	a0, a0, -16
802008be: 11 81        	srli	a0, a0, 4
802008c0: 13 09 15 00  	addi	s2, a0, 1
802008c4: 13 04 86 00  	addi	s0, a2, 8
802008c8: 93 84 85 00  	addi	s1, a1, 8
802008cc: 4a 8a        	mv	s4, s2
; /rustc/9ad5d82f822b3cb67637f11be2e65c5662b66ec0/library/core/src/fmt/mod.rs:1165
802008ce: 10 60        	ld	a2, 0(s0)
802008d0: 01 ca        	beqz	a2, 0x802008e0 <.LBB172_34+0xda>
; /rustc/9ad5d82f822b3cb67637f11be2e65c5662b66ec0/library/core/src/fmt/mod.rs:1166
802008d2: a2 76        	ld	a3, 40(sp)
802008d4: 02 75        	ld	a0, 32(sp)
802008d6: 83 35 84 ff  	ld	a1, -8(s0)
802008da: 94 6e        	ld	a3, 24(a3)
802008dc: 82 96        	jalr	a3
802008de: 29 e9        	bnez	a0, 0x80200930 <.LBB172_34+0x12a>
; /rustc/9ad5d82f822b3cb67637f11be2e65c5662b66ec0/library/core/src/fmt/mod.rs:1168
802008e0: 90 60        	ld	a2, 0(s1)
802008e2: 03 b5 84 ff  	ld	a0, -8(s1)
802008e6: 8a 85        	mv	a1, sp
802008e8: 02 96        	jalr	a2
802008ea: 39 e1        	bnez	a0, 0x80200930 <.LBB172_34+0x12a>
; /rustc/9ad5d82f822b3cb67637f11be2e65c5662b66ec0/library/core/src/slice/iter/macros.rs:146
802008ec: 7d 1a        	addi	s4, s4, -1
802008ee: 41 04        	addi	s0, s0, 16
802008f0: c1 04        	addi	s1, s1, 16
802008f2: e3 1e 0a fc  	bnez	s4, 0x802008ce <.LBB172_34+0xc8>
802008f6: 11 a0        	j	0x802008fa <.LBB172_34+0xf4>
802008f8: 01 49        	mv	s2, zero
; /rustc/9ad5d82f822b3cb67637f11be2e65c5662b66ec0/library/core/src/fmt/mod.rs:1191
802008fa: 03 b5 89 00  	ld	a0, 8(s3)
; /rustc/9ad5d82f822b3cb67637f11be2e65c5662b66ec0/library/core/src/slice/index.rs:162
802008fe: 63 6b a9 00  	bltu	s2, a0, 0x80200914 <.LBB172_34+0x10e>
80200902: 01 46        	mv	a2, zero
; /rustc/9ad5d82f822b3cb67637f11be2e65c5662b66ec0/library/core/src/fmt/mod.rs:1191
80200904: 63 6f a9 00  	bltu	s2, a0, 0x80200922 <.LBB172_34+0x11c>
80200908: 35 a0        	j	0x80200934 <.LBB172_34+0x12e>
8020090a: 01 49        	mv	s2, zero
; /rustc/9ad5d82f822b3cb67637f11be2e65c5662b66ec0/library/core/src/fmt/mod.rs:1191
8020090c: 03 b5 89 00  	ld	a0, 8(s3)
; /rustc/9ad5d82f822b3cb67637f11be2e65c5662b66ec0/library/core/src/slice/index.rs:162
80200910: e3 79 a9 fe  	bgeu	s2, a0, 0x80200902 <.LBB172_34+0xfc>
80200914: 83 b5 09 00  	ld	a1, 0(s3)
80200918: 13 16 49 00  	slli	a2, s2, 4
8020091c: 2e 96        	add	a2, a2, a1
; /rustc/9ad5d82f822b3cb67637f11be2e65c5662b66ec0/library/core/src/fmt/mod.rs:1191
8020091e: 63 7b a9 00  	bgeu	s2, a0, 0x80200934 <.LBB172_34+0x12e>
; /rustc/9ad5d82f822b3cb67637f11be2e65c5662b66ec0/library/core/src/fmt/mod.rs:1192
80200922: a2 76        	ld	a3, 40(sp)
80200924: 02 75        	ld	a0, 32(sp)
80200926: 0c 62        	ld	a1, 0(a2)
80200928: 10 66        	ld	a2, 8(a2)
8020092a: 94 6e        	ld	a3, 24(a3)
8020092c: 82 96        	jalr	a3
8020092e: 19 c1        	beqz	a0, 0x80200934 <.LBB172_34+0x12e>
80200930: 05 45        	addi	a0, zero, 1
80200932: 11 a0        	j	0x80200936 <.LBB172_34+0x130>
80200934: 01 45        	mv	a0, zero
; /rustc/9ad5d82f822b3cb67637f11be2e65c5662b66ec0/library/core/src/fmt/mod.rs:1196
80200936: 06 6b        	ld	s6, 64(sp)
80200938: a6 6a        	ld	s5, 72(sp)
8020093a: 46 6a        	ld	s4, 80(sp)
8020093c: e6 69        	ld	s3, 88(sp)
8020093e: 06 79        	ld	s2, 96(sp)
80200940: a6 74        	ld	s1, 104(sp)
80200942: 46 74        	ld	s0, 112(sp)
80200944: e6 70        	ld	ra, 120(sp)
80200946: 09 61        	addi	sp, sp, 128
80200948: 82 80        	ret

000000008020094a <_ZN4core3fmt9Formatter12pad_integral17h4d93d6ef3d3008c6E>:
; _ZN4core3fmt9Formatter12pad_integral17h4d93d6ef3d3008c6E():
; /rustc/9ad5d82f822b3cb67637f11be2e65c5662b66ec0/library/core/src/fmt/mod.rs:1320
8020094a: 1d 71        	addi	sp, sp, -96
8020094c: 86 ec        	sd	ra, 88(sp)
8020094e: a2 e8        	sd	s0, 80(sp)
80200950: a6 e4        	sd	s1, 72(sp)
80200952: ca e0        	sd	s2, 64(sp)
80200954: 4e fc        	sd	s3, 56(sp)
80200956: 52 f8        	sd	s4, 48(sp)
80200958: 56 f4        	sd	s5, 40(sp)
8020095a: 5a f0        	sd	s6, 32(sp)
8020095c: 5e ec        	sd	s7, 24(sp)
8020095e: 62 e8        	sd	s8, 16(sp)
80200960: 66 e4        	sd	s9, 8(sp)
80200962: 6a e0        	sd	s10, 0(sp)
80200964: be 89        	mv	s3, a5
80200966: 3a 89        	mv	s2, a4
80200968: 36 8b        	mv	s6, a3
8020096a: aa 8b        	mv	s7, a0
; /rustc/9ad5d82f822b3cb67637f11be2e65c5662b66ec0/library/core/src/fmt/mod.rs:1324
8020096c: a1 c5        	beqz	a1, 0x802009b4 <_ZN4core3fmt9Formatter12pad_integral17h4d93d6ef3d3008c6E+0x6a>
; /rustc/9ad5d82f822b3cb67637f11be2e65c5662b66ec0/library/core/src/fmt/mod.rs:1801
8020096e: 03 e5 0b 03  	lwu	a0, 48(s7)
80200972: 93 75 15 00  	andi	a1, a0, 1
80200976: 37 0a 11 00  	lui	s4, 272
; /rustc/9ad5d82f822b3cb67637f11be2e65c5662b66ec0/library/core/src/fmt/mod.rs:1327
8020097a: 99 c1        	beqz	a1, 0x80200980 <_ZN4core3fmt9Formatter12pad_integral17h4d93d6ef3d3008c6E+0x36>
8020097c: 13 0a b0 02  	addi	s4, zero, 43
; /rustc/9ad5d82f822b3cb67637f11be2e65c5662b66ec0/library/core/src/fmt/mod.rs:1327
80200980: 33 84 35 01  	add	s0, a1, s3
; /rustc/9ad5d82f822b3cb67637f11be2e65c5662b66ec0/library/core/src/fmt/mod.rs:1858
80200984: 93 75 45 00  	andi	a1, a0, 4
; /rustc/9ad5d82f822b3cb67637f11be2e65c5662b66ec0/library/core/src/fmt/mod.rs:1332
80200988: 9d cd        	beqz	a1, 0x802009c6 <_ZN4core3fmt9Formatter12pad_integral17h4d93d6ef3d3008c6E+0x7c>
8020098a: 81 45        	mv	a1, zero
; /rustc/9ad5d82f822b3cb67637f11be2e65c5662b66ec0/library/core/src/slice/iter/macros.rs:146
8020098c: 63 0e 0b 00  	beqz	s6, 0x802009a8 <_ZN4core3fmt9Formatter12pad_integral17h4d93d6ef3d3008c6E+0x5e>
80200990: 93 06 f0 fb  	addi	a3, zero, -65
80200994: 5a 87        	mv	a4, s6
80200996: b2 87        	mv	a5, a2
; /rustc/9ad5d82f822b3cb67637f11be2e65c5662b66ec0/library/core/src/iter/traits/iterator.rs:2167
80200998: 83 84 07 00  	lb	s1, 0(a5)
; /rustc/9ad5d82f822b3cb67637f11be2e65c5662b66ec0/library/core/src/ptr/mut_ptr.rs:307
8020099c: 85 07        	addi	a5, a5, 1
; /rustc/9ad5d82f822b3cb67637f11be2e65c5662b66ec0/library/core/src/str/validations.rs:25
8020099e: b3 a4 96 00  	slt	s1, a3, s1
; /rustc/9ad5d82f822b3cb67637f11be2e65c5662b66ec0/library/core/src/slice/iter/macros.rs:146
802009a2: 7d 17        	addi	a4, a4, -1
; /rustc/9ad5d82f822b3cb67637f11be2e65c5662b66ec0/library/core/src/iter/traits/accum.rs:45
802009a4: a6 95        	add	a1, a1, s1
; /rustc/9ad5d82f822b3cb67637f11be2e65c5662b66ec0/library/core/src/slice/iter/macros.rs:146
802009a6: 6d fb        	bnez	a4, 0x80200998 <_ZN4core3fmt9Formatter12pad_integral17h4d93d6ef3d3008c6E+0x4e>
; /rustc/9ad5d82f822b3cb67637f11be2e65c5662b66ec0/library/core/src/fmt/mod.rs:1333
802009a8: 2e 94        	add	s0, s0, a1
802009aa: 32 8c        	mv	s8, a2
; /rustc/9ad5d82f822b3cb67637f11be2e65c5662b66ec0/library/core/src/fmt/mod.rs:1349
802009ac: 83 b5 0b 00  	ld	a1, 0(s7)
802009b0: 99 ed        	bnez	a1, 0x802009ce <_ZN4core3fmt9Formatter12pad_integral17h4d93d6ef3d3008c6E+0x84>
802009b2: a9 a0        	j	0x802009fc <_ZN4core3fmt9Formatter12pad_integral17h4d93d6ef3d3008c6E+0xb2>
; /rustc/9ad5d82f822b3cb67637f11be2e65c5662b66ec0/library/core/src/fmt/mod.rs:1858
802009b4: 03 e5 0b 03  	lwu	a0, 48(s7)
; /rustc/9ad5d82f822b3cb67637f11be2e65c5662b66ec0/library/core/src/fmt/mod.rs:1326
802009b8: 13 84 19 00  	addi	s0, s3, 1
802009bc: 13 0a d0 02  	addi	s4, zero, 45
; /rustc/9ad5d82f822b3cb67637f11be2e65c5662b66ec0/library/core/src/fmt/mod.rs:1858
802009c0: 93 75 45 00  	andi	a1, a0, 4
; /rustc/9ad5d82f822b3cb67637f11be2e65c5662b66ec0/library/core/src/fmt/mod.rs:1332
802009c4: f9 f1        	bnez	a1, 0x8020098a <_ZN4core3fmt9Formatter12pad_integral17h4d93d6ef3d3008c6E+0x40>
802009c6: 01 4c        	mv	s8, zero
; /rustc/9ad5d82f822b3cb67637f11be2e65c5662b66ec0/library/core/src/fmt/mod.rs:1349
802009c8: 83 b5 0b 00  	ld	a1, 0(s7)
802009cc: 85 c9        	beqz	a1, 0x802009fc <_ZN4core3fmt9Formatter12pad_integral17h4d93d6ef3d3008c6E+0xb2>
; /rustc/9ad5d82f822b3cb67637f11be2e65c5662b66ec0/library/core/src/fmt/mod.rs:1358
802009ce: 83 b4 8b 00  	ld	s1, 8(s7)
802009d2: 63 75 94 02  	bgeu	s0, s1, 0x802009fc <_ZN4core3fmt9Formatter12pad_integral17h4d93d6ef3d3008c6E+0xb2>
; /rustc/9ad5d82f822b3cb67637f11be2e65c5662b66ec0/library/core/src/fmt/mod.rs:1884
802009d6: 21 89        	andi	a0, a0, 8
; /rustc/9ad5d82f822b3cb67637f11be2e65c5662b66ec0/library/core/src/fmt/mod.rs:1364
802009d8: 41 e1        	bnez	a0, 0x80200a58 <_ZN4core3fmt9Formatter12pad_integral17h4d93d6ef3d3008c6E+0x10e>
; /rustc/9ad5d82f822b3cb67637f11be2e65c5662b66ec0/library/core/src/fmt/mod.rs:1469
802009da: 83 c5 8b 03  	lbu	a1, 56(s7)
802009de: 0d 46        	addi	a2, zero, 3
802009e0: 05 45        	addi	a0, zero, 1
802009e2: 63 83 c5 00  	beq	a1, a2, 0x802009e8 <_ZN4core3fmt9Formatter12pad_integral17h4d93d6ef3d3008c6E+0x9e>
802009e6: 2e 85        	mv	a0, a1
; /rustc/9ad5d82f822b3cb67637f11be2e65c5662b66ec0/library/core/src/fmt/mod.rs:1474
802009e8: 93 75 35 00  	andi	a1, a0, 3
802009ec: 33 85 84 40  	sub	a0, s1, s0
802009f0: cd c9        	beqz	a1, 0x80200aa2 <_ZN4core3fmt9Formatter12pad_integral17h4d93d6ef3d3008c6E+0x158>
802009f2: 05 46        	addi	a2, zero, 1
; /rustc/9ad5d82f822b3cb67637f11be2e65c5662b66ec0/library/core/src/fmt/mod.rs:1474
802009f4: 63 9a c5 0a  	bne	a1, a2, 0x80200aa8 <_ZN4core3fmt9Formatter12pad_integral17h4d93d6ef3d3008c6E+0x15e>
802009f8: 81 4c        	mv	s9, zero
802009fa: 65 a8        	j	0x80200ab2 <_ZN4core3fmt9Formatter12pad_integral17h4d93d6ef3d3008c6E+0x168>
802009fc: 5e 85        	mv	a0, s7
802009fe: d2 85        	mv	a1, s4
80200a00: 62 86        	mv	a2, s8
80200a02: da 86        	mv	a3, s6
80200a04: 97 00 00 00  	auipc	ra, 0
80200a08: e7 80 a0 1a  	jalr	426(ra)
80200a0c: 85 4a        	addi	s5, zero, 1
80200a0e: 05 c1        	beqz	a0, 0x80200a2e <_ZN4core3fmt9Formatter12pad_integral17h4d93d6ef3d3008c6E+0xe4>
; /rustc/9ad5d82f822b3cb67637f11be2e65c5662b66ec0/library/core/src/fmt/mod.rs:1383
80200a10: 56 85        	mv	a0, s5
80200a12: 02 6d        	ld	s10, 0(sp)
80200a14: a2 6c        	ld	s9, 8(sp)
80200a16: 42 6c        	ld	s8, 16(sp)
80200a18: e2 6b        	ld	s7, 24(sp)
80200a1a: 02 7b        	ld	s6, 32(sp)
80200a1c: a2 7a        	ld	s5, 40(sp)
80200a1e: 42 7a        	ld	s4, 48(sp)
80200a20: e2 79        	ld	s3, 56(sp)
80200a22: 06 69        	ld	s2, 64(sp)
80200a24: a6 64        	ld	s1, 72(sp)
80200a26: 46 64        	ld	s0, 80(sp)
80200a28: e6 60        	ld	ra, 88(sp)
80200a2a: 25 61        	addi	sp, sp, 96
80200a2c: 82 80        	ret
80200a2e: 83 b5 8b 02  	ld	a1, 40(s7)
80200a32: 03 b5 0b 02  	ld	a0, 32(s7)
80200a36: 9c 6d        	ld	a5, 24(a1)
80200a38: ca 85        	mv	a1, s2
80200a3a: 4e 86        	mv	a2, s3
80200a3c: 02 6d        	ld	s10, 0(sp)
80200a3e: a2 6c        	ld	s9, 8(sp)
80200a40: 42 6c        	ld	s8, 16(sp)
80200a42: e2 6b        	ld	s7, 24(sp)
80200a44: 02 7b        	ld	s6, 32(sp)
80200a46: a2 7a        	ld	s5, 40(sp)
80200a48: 42 7a        	ld	s4, 48(sp)
80200a4a: e2 79        	ld	s3, 56(sp)
80200a4c: 06 69        	ld	s2, 64(sp)
80200a4e: a6 64        	ld	s1, 72(sp)
80200a50: 46 64        	ld	s0, 80(sp)
80200a52: e6 60        	ld	ra, 88(sp)
80200a54: 25 61        	addi	sp, sp, 96
80200a56: 82 87        	jr	a5
; /rustc/9ad5d82f822b3cb67637f11be2e65c5662b66ec0/library/core/src/mem/mod.rs:839
80200a58: 83 ec 4b 03  	lwu	s9, 52(s7)
80200a5c: 13 05 00 03  	addi	a0, zero, 48
80200a60: 03 cd 8b 03  	lbu	s10, 56(s7)
; /rustc/9ad5d82f822b3cb67637f11be2e65c5662b66ec0/library/core/src/ptr/mod.rs:892
80200a64: 23 aa ab 02  	sw	a0, 52(s7)
80200a68: 85 4a        	addi	s5, zero, 1
80200a6a: 23 8c 5b 03  	sb	s5, 56(s7)
; /rustc/9ad5d82f822b3cb67637f11be2e65c5662b66ec0/library/core/src/fmt/mod.rs:1367
80200a6e: 5e 85        	mv	a0, s7
80200a70: d2 85        	mv	a1, s4
80200a72: 62 86        	mv	a2, s8
80200a74: da 86        	mv	a3, s6
80200a76: 97 00 00 00  	auipc	ra, 0
80200a7a: e7 80 80 13  	jalr	312(ra)
80200a7e: 49 f9        	bnez	a0, 0x80200a10 <_ZN4core3fmt9Formatter12pad_integral17h4d93d6ef3d3008c6E+0xc6>
; /rustc/9ad5d82f822b3cb67637f11be2e65c5662b66ec0/library/core/src/fmt/mod.rs:1469
80200a80: 83 c5 8b 03  	lbu	a1, 56(s7)
80200a84: 0d 46        	addi	a2, zero, 3
80200a86: 05 45        	addi	a0, zero, 1
; /rustc/9ad5d82f822b3cb67637f11be2e65c5662b66ec0/library/core/src/fmt/mod.rs:1474
80200a88: 63 83 c5 00  	beq	a1, a2, 0x80200a8e <_ZN4core3fmt9Formatter12pad_integral17h4d93d6ef3d3008c6E+0x144>
80200a8c: 2e 85        	mv	a0, a1
; /rustc/9ad5d82f822b3cb67637f11be2e65c5662b66ec0/library/core/src/fmt/mod.rs:1474
80200a8e: 93 75 35 00  	andi	a1, a0, 3
80200a92: 33 85 84 40  	sub	a0, s1, s0
; /rustc/9ad5d82f822b3cb67637f11be2e65c5662b66ec0/library/core/src/fmt/mod.rs:1474
80200a96: d9 c5        	beqz	a1, 0x80200b24 <_ZN4core3fmt9Formatter12pad_integral17h4d93d6ef3d3008c6E+0x1da>
80200a98: 05 46        	addi	a2, zero, 1
; /rustc/9ad5d82f822b3cb67637f11be2e65c5662b66ec0/library/core/src/fmt/mod.rs:1474
80200a9a: 63 98 c5 08  	bne	a1, a2, 0x80200b2a <_ZN4core3fmt9Formatter12pad_integral17h4d93d6ef3d3008c6E+0x1e0>
80200a9e: 01 4a        	mv	s4, zero
80200aa0: 51 a8        	j	0x80200b34 <_ZN4core3fmt9Formatter12pad_integral17h4d93d6ef3d3008c6E+0x1ea>
80200aa2: aa 8c        	mv	s9, a0
80200aa4: 01 45        	mv	a0, zero
80200aa6: 31 a0        	j	0x80200ab2 <_ZN4core3fmt9Formatter12pad_integral17h4d93d6ef3d3008c6E+0x168>
; /rustc/9ad5d82f822b3cb67637f11be2e65c5662b66ec0/library/core/src/fmt/mod.rs:1477
80200aa8: 93 05 15 00  	addi	a1, a0, 1
80200aac: 05 81        	srli	a0, a0, 1
80200aae: 93 dc 15 00  	srli	s9, a1, 1
80200ab2: 83 ba 0b 02  	ld	s5, 32(s7)
80200ab6: 03 b4 8b 02  	ld	s0, 40(s7)
80200aba: 03 ed 4b 03  	lwu	s10, 52(s7)
; /rustc/9ad5d82f822b3cb67637f11be2e65c5662b66ec0/library/core/src/fmt/mod.rs:1480
80200abe: 93 04 15 00  	addi	s1, a0, 1
; /rustc/9ad5d82f822b3cb67637f11be2e65c5662b66ec0/library/core/src/cmp.rs:1378
80200ac2: fd 14        	addi	s1, s1, -1
; /rustc/9ad5d82f822b3cb67637f11be2e65c5662b66ec0/library/core/src/iter/range.rs:621
80200ac4: 99 c4        	beqz	s1, 0x80200ad2 <_ZN4core3fmt9Formatter12pad_integral17h4d93d6ef3d3008c6E+0x188>
; /rustc/9ad5d82f822b3cb67637f11be2e65c5662b66ec0/library/core/src/fmt/mod.rs:1481
80200ac6: 10 70        	ld	a2, 32(s0)
80200ac8: 56 85        	mv	a0, s5
80200aca: ea 85        	mv	a1, s10
80200acc: 02 96        	jalr	a2
80200ace: 75 d9        	beqz	a0, 0x80200ac2 <_ZN4core3fmt9Formatter12pad_integral17h4d93d6ef3d3008c6E+0x178>
80200ad0: 49 a0        	j	0x80200b52 <_ZN4core3fmt9Formatter12pad_integral17h4d93d6ef3d3008c6E+0x208>
; /rustc/9ad5d82f822b3cb67637f11be2e65c5662b66ec0/library/core/src/fmt/mod.rs:1377
80200ad2: 1b 05 0d 00  	sext.w	a0, s10
80200ad6: b7 05 11 00  	lui	a1, 272
80200ada: 85 4a        	addi	s5, zero, 1
80200adc: e3 0a b5 f2  	beq	a0, a1, 0x80200a10 <_ZN4core3fmt9Formatter12pad_integral17h4d93d6ef3d3008c6E+0xc6>
; /rustc/9ad5d82f822b3cb67637f11be2e65c5662b66ec0/library/core/src/fmt/mod.rs:1378
80200ae0: 5e 85        	mv	a0, s7
80200ae2: d2 85        	mv	a1, s4
80200ae4: 62 86        	mv	a2, s8
80200ae6: da 86        	mv	a3, s6
80200ae8: 97 00 00 00  	auipc	ra, 0
80200aec: e7 80 60 0c  	jalr	198(ra)
80200af0: 05 f1        	bnez	a0, 0x80200a10 <_ZN4core3fmt9Formatter12pad_integral17h4d93d6ef3d3008c6E+0xc6>
; /rustc/9ad5d82f822b3cb67637f11be2e65c5662b66ec0/library/core/src/fmt/mod.rs:1379
80200af2: 83 b5 8b 02  	ld	a1, 40(s7)
80200af6: 03 b5 0b 02  	ld	a0, 32(s7)
80200afa: 94 6d        	ld	a3, 24(a1)
80200afc: ca 85        	mv	a1, s2
80200afe: 4e 86        	mv	a2, s3
80200b00: 82 96        	jalr	a3
80200b02: 19 f5        	bnez	a0, 0x80200a10 <_ZN4core3fmt9Formatter12pad_integral17h4d93d6ef3d3008c6E+0xc6>
80200b04: 03 b9 0b 02  	ld	s2, 32(s7)
80200b08: 03 b4 8b 02  	ld	s0, 40(s7)
80200b0c: 81 44        	mv	s1, zero
80200b0e: 63 8c 9c 08  	beq	s9, s1, 0x80200ba6 <_ZN4core3fmt9Formatter12pad_integral17h4d93d6ef3d3008c6E+0x25c>
; /rustc/9ad5d82f822b3cb67637f11be2e65c5662b66ec0/library/core/src/fmt/mod.rs:1247
80200b12: 10 70        	ld	a2, 32(s0)
; /rustc/9ad5d82f822b3cb67637f11be2e65c5662b66ec0/library/core/src/num/uint_macros.rs:464
80200b14: 85 04        	addi	s1, s1, 1
; /rustc/9ad5d82f822b3cb67637f11be2e65c5662b66ec0/library/core/src/fmt/mod.rs:1247
80200b16: 4a 85        	mv	a0, s2
80200b18: ea 85        	mv	a1, s10
80200b1a: 02 96        	jalr	a2
80200b1c: 6d d9        	beqz	a0, 0x80200b0e <_ZN4core3fmt9Formatter12pad_integral17h4d93d6ef3d3008c6E+0x1c4>
80200b1e: 13 85 f4 ff  	addi	a0, s1, -1
80200b22: 59 a0        	j	0x80200ba8 <_ZN4core3fmt9Formatter12pad_integral17h4d93d6ef3d3008c6E+0x25e>
80200b24: 2a 8a        	mv	s4, a0
80200b26: 01 45        	mv	a0, zero
80200b28: 31 a0        	j	0x80200b34 <_ZN4core3fmt9Formatter12pad_integral17h4d93d6ef3d3008c6E+0x1ea>
; /rustc/9ad5d82f822b3cb67637f11be2e65c5662b66ec0/library/core/src/fmt/mod.rs:1477
80200b2a: 93 05 15 00  	addi	a1, a0, 1
80200b2e: 05 81        	srli	a0, a0, 1
80200b30: 13 da 15 00  	srli	s4, a1, 1
80200b34: 83 ba 0b 02  	ld	s5, 32(s7)
80200b38: 03 b4 8b 02  	ld	s0, 40(s7)
80200b3c: 03 eb 4b 03  	lwu	s6, 52(s7)
; /rustc/9ad5d82f822b3cb67637f11be2e65c5662b66ec0/library/core/src/fmt/mod.rs:1480
80200b40: 93 04 15 00  	addi	s1, a0, 1
; /rustc/9ad5d82f822b3cb67637f11be2e65c5662b66ec0/library/core/src/cmp.rs:1378
80200b44: fd 14        	addi	s1, s1, -1
; /rustc/9ad5d82f822b3cb67637f11be2e65c5662b66ec0/library/core/src/iter/range.rs:621
80200b46: 81 c8        	beqz	s1, 0x80200b56 <_ZN4core3fmt9Formatter12pad_integral17h4d93d6ef3d3008c6E+0x20c>
; /rustc/9ad5d82f822b3cb67637f11be2e65c5662b66ec0/library/core/src/fmt/mod.rs:1481
80200b48: 10 70        	ld	a2, 32(s0)
80200b4a: 56 85        	mv	a0, s5
80200b4c: da 85        	mv	a1, s6
80200b4e: 02 96        	jalr	a2
80200b50: 75 d9        	beqz	a0, 0x80200b44 <_ZN4core3fmt9Formatter12pad_integral17h4d93d6ef3d3008c6E+0x1fa>
80200b52: 85 4a        	addi	s5, zero, 1
80200b54: 75 bd        	j	0x80200a10 <_ZN4core3fmt9Formatter12pad_integral17h4d93d6ef3d3008c6E+0xc6>
; /rustc/9ad5d82f822b3cb67637f11be2e65c5662b66ec0/library/core/src/fmt/mod.rs:1368
80200b56: 1b 05 0b 00  	sext.w	a0, s6
80200b5a: b7 05 11 00  	lui	a1, 272
80200b5e: 85 4a        	addi	s5, zero, 1
80200b60: e3 08 b5 ea  	beq	a0, a1, 0x80200a10 <_ZN4core3fmt9Formatter12pad_integral17h4d93d6ef3d3008c6E+0xc6>
; /rustc/9ad5d82f822b3cb67637f11be2e65c5662b66ec0/library/core/src/fmt/mod.rs:1369
80200b64: 83 b5 8b 02  	ld	a1, 40(s7)
80200b68: 03 b5 0b 02  	ld	a0, 32(s7)
80200b6c: 94 6d        	ld	a3, 24(a1)
80200b6e: ca 85        	mv	a1, s2
80200b70: 4e 86        	mv	a2, s3
80200b72: 82 96        	jalr	a3
80200b74: e3 1e 05 e8  	bnez	a0, 0x80200a10 <_ZN4core3fmt9Formatter12pad_integral17h4d93d6ef3d3008c6E+0xc6>
80200b78: 03 b9 0b 02  	ld	s2, 32(s7)
80200b7c: 03 b4 8b 02  	ld	s0, 40(s7)
80200b80: 81 44        	mv	s1, zero
; /rustc/9ad5d82f822b3cb67637f11be2e65c5662b66ec0/library/core/src/iter/range.rs:621
80200b82: 63 0c 9a 00  	beq	s4, s1, 0x80200b9a <_ZN4core3fmt9Formatter12pad_integral17h4d93d6ef3d3008c6E+0x250>
; /rustc/9ad5d82f822b3cb67637f11be2e65c5662b66ec0/library/core/src/fmt/mod.rs:1247
80200b86: 10 70        	ld	a2, 32(s0)
; /rustc/9ad5d82f822b3cb67637f11be2e65c5662b66ec0/library/core/src/num/uint_macros.rs:464
80200b88: 85 04        	addi	s1, s1, 1
; /rustc/9ad5d82f822b3cb67637f11be2e65c5662b66ec0/library/core/src/fmt/mod.rs:1247
80200b8a: 4a 85        	mv	a0, s2
80200b8c: da 85        	mv	a1, s6
80200b8e: 02 96        	jalr	a2
80200b90: 6d d9        	beqz	a0, 0x80200b82 <_ZN4core3fmt9Formatter12pad_integral17h4d93d6ef3d3008c6E+0x238>
; /rustc/9ad5d82f822b3cb67637f11be2e65c5662b66ec0/library/core/src/cmp.rs:1378
80200b92: 13 85 f4 ff  	addi	a0, s1, -1
; /rustc/9ad5d82f822b3cb67637f11be2e65c5662b66ec0/library/core/src/fmt/mod.rs:1370
80200b96: e3 6d 45 e7  	bltu	a0, s4, 0x80200a10 <_ZN4core3fmt9Formatter12pad_integral17h4d93d6ef3d3008c6E+0xc6>
80200b9a: 81 4a        	mv	s5, zero
; /rustc/9ad5d82f822b3cb67637f11be2e65c5662b66ec0/library/core/src/fmt/mod.rs:1371
80200b9c: 23 aa 9b 03  	sw	s9, 52(s7)
; /rustc/9ad5d82f822b3cb67637f11be2e65c5662b66ec0/library/core/src/fmt/mod.rs:1372
80200ba0: 23 8c ab 03  	sb	s10, 56(s7)
80200ba4: b5 b5        	j	0x80200a10 <_ZN4core3fmt9Formatter12pad_integral17h4d93d6ef3d3008c6E+0xc6>
80200ba6: 66 85        	mv	a0, s9
; /rustc/9ad5d82f822b3cb67637f11be2e65c5662b66ec0/library/core/src/cmp.rs:1378
80200ba8: b3 3a 95 01  	sltu	s5, a0, s9
80200bac: 95 b5        	j	0x80200a10 <_ZN4core3fmt9Formatter12pad_integral17h4d93d6ef3d3008c6E+0xc6>

0000000080200bae <_ZN4core3fmt9Formatter12pad_integral12write_prefix17hdef2e18a60234a50E>:
; _ZN4core3fmt9Formatter12pad_integral12write_prefix17hdef2e18a60234a50E():
; /rustc/9ad5d82f822b3cb67637f11be2e65c5662b66ec0/library/core/src/fmt/mod.rs:1341
80200bae: 01 11        	addi	sp, sp, -32
80200bb0: 06 ec        	sd	ra, 24(sp)
80200bb2: 22 e8        	sd	s0, 16(sp)
80200bb4: 26 e4        	sd	s1, 8(sp)
80200bb6: 4a e0        	sd	s2, 0(sp)
80200bb8: 1b 87 05 00  	sext.w	a4, a1
80200bbc: b7 07 11 00  	lui	a5, 272
80200bc0: 36 89        	mv	s2, a3
80200bc2: b2 84        	mv	s1, a2
80200bc4: 2a 84        	mv	s0, a0
; /rustc/9ad5d82f822b3cb67637f11be2e65c5662b66ec0/library/core/src/fmt/mod.rs:1342
80200bc6: 63 09 f7 00  	beq	a4, a5, 0x80200bd8 <_ZN4core3fmt9Formatter12pad_integral12write_prefix17hdef2e18a60234a50E+0x2a>
; /rustc/9ad5d82f822b3cb67637f11be2e65c5662b66ec0/library/core/src/fmt/mod.rs:1343
80200bca: 10 74        	ld	a2, 40(s0)
80200bcc: 08 70        	ld	a0, 32(s0)
80200bce: 10 72        	ld	a2, 32(a2)
80200bd0: 02 96        	jalr	a2
80200bd2: aa 85        	mv	a1, a0
80200bd4: 05 45        	addi	a0, zero, 1
80200bd6: 91 ed        	bnez	a1, 0x80200bf2 <_ZN4core3fmt9Formatter12pad_integral12write_prefix17hdef2e18a60234a50E+0x44>
; /rustc/9ad5d82f822b3cb67637f11be2e65c5662b66ec0/library/core/src/fmt/mod.rs:1345
80200bd8: 81 cc        	beqz	s1, 0x80200bf0 <_ZN4core3fmt9Formatter12pad_integral12write_prefix17hdef2e18a60234a50E+0x42>
80200bda: 0c 74        	ld	a1, 40(s0)
80200bdc: 08 70        	ld	a0, 32(s0)
80200bde: 9c 6d        	ld	a5, 24(a1)
80200be0: a6 85        	mv	a1, s1
80200be2: 4a 86        	mv	a2, s2
80200be4: 02 69        	ld	s2, 0(sp)
80200be6: a2 64        	ld	s1, 8(sp)
80200be8: 42 64        	ld	s0, 16(sp)
80200bea: e2 60        	ld	ra, 24(sp)
80200bec: 05 61        	addi	sp, sp, 32
80200bee: 82 87        	jr	a5
80200bf0: 01 45        	mv	a0, zero
; /rustc/9ad5d82f822b3cb67637f11be2e65c5662b66ec0/library/core/src/fmt/mod.rs:1346
80200bf2: 02 69        	ld	s2, 0(sp)
80200bf4: a2 64        	ld	s1, 8(sp)
80200bf6: 42 64        	ld	s0, 16(sp)
80200bf8: e2 60        	ld	ra, 24(sp)
80200bfa: 05 61        	addi	sp, sp, 32
80200bfc: 82 80        	ret

0000000080200bfe <_ZN4core3fmt9Formatter3pad17heb20eb156e3cd483E>:
; _ZN4core3fmt9Formatter3pad17heb20eb156e3cd483E():
; /rustc/9ad5d82f822b3cb67637f11be2e65c5662b66ec0/library/core/src/fmt/mod.rs:1414
80200bfe: 5d 71        	addi	sp, sp, -80
80200c00: 86 e4        	sd	ra, 72(sp)
80200c02: a2 e0        	sd	s0, 64(sp)
80200c04: 26 fc        	sd	s1, 56(sp)
80200c06: 4a f8        	sd	s2, 48(sp)
80200c08: 4e f4        	sd	s3, 40(sp)
80200c0a: 52 f0        	sd	s4, 32(sp)
80200c0c: 56 ec        	sd	s5, 24(sp)
80200c0e: 5a e8        	sd	s6, 16(sp)
80200c10: 5e e4        	sd	s7, 8(sp)
80200c12: 18 69        	ld	a4, 16(a0)
; /rustc/9ad5d82f822b3cb67637f11be2e65c5662b66ec0/library/core/src/fmt/mod.rs:1416
80200c14: 14 61        	ld	a3, 0(a0)
80200c16: b2 89        	mv	s3, a2
80200c18: 2e 89        	mv	s2, a1
80200c1a: 93 05 f7 ff  	addi	a1, a4, -1
80200c1e: 05 46        	addi	a2, zero, 1
80200c20: 93 b5 15 00  	seqz	a1, a1
; /rustc/9ad5d82f822b3cb67637f11be2e65c5662b66ec0/library/core/src/fmt/mod.rs:1416
80200c24: 63 94 c6 00  	bne	a3, a2, 0x80200c2c <_ZN4core3fmt9Formatter3pad17heb20eb156e3cd483E+0x2e>
; /rustc/9ad5d82f822b3cb67637f11be2e65c5662b66ec0/library/core/src/fmt/mod.rs:1421
80200c28: 81 e5        	bnez	a1, 0x80200c30 <_ZN4core3fmt9Formatter3pad17heb20eb156e3cd483E+0x32>
80200c2a: 21 a2        	j	0x80200d32 <_ZN4core3fmt9Formatter3pad17heb20eb156e3cd483E+0x134>
; /rustc/9ad5d82f822b3cb67637f11be2e65c5662b66ec0/library/core/src/fmt/mod.rs:1416
80200c2c: 63 85 05 14  	beqz	a1, 0x80200d76 <_ZN4core3fmt9Formatter3pad17heb20eb156e3cd483E+0x178>
; /rustc/9ad5d82f822b3cb67637f11be2e65c5662b66ec0/library/core/src/fmt/mod.rs:1421
80200c30: 18 6d        	ld	a4, 24(a0)
80200c32: 93 85 f6 ff  	addi	a1, a3, -1
80200c36: 93 b8 15 00  	seqz	a7, a1
; /rustc/9ad5d82f822b3cb67637f11be2e65c5662b66ec0/library/core/src/ptr/const_ptr.rs:295
80200c3a: b3 06 39 01  	add	a3, s2, s3
80200c3e: 01 46        	mv	a2, zero
; /rustc/9ad5d82f822b3cb67637f11be2e65c5662b66ec0/library/core/src/iter/range.rs:621
80200c40: 35 cb        	beqz	a4, 0x80200cb4 <_ZN4core3fmt9Formatter3pad17heb20eb156e3cd483E+0xb6>
80200c42: 13 03 00 0e  	addi	t1, zero, 224
80200c46: 93 02 00 0f  	addi	t0, zero, 240
80200c4a: 37 08 11 00  	lui	a6, 272
80200c4e: 4a 84        	mv	s0, s2
80200c50: 01 a8        	j	0x80200c60 <_ZN4core3fmt9Formatter3pad17heb20eb156e3cd483E+0x62>
80200c52: 93 05 14 00  	addi	a1, s0, 1
; /rustc/9ad5d82f822b3cb67637f11be2e65c5662b66ec0/library/core/src/str/iter.rs:146
80200c56: 01 8e        	sub	a2, a2, s0
; /rustc/9ad5d82f822b3cb67637f11be2e65c5662b66ec0/library/core/src/cmp.rs:1378
80200c58: 7d 17        	addi	a4, a4, -1
; /rustc/9ad5d82f822b3cb67637f11be2e65c5662b66ec0/library/core/src/str/iter.rs:146
80200c5a: 2e 96        	add	a2, a2, a1
80200c5c: 2e 84        	mv	s0, a1
; /rustc/9ad5d82f822b3cb67637f11be2e65c5662b66ec0/library/core/src/iter/range.rs:621
80200c5e: 21 cf        	beqz	a4, 0x80200cb6 <_ZN4core3fmt9Formatter3pad17heb20eb156e3cd483E+0xb8>
; /rustc/9ad5d82f822b3cb67637f11be2e65c5662b66ec0/library/core/src/slice/iter/macros.rs:146
80200c60: 63 07 d4 0c  	beq	s0, a3, 0x80200d2e <_ZN4core3fmt9Formatter3pad17heb20eb156e3cd483E+0x130>
; /rustc/9ad5d82f822b3cb67637f11be2e65c5662b66ec0/library/core/src/str/validations.rs:38
80200c64: 83 05 04 00  	lb	a1, 0(s0)
; /rustc/9ad5d82f822b3cb67637f11be2e65c5662b66ec0/library/core/src/str/validations.rs:39
80200c68: e3 d5 05 fe  	bgez	a1, 0x80200c52 <_ZN4core3fmt9Formatter3pad17heb20eb156e3cd483E+0x54>
80200c6c: 93 f5 f5 0f  	andi	a1, a1, 255
; /rustc/9ad5d82f822b3cb67637f11be2e65c5662b66ec0/library/core/src/str/validations.rs:51
80200c70: 63 ec 65 02  	bltu	a1, t1, 0x80200ca8 <_ZN4core3fmt9Formatter3pad17heb20eb156e3cd483E+0xaa>
; /rustc/9ad5d82f822b3cb67637f11be2e65c5662b66ec0/library/core/src/str/validations.rs:59
80200c74: 63 ed 55 02  	bltu	a1, t0, 0x80200cae <_ZN4core3fmt9Formatter3pad17heb20eb156e3cd483E+0xb0>
; /rustc/9ad5d82f822b3cb67637f11be2e65c5662b66ec0/library/core/src/str/validations.rs:49
80200c78: 83 44 14 00  	lbu	s1, 1(s0)
; /rustc/9ad5d82f822b3cb67637f11be2e65c5662b66ec0/library/core/src/str/validations.rs:56
80200c7c: 83 47 24 00  	lbu	a5, 2(s0)
; /rustc/9ad5d82f822b3cb67637f11be2e65c5662b66ec0/library/core/src/str/validations.rs:18
80200c80: 93 f4 f4 03  	andi	s1, s1, 63
80200c84: 93 f7 f7 03  	andi	a5, a5, 63
; /rustc/9ad5d82f822b3cb67637f11be2e65c5662b66ec0/library/core/src/str/validations.rs:64
80200c88: 83 43 34 00  	lbu	t2, 3(s0)
; /rustc/9ad5d82f822b3cb67637f11be2e65c5662b66ec0/library/core/src/str/validations.rs:65
80200c8c: f6 15        	slli	a1, a1, 61
80200c8e: ad 91        	srli	a1, a1, 43
; /rustc/9ad5d82f822b3cb67637f11be2e65c5662b66ec0/library/core/src/str/validations.rs:18
80200c90: b2 04        	slli	s1, s1, 12
80200c92: 9a 07        	slli	a5, a5, 6
80200c94: c5 8f        	or	a5, a5, s1
80200c96: 93 f4 f3 03  	andi	s1, t2, 63
80200c9a: c5 8f        	or	a5, a5, s1
; /rustc/9ad5d82f822b3cb67637f11be2e65c5662b66ec0/library/core/src/str/validations.rs:65
80200c9c: dd 8d        	or	a1, a1, a5
; /rustc/9ad5d82f822b3cb67637f11be2e65c5662b66ec0/library/core/src/str/iter.rs:141
80200c9e: 63 88 05 09  	beq	a1, a6, 0x80200d2e <_ZN4core3fmt9Formatter3pad17heb20eb156e3cd483E+0x130>
80200ca2: 93 05 44 00  	addi	a1, s0, 4
80200ca6: 45 bf        	j	0x80200c56 <_ZN4core3fmt9Formatter3pad17heb20eb156e3cd483E+0x58>
80200ca8: 93 05 24 00  	addi	a1, s0, 2
80200cac: 6d b7        	j	0x80200c56 <_ZN4core3fmt9Formatter3pad17heb20eb156e3cd483E+0x58>
80200cae: 93 05 34 00  	addi	a1, s0, 3
80200cb2: 55 b7        	j	0x80200c56 <_ZN4core3fmt9Formatter3pad17heb20eb156e3cd483E+0x58>
80200cb4: ca 85        	mv	a1, s2
; /rustc/9ad5d82f822b3cb67637f11be2e65c5662b66ec0/library/core/src/slice/iter/macros.rs:146
80200cb6: 63 8c d5 06  	beq	a1, a3, 0x80200d2e <_ZN4core3fmt9Formatter3pad17heb20eb156e3cd483E+0x130>
; /rustc/9ad5d82f822b3cb67637f11be2e65c5662b66ec0/library/core/src/str/validations.rs:38
80200cba: 83 c6 05 00  	lbu	a3, 0(a1)
80200cbe: 13 07 00 0f  	addi	a4, zero, 240
; /rustc/9ad5d82f822b3cb67637f11be2e65c5662b66ec0/library/core/src/str/validations.rs:39
80200cc2: 63 e9 e6 02  	bltu	a3, a4, 0x80200cf4 <_ZN4core3fmt9Formatter3pad17heb20eb156e3cd483E+0xf6>
; /rustc/9ad5d82f822b3cb67637f11be2e65c5662b66ec0/library/core/src/str/validations.rs:49
80200cc6: 03 c7 15 00  	lbu	a4, 1(a1)
; /rustc/9ad5d82f822b3cb67637f11be2e65c5662b66ec0/library/core/src/str/validations.rs:56
80200cca: 83 c7 25 00  	lbu	a5, 2(a1)
; /rustc/9ad5d82f822b3cb67637f11be2e65c5662b66ec0/library/core/src/str/validations.rs:18
80200cce: 13 77 f7 03  	andi	a4, a4, 63
80200cd2: 93 f7 f7 03  	andi	a5, a5, 63
; /rustc/9ad5d82f822b3cb67637f11be2e65c5662b66ec0/library/core/src/str/validations.rs:64
80200cd6: 83 c5 35 00  	lbu	a1, 3(a1)
; /rustc/9ad5d82f822b3cb67637f11be2e65c5662b66ec0/library/core/src/str/validations.rs:65
80200cda: f6 16        	slli	a3, a3, 61
80200cdc: ad 92        	srli	a3, a3, 43
; /rustc/9ad5d82f822b3cb67637f11be2e65c5662b66ec0/library/core/src/str/validations.rs:18
80200cde: 32 07        	slli	a4, a4, 12
80200ce0: 9a 07        	slli	a5, a5, 6
80200ce2: 5d 8f        	or	a4, a4, a5
80200ce4: 93 f5 f5 03  	andi	a1, a1, 63
80200ce8: d9 8d        	or	a1, a1, a4
; /rustc/9ad5d82f822b3cb67637f11be2e65c5662b66ec0/library/core/src/str/validations.rs:65
80200cea: d5 8d        	or	a1, a1, a3
80200cec: b7 06 11 00  	lui	a3, 272
; /rustc/9ad5d82f822b3cb67637f11be2e65c5662b66ec0/library/core/src/str/iter.rs:141
80200cf0: 63 8f d5 02  	beq	a1, a3, 0x80200d2e <_ZN4core3fmt9Formatter3pad17heb20eb156e3cd483E+0x130>
; /rustc/9ad5d82f822b3cb67637f11be2e65c5662b66ec0/library/core/src/str/mod.rs:201
80200cf4: 05 c2        	beqz	a2, 0x80200d14 <_ZN4core3fmt9Formatter3pad17heb20eb156e3cd483E+0x116>
; /rustc/9ad5d82f822b3cb67637f11be2e65c5662b66ec0/library/core/src/str/mod.rs:205
80200cf6: 63 74 36 03  	bgeu	a2, s3, 0x80200d1e <_ZN4core3fmt9Formatter3pad17heb20eb156e3cd483E+0x120>
80200cfa: b3 05 c9 00  	add	a1, s2, a2
; /rustc/9ad5d82f822b3cb67637f11be2e65c5662b66ec0/library/core/src/str/mod.rs:218
80200cfe: 83 85 05 00  	lb	a1, 0(a1)
80200d02: 93 06 00 fc  	addi	a3, zero, -64
; /rustc/9ad5d82f822b3cb67637f11be2e65c5662b66ec0/library/core/src/str/traits.rs:254
80200d06: 63 cd d5 0e  	blt	a1, a3, 0x80200e00 <_ZN4core3fmt9Formatter3pad17heb20eb156e3cd483E+0x202>
80200d0a: b2 85        	mv	a1, a2
80200d0c: 2e 86        	mv	a2, a1
80200d0e: ca 85        	mv	a1, s2
; /rustc/9ad5d82f822b3cb67637f11be2e65c5662b66ec0/library/core/src/option.rs:754
80200d10: 99 cd        	beqz	a1, 0x80200d2e <_ZN4core3fmt9Formatter3pad17heb20eb156e3cd483E+0x130>
80200d12: 21 a8        	j	0x80200d2a <_ZN4core3fmt9Formatter3pad17heb20eb156e3cd483E+0x12c>
80200d14: 81 45        	mv	a1, zero
80200d16: 2e 86        	mv	a2, a1
80200d18: ca 85        	mv	a1, s2
; /rustc/9ad5d82f822b3cb67637f11be2e65c5662b66ec0/library/core/src/option.rs:754
80200d1a: 91 c9        	beqz	a1, 0x80200d2e <_ZN4core3fmt9Formatter3pad17heb20eb156e3cd483E+0x130>
80200d1c: 39 a0        	j	0x80200d2a <_ZN4core3fmt9Formatter3pad17heb20eb156e3cd483E+0x12c>
80200d1e: ce 85        	mv	a1, s3
; /rustc/9ad5d82f822b3cb67637f11be2e65c5662b66ec0/library/core/src/str/traits.rs:254
80200d20: 63 10 36 0f  	bne	a2, s3, 0x80200e00 <_ZN4core3fmt9Formatter3pad17heb20eb156e3cd483E+0x202>
80200d24: 2e 86        	mv	a2, a1
80200d26: ca 85        	mv	a1, s2
; /rustc/9ad5d82f822b3cb67637f11be2e65c5662b66ec0/library/core/src/option.rs:754
80200d28: 99 c1        	beqz	a1, 0x80200d2e <_ZN4core3fmt9Formatter3pad17heb20eb156e3cd483E+0x130>
80200d2a: 2e 89        	mv	s2, a1
80200d2c: b2 89        	mv	s3, a2
; /rustc/9ad5d82f822b3cb67637f11be2e65c5662b66ec0/library/core/src/fmt/mod.rs:1438
80200d2e: 63 84 08 04  	beqz	a7, 0x80200d76 <_ZN4core3fmt9Formatter3pad17heb20eb156e3cd483E+0x178>
; /rustc/9ad5d82f822b3cb67637f11be2e65c5662b66ec0/library/core/src/fmt/mod.rs:1442
80200d32: 0c 65        	ld	a1, 8(a0)
80200d34: 01 46        	mv	a2, zero
80200d36: 63 8e 09 00  	beqz	s3, 0x80200d52 <_ZN4core3fmt9Formatter3pad17heb20eb156e3cd483E+0x154>
80200d3a: 93 06 f0 fb  	addi	a3, zero, -65
80200d3e: 4e 87        	mv	a4, s3
80200d40: ca 87        	mv	a5, s2
; /rustc/9ad5d82f822b3cb67637f11be2e65c5662b66ec0/library/core/src/iter/traits/iterator.rs:2167
80200d42: 83 84 07 00  	lb	s1, 0(a5)
; /rustc/9ad5d82f822b3cb67637f11be2e65c5662b66ec0/library/core/src/ptr/mut_ptr.rs:307
80200d46: 85 07        	addi	a5, a5, 1
; /rustc/9ad5d82f822b3cb67637f11be2e65c5662b66ec0/library/core/src/str/validations.rs:25
80200d48: b3 a4 96 00  	slt	s1, a3, s1
; /rustc/9ad5d82f822b3cb67637f11be2e65c5662b66ec0/library/core/src/slice/iter/macros.rs:146
80200d4c: 7d 17        	addi	a4, a4, -1
; /rustc/9ad5d82f822b3cb67637f11be2e65c5662b66ec0/library/core/src/iter/traits/accum.rs:45
80200d4e: 26 96        	add	a2, a2, s1
80200d50: 6d fb        	bnez	a4, 0x80200d42 <_ZN4core3fmt9Formatter3pad17heb20eb156e3cd483E+0x144>
80200d52: 63 72 b6 02  	bgeu	a2, a1, 0x80200d76 <_ZN4core3fmt9Formatter3pad17heb20eb156e3cd483E+0x178>
; /rustc/9ad5d82f822b3cb67637f11be2e65c5662b66ec0/library/core/src/fmt/mod.rs:1469
80200d56: 83 46 85 03  	lbu	a3, 56(a0)
80200d5a: 8d 47        	addi	a5, zero, 3
80200d5c: 01 47        	mv	a4, zero
80200d5e: 63 83 f6 00  	beq	a3, a5, 0x80200d64 <_ZN4core3fmt9Formatter3pad17heb20eb156e3cd483E+0x166>
80200d62: 36 87        	mv	a4, a3
; /rustc/9ad5d82f822b3cb67637f11be2e65c5662b66ec0/library/core/src/fmt/mod.rs:1474
80200d64: 93 76 37 00  	andi	a3, a4, 3
80200d68: 91 8d        	sub	a1, a1, a2
80200d6a: 95 c6        	beqz	a3, 0x80200d96 <_ZN4core3fmt9Formatter3pad17heb20eb156e3cd483E+0x198>
80200d6c: 05 46        	addi	a2, zero, 1
; /rustc/9ad5d82f822b3cb67637f11be2e65c5662b66ec0/library/core/src/fmt/mod.rs:1474
80200d6e: 63 97 c6 02  	bne	a3, a2, 0x80200d9c <_ZN4core3fmt9Formatter3pad17heb20eb156e3cd483E+0x19e>
80200d72: 81 4a        	mv	s5, zero
80200d74: 0d a8        	j	0x80200da6 <_ZN4core3fmt9Formatter3pad17heb20eb156e3cd483E+0x1a8>
80200d76: 0c 75        	ld	a1, 40(a0)
80200d78: 08 71        	ld	a0, 32(a0)
80200d7a: 9c 6d        	ld	a5, 24(a1)
80200d7c: ca 85        	mv	a1, s2
80200d7e: 4e 86        	mv	a2, s3
80200d80: a2 6b        	ld	s7, 8(sp)
80200d82: 42 6b        	ld	s6, 16(sp)
80200d84: e2 6a        	ld	s5, 24(sp)
80200d86: 02 7a        	ld	s4, 32(sp)
80200d88: a2 79        	ld	s3, 40(sp)
80200d8a: 42 79        	ld	s2, 48(sp)
80200d8c: e2 74        	ld	s1, 56(sp)
80200d8e: 06 64        	ld	s0, 64(sp)
80200d90: a6 60        	ld	ra, 72(sp)
80200d92: 61 61        	addi	sp, sp, 80
80200d94: 82 87        	jr	a5
80200d96: ae 8a        	mv	s5, a1
80200d98: 81 45        	mv	a1, zero
80200d9a: 31 a0        	j	0x80200da6 <_ZN4core3fmt9Formatter3pad17heb20eb156e3cd483E+0x1a8>
; /rustc/9ad5d82f822b3cb67637f11be2e65c5662b66ec0/library/core/src/fmt/mod.rs:1477
80200d9c: 13 86 15 00  	addi	a2, a1, 1
80200da0: 85 81        	srli	a1, a1, 1
80200da2: 93 5a 16 00  	srli	s5, a2, 1
80200da6: 03 3b 05 02  	ld	s6, 32(a0)
80200daa: 83 3b 85 02  	ld	s7, 40(a0)
80200dae: 03 64 45 03  	lwu	s0, 52(a0)
; /rustc/9ad5d82f822b3cb67637f11be2e65c5662b66ec0/library/core/src/fmt/mod.rs:1480
80200db2: 93 84 15 00  	addi	s1, a1, 1
; /rustc/9ad5d82f822b3cb67637f11be2e65c5662b66ec0/library/core/src/cmp.rs:1378
80200db6: fd 14        	addi	s1, s1, -1
; /rustc/9ad5d82f822b3cb67637f11be2e65c5662b66ec0/library/core/src/iter/range.rs:621
80200db8: 89 c8        	beqz	s1, 0x80200dca <_ZN4core3fmt9Formatter3pad17heb20eb156e3cd483E+0x1cc>
; /rustc/9ad5d82f822b3cb67637f11be2e65c5662b66ec0/library/core/src/fmt/mod.rs:1481
80200dba: 03 b6 0b 02  	ld	a2, 32(s7)
80200dbe: 5a 85        	mv	a0, s6
80200dc0: a2 85        	mv	a1, s0
80200dc2: 02 96        	jalr	a2
80200dc4: 6d d9        	beqz	a0, 0x80200db6 <_ZN4core3fmt9Formatter3pad17heb20eb156e3cd483E+0x1b8>
80200dc6: 05 4a        	addi	s4, zero, 1
80200dc8: 91 a0        	j	0x80200e0c <_ZN4core3fmt9Formatter3pad17heb20eb156e3cd483E+0x20e>
; /rustc/9ad5d82f822b3cb67637f11be2e65c5662b66ec0/library/core/src/fmt/mod.rs:1453
80200dca: 1b 05 04 00  	sext.w	a0, s0
80200dce: b7 05 11 00  	lui	a1, 272
80200dd2: 05 4a        	addi	s4, zero, 1
80200dd4: 63 0c b5 02  	beq	a0, a1, 0x80200e0c <_ZN4core3fmt9Formatter3pad17heb20eb156e3cd483E+0x20e>
; /rustc/9ad5d82f822b3cb67637f11be2e65c5662b66ec0/library/core/src/fmt/mod.rs:1454
80200dd8: 83 b6 8b 01  	ld	a3, 24(s7)
80200ddc: 5a 85        	mv	a0, s6
80200dde: ca 85        	mv	a1, s2
80200de0: 4e 86        	mv	a2, s3
80200de2: 82 96        	jalr	a3
80200de4: 05 e5        	bnez	a0, 0x80200e0c <_ZN4core3fmt9Formatter3pad17heb20eb156e3cd483E+0x20e>
80200de6: 81 44        	mv	s1, zero
; /rustc/9ad5d82f822b3cb67637f11be2e65c5662b66ec0/library/core/src/iter/range.rs:621
80200de8: 63 8f 9a 00  	beq	s5, s1, 0x80200e06 <_ZN4core3fmt9Formatter3pad17heb20eb156e3cd483E+0x208>
; /rustc/9ad5d82f822b3cb67637f11be2e65c5662b66ec0/library/core/src/fmt/mod.rs:1247
80200dec: 03 b6 0b 02  	ld	a2, 32(s7)
; /rustc/9ad5d82f822b3cb67637f11be2e65c5662b66ec0/library/core/src/num/uint_macros.rs:464
80200df0: 85 04        	addi	s1, s1, 1
; /rustc/9ad5d82f822b3cb67637f11be2e65c5662b66ec0/library/core/src/fmt/mod.rs:1247
80200df2: 5a 85        	mv	a0, s6
80200df4: a2 85        	mv	a1, s0
80200df6: 02 96        	jalr	a2
80200df8: 65 d9        	beqz	a0, 0x80200de8 <_ZN4core3fmt9Formatter3pad17heb20eb156e3cd483E+0x1ea>
80200dfa: 13 85 f4 ff  	addi	a0, s1, -1
80200dfe: 29 a0        	j	0x80200e08 <_ZN4core3fmt9Formatter3pad17heb20eb156e3cd483E+0x20a>
80200e00: 81 45        	mv	a1, zero
; /rustc/9ad5d82f822b3cb67637f11be2e65c5662b66ec0/library/core/src/option.rs:754
80200e02: 95 d5        	beqz	a1, 0x80200d2e <_ZN4core3fmt9Formatter3pad17heb20eb156e3cd483E+0x130>
80200e04: 1d b7        	j	0x80200d2a <_ZN4core3fmt9Formatter3pad17heb20eb156e3cd483E+0x12c>
80200e06: 56 85        	mv	a0, s5
; /rustc/9ad5d82f822b3cb67637f11be2e65c5662b66ec0/library/core/src/cmp.rs:1378
80200e08: 33 3a 55 01  	sltu	s4, a0, s5
; /rustc/9ad5d82f822b3cb67637f11be2e65c5662b66ec0/library/core/src/fmt/mod.rs:1459
80200e0c: 52 85        	mv	a0, s4
80200e0e: a2 6b        	ld	s7, 8(sp)
80200e10: 42 6b        	ld	s6, 16(sp)
80200e12: e2 6a        	ld	s5, 24(sp)
80200e14: 02 7a        	ld	s4, 32(sp)
80200e16: a2 79        	ld	s3, 40(sp)
80200e18: 42 79        	ld	s2, 48(sp)
80200e1a: e2 74        	ld	s1, 56(sp)
80200e1c: 06 64        	ld	s0, 64(sp)
80200e1e: a6 60        	ld	ra, 72(sp)
80200e20: 61 61        	addi	sp, sp, 80
80200e22: 82 80        	ret

0000000080200e24 <_ZN42_$LT$str$u20$as$u20$core..fmt..Display$GT$3fmt17h71611f9dab9a6398E>:
; _ZN42_$LT$str$u20$as$u20$core..fmt..Display$GT$3fmt17h71611f9dab9a6398E():
; /rustc/9ad5d82f822b3cb67637f11be2e65c5662b66ec0/library/core/src/fmt/mod.rs:2174
80200e24: ae 86        	mv	a3, a1
80200e26: aa 85        	mv	a1, a0
; /rustc/9ad5d82f822b3cb67637f11be2e65c5662b66ec0/library/core/src/fmt/mod.rs:2175
80200e28: 32 85        	mv	a0, a2
80200e2a: 36 86        	mv	a2, a3
80200e2c: 17 03 00 00  	auipc	t1, 0
80200e30: 67 00 23 dd  	jr	-558(t1)

0000000080200e34 <_ZN4core3fmt3num3imp7fmt_u6417he7d0319b0f6241a3E>:
; _ZN4core3fmt3num3imp7fmt_u6417he7d0319b0f6241a3E():
; /rustc/9ad5d82f822b3cb67637f11be2e65c5662b66ec0/library/core/src/fmt/num.rs:211
80200e34: 39 71        	addi	sp, sp, -64
80200e36: 06 fc        	sd	ra, 56(sp)
80200e38: 22 f8        	sd	s0, 48(sp)
80200e3a: 26 f4        	sd	s1, 40(sp)
80200e3c: 32 88        	mv	a6, a2
; /rustc/9ad5d82f822b3cb67637f11be2e65c5662b66ec0/library/core/src/fmt/num.rs:230
80200e3e: 13 56 45 00  	srli	a2, a0, 4
80200e42: 13 07 70 02  	addi	a4, zero, 39
80200e46: 93 06 10 27  	addi	a3, zero, 625

0000000080200e4a <.LBB488_10>:
; .LBB488_10():
80200e4a: 97 08 00 00  	auipc	a7, 0
80200e4e: 93 88 e8 42  	addi	a7, a7, 1070
; /rustc/9ad5d82f822b3cb67637f11be2e65c5662b66ec0/library/core/src/fmt/num.rs:230
80200e52: 63 73 d6 02  	bgeu	a2, a3, 0x80200e78 <.LBB488_10+0x2e>
80200e56: 13 06 30 06  	addi	a2, zero, 99
; /rustc/9ad5d82f822b3cb67637f11be2e65c5662b66ec0/library/core/src/fmt/num.rs:249
80200e5a: 63 4f a6 0a  	blt	a2, a0, 0x80200f18 <.LBB488_10+0xce>
80200e5e: 29 46        	addi	a2, zero, 10
; /rustc/9ad5d82f822b3cb67637f11be2e65c5662b66ec0/library/core/src/fmt/num.rs:257
80200e60: 63 5d c5 0e  	bge	a0, a2, 0x80200f5a <.LBB488_10+0x110>
; /rustc/9ad5d82f822b3cb67637f11be2e65c5662b66ec0/library/core/src/fmt/num.rs:258
80200e64: 13 06 f7 ff  	addi	a2, a4, -1
80200e68: 93 06 11 00  	addi	a3, sp, 1
; /rustc/9ad5d82f822b3cb67637f11be2e65c5662b66ec0/library/core/src/ptr/mut_ptr.rs:307
80200e6c: b2 96        	add	a3, a3, a2
; /rustc/9ad5d82f822b3cb67637f11be2e65c5662b66ec0/library/core/src/fmt/num.rs:259
80200e6e: 13 05 05 03  	addi	a0, a0, 48
80200e72: 23 80 a6 00  	sb	a0, 0(a3)
80200e76: 09 a2        	j	0x80200f78 <.LBB488_10+0x12e>
80200e78: 01 47        	mv	a4, zero
80200e7a: 37 36 1a 00  	lui	a2, 419
80200e7e: 1b 06 36 6e  	addiw	a2, a2, 1763
80200e82: 3a 06        	slli	a2, a2, 14
80200e84: 13 06 76 ac  	addi	a2, a2, -1337
80200e88: 3a 06        	slli	a2, a2, 14
80200e8a: 13 06 36 43  	addi	a2, a2, 1075
80200e8e: 36 06        	slli	a2, a2, 13
80200e90: 93 03 b6 94  	addi	t2, a2, -1717
80200e94: 09 66        	lui	a2, 2
80200e96: 1b 0e 06 71  	addiw	t3, a2, 1808
80200e9a: 05 66        	lui	a2, 1
80200e9c: 9b 0e b6 47  	addiw	t4, a2, 1147
80200ea0: 93 02 40 06  	addi	t0, zero, 100
80200ea4: 13 03 11 00  	addi	t1, sp, 1
80200ea8: b7 e7 f5 05  	lui	a5, 24414
80200eac: 1b 8f f7 0f  	addiw	t5, a5, 255
80200eb0: aa 86        	mv	a3, a0
; /rustc/9ad5d82f822b3cb67637f11be2e65c5662b66ec0/library/core/src/fmt/num.rs:232
80200eb2: 33 35 75 02  	mulhu	a0, a0, t2
80200eb6: 2d 81        	srli	a0, a0, 11
80200eb8: 33 06 c5 03  	mul	a2, a0, t3
80200ebc: 33 86 c6 40  	sub	a2, a3, a2
; /rustc/9ad5d82f822b3cb67637f11be2e65c5662b66ec0/library/core/src/fmt/num.rs:234
80200ec0: 93 17 06 03  	slli	a5, a2, 48
80200ec4: c9 93        	srli	a5, a5, 50
80200ec6: b3 87 d7 03  	mul	a5, a5, t4
80200eca: c5 83        	srli	a5, a5, 17
80200ecc: 93 9f 17 00  	slli	t6, a5, 1
80200ed0: b3 87 57 02  	mul	a5, a5, t0
80200ed4: 1d 8e        	sub	a2, a2, a5
; /rustc/9ad5d82f822b3cb67637f11be2e65c5662b66ec0/library/core/src/fmt/num.rs:235
80200ed6: 46 16        	slli	a2, a2, 49
80200ed8: 13 54 06 03  	srli	s0, a2, 48
; /rustc/9ad5d82f822b3cb67637f11be2e65c5662b66ec0/library/core/src/ptr/const_ptr.rs:295
80200edc: b3 87 1f 01  	add	a5, t6, a7
; /rustc/9ad5d82f822b3cb67637f11be2e65c5662b66ec0/library/core/src/intrinsics.rs:2083
80200ee0: 33 06 e3 00  	add	a2, t1, a4
80200ee4: 83 cf 07 00  	lbu	t6, 0(a5)
80200ee8: 83 87 17 00  	lb	a5, 1(a5)
; /rustc/9ad5d82f822b3cb67637f11be2e65c5662b66ec0/library/core/src/ptr/const_ptr.rs:295
80200eec: 46 94        	add	s0, s0, a7
; /rustc/9ad5d82f822b3cb67637f11be2e65c5662b66ec0/library/core/src/intrinsics.rs:2083
80200eee: 83 04 14 00  	lb	s1, 1(s0)
80200ef2: 03 44 04 00  	lbu	s0, 0(s0)
80200ef6: 23 02 f6 02  	sb	a5, 36(a2)
80200efa: a3 01 f6 03  	sb	t6, 35(a2)
80200efe: 23 03 96 02  	sb	s1, 38(a2)
80200f02: a3 02 86 02  	sb	s0, 37(a2)
; /rustc/9ad5d82f822b3cb67637f11be2e65c5662b66ec0/library/core/src/fmt/num.rs:230
80200f06: 71 17        	addi	a4, a4, -4
80200f08: e3 64 df fa  	bltu	t5, a3, 0x80200eb0 <.LBB488_10+0x66>
; /rustc/9ad5d82f822b3cb67637f11be2e65c5662b66ec0/library/core/src/fmt/num.rs:249
80200f0c: 13 07 77 02  	addi	a4, a4, 39
80200f10: 13 06 30 06  	addi	a2, zero, 99
80200f14: e3 55 a6 f4  	bge	a2, a0, 0x80200e5e <.LBB488_10+0x14>
; /rustc/9ad5d82f822b3cb67637f11be2e65c5662b66ec0/library/core/src/fmt/num.rs:251
80200f18: 13 16 05 03  	slli	a2, a0, 48
80200f1c: 49 92        	srli	a2, a2, 50
80200f1e: 85 66        	lui	a3, 1
80200f20: 9b 86 b6 47  	addiw	a3, a3, 1147
80200f24: 33 06 d6 02  	mul	a2, a2, a3
80200f28: 45 82        	srli	a2, a2, 17
80200f2a: 93 06 40 06  	addi	a3, zero, 100
80200f2e: b3 06 d6 02  	mul	a3, a2, a3
80200f32: 15 8d        	sub	a0, a0, a3
; /rustc/9ad5d82f822b3cb67637f11be2e65c5662b66ec0/library/core/src/fmt/num.rs:250
80200f34: 46 15        	slli	a0, a0, 49
80200f36: 41 91        	srli	a0, a0, 48
; /rustc/9ad5d82f822b3cb67637f11be2e65c5662b66ec0/library/core/src/fmt/num.rs:252
80200f38: 79 17        	addi	a4, a4, -2
; /rustc/9ad5d82f822b3cb67637f11be2e65c5662b66ec0/library/core/src/ptr/const_ptr.rs:295
80200f3a: 46 95        	add	a0, a0, a7
; /rustc/9ad5d82f822b3cb67637f11be2e65c5662b66ec0/library/core/src/intrinsics.rs:2083
80200f3c: 83 06 15 00  	lb	a3, 1(a0)
80200f40: 03 45 05 00  	lbu	a0, 0(a0)
80200f44: 93 07 11 00  	addi	a5, sp, 1
; /rustc/9ad5d82f822b3cb67637f11be2e65c5662b66ec0/library/core/src/ptr/mut_ptr.rs:307
80200f48: ba 97        	add	a5, a5, a4
; /rustc/9ad5d82f822b3cb67637f11be2e65c5662b66ec0/library/core/src/intrinsics.rs:2083
80200f4a: a3 80 d7 00  	sb	a3, 1(a5)
80200f4e: 23 80 a7 00  	sb	a0, 0(a5)
80200f52: 32 85        	mv	a0, a2
80200f54: 29 46        	addi	a2, zero, 10
; /rustc/9ad5d82f822b3cb67637f11be2e65c5662b66ec0/library/core/src/fmt/num.rs:257
80200f56: e3 47 c5 f0  	blt	a0, a2, 0x80200e64 <.LBB488_10+0x1a>
; /rustc/9ad5d82f822b3cb67637f11be2e65c5662b66ec0/library/core/src/fmt/num.rs:261
80200f5a: 06 05        	slli	a0, a0, 1
; /rustc/9ad5d82f822b3cb67637f11be2e65c5662b66ec0/library/core/src/fmt/num.rs:262
80200f5c: 13 06 e7 ff  	addi	a2, a4, -2
; /rustc/9ad5d82f822b3cb67637f11be2e65c5662b66ec0/library/core/src/ptr/const_ptr.rs:295
80200f60: 46 95        	add	a0, a0, a7
; /rustc/9ad5d82f822b3cb67637f11be2e65c5662b66ec0/library/core/src/intrinsics.rs:2083
80200f62: 83 06 15 00  	lb	a3, 1(a0)
80200f66: 03 45 05 00  	lbu	a0, 0(a0)
80200f6a: 13 07 11 00  	addi	a4, sp, 1
; /rustc/9ad5d82f822b3cb67637f11be2e65c5662b66ec0/library/core/src/ptr/mut_ptr.rs:307
80200f6e: 32 97        	add	a4, a4, a2
; /rustc/9ad5d82f822b3cb67637f11be2e65c5662b66ec0/library/core/src/intrinsics.rs:2083
80200f70: a3 00 d7 00  	sb	a3, 1(a4)
80200f74: 23 00 a7 00  	sb	a0, 0(a4)
80200f78: 13 05 11 00  	addi	a0, sp, 1
; /rustc/9ad5d82f822b3cb67637f11be2e65c5662b66ec0/library/core/src/ptr/mut_ptr.rs:307
80200f7c: 33 07 c5 00  	add	a4, a0, a2
80200f80: 13 05 70 02  	addi	a0, zero, 39
; /rustc/9ad5d82f822b3cb67637f11be2e65c5662b66ec0/library/core/src/fmt/num.rs:271
80200f84: b3 07 c5 40  	sub	a5, a0, a2

0000000080200f88 <.LBB488_11>:
; .LBB488_11():
; /rustc/9ad5d82f822b3cb67637f11be2e65c5662b66ec0/library/core/src/fmt/num.rs:273
80200f88: 17 06 00 00  	auipc	a2, 0
80200f8c: 13 06 86 2a  	addi	a2, a2, 680
80200f90: 42 85        	mv	a0, a6
80200f92: 81 46        	mv	a3, zero
80200f94: 97 00 00 00  	auipc	ra, 0
80200f98: e7 80 60 9b  	jalr	-1610(ra)
; /rustc/9ad5d82f822b3cb67637f11be2e65c5662b66ec0/library/core/src/fmt/num.rs:274
80200f9c: a2 74        	ld	s1, 40(sp)
80200f9e: 42 74        	ld	s0, 48(sp)
80200fa0: e2 70        	ld	ra, 56(sp)
80200fa2: 21 61        	addi	sp, sp, 64
80200fa4: 82 80        	ret

0000000080200fa6 <_ZN4core3fmt3num3imp52_$LT$impl$u20$core..fmt..Display$u20$for$u20$u32$GT$3fmt17h088c6e9675da2aebE>:
; _ZN4core3fmt3num3imp52_$LT$impl$u20$core..fmt..Display$u20$for$u20$u32$GT$3fmt17h088c6e9675da2aebE():
; /rustc/9ad5d82f822b3cb67637f11be2e65c5662b66ec0/library/core/src/fmt/num.rs:45
80200fa6: 03 65 05 00  	lwu	a0, 0(a0)
80200faa: 2e 86        	mv	a2, a1
; /rustc/9ad5d82f822b3cb67637f11be2e65c5662b66ec0/library/core/src/fmt/num.rs:287
80200fac: 85 45        	addi	a1, zero, 1
80200fae: 17 03 00 00  	auipc	t1, 0
80200fb2: 67 00 63 e8  	jr	-378(t1)

0000000080200fb6 <_ZN4core3fmt3num3imp54_$LT$impl$u20$core..fmt..Display$u20$for$u20$usize$GT$3fmt17hd9c16d7572507252E>:
; _ZN4core3fmt3num3imp52_$LT$impl$u20$core..fmt..Display$u20$for$u20$u64$GT$3fmt17h16304a8b762c462bE():
; /rustc/9ad5d82f822b3cb67637f11be2e65c5662b66ec0/library/core/src/fmt/num.rs:45
80200fb6: 08 61        	ld	a0, 0(a0)
80200fb8: 2e 86        	mv	a2, a1
; /rustc/9ad5d82f822b3cb67637f11be2e65c5662b66ec0/library/core/src/fmt/num.rs:287
80200fba: 85 45        	addi	a1, zero, 1
80200fbc: 17 03 00 00  	auipc	t1, 0
80200fc0: 67 00 83 e7  	jr	-392(t1)

0000000080200fc4 <_ZN53_$LT$core..fmt..Error$u20$as$u20$core..fmt..Debug$GT$3fmt17h1a2ef9fef0ff4e41E>:
; _ZN53_$LT$core..fmt..Error$u20$as$u20$core..fmt..Debug$GT$3fmt17h1a2ef9fef0ff4e41E():
; /rustc/9ad5d82f822b3cb67637f11be2e65c5662b66ec0/library/core/src/fmt/mod.rs:1599
80200fc4: 90 75        	ld	a2, 40(a1)
80200fc6: 88 71        	ld	a0, 32(a1)
80200fc8: 1c 6e        	ld	a5, 24(a2)

0000000080200fca <.LBB520_1>:
; .LBB520_1():
; /rustc/9ad5d82f822b3cb67637f11be2e65c5662b66ec0/library/core/src/fmt/mod.rs:1599
80200fca: 97 05 00 00  	auipc	a1, 0
80200fce: 93 85 65 37  	addi	a1, a1, 886
80200fd2: 15 46        	addi	a2, zero, 5
80200fd4: 82 87        	jr	a5

0000000080200fd6 <_ZN42_$LT$$RF$T$u20$as$u20$core..fmt..Debug$GT$3fmt17hfd91d91e762f255cE>:
; _ZN42_$LT$$RF$T$u20$as$u20$core..fmt..Debug$GT$3fmt17hfd91d91e762f255cE():
; /rustc/9ad5d82f822b3cb67637f11be2e65c5662b66ec0/library/core/src/fmt/mod.rs:2106
80200fd6: 10 65        	ld	a2, 8(a0)
80200fd8: 08 61        	ld	a0, 0(a0)
80200fda: 1c 6e        	ld	a5, 24(a2)
80200fdc: 82 87        	jr	a5

0000000080200fde <_ZN44_$LT$$RF$T$u20$as$u20$core..fmt..Display$GT$3fmt17h5d27d82e2dbf06d5E>:
; _ZN44_$LT$$RF$T$u20$as$u20$core..fmt..Display$GT$3fmt17h5d27d82e2dbf06d5E():
; /rustc/9ad5d82f822b3cb67637f11be2e65c5662b66ec0/library/core/src/fmt/mod.rs:2106
80200fde: 14 61        	ld	a3, 0(a0)
80200fe0: 10 65        	ld	a2, 8(a0)
80200fe2: 2e 85        	mv	a0, a1
; /rustc/9ad5d82f822b3cb67637f11be2e65c5662b66ec0/library/core/src/fmt/mod.rs:2175
80200fe4: b6 85        	mv	a1, a3
80200fe6: 17 03 00 00  	auipc	t1, 0
80200fea: 67 00 83 c1  	jr	-1000(t1)
make[1]: 离开目录“/home/weihuan/WorkSpace/MyOS/os”
