
busybox:     file format elf64-littleriscv
busybox


Disassembly of section .plt:

0000000000012860 <longjmp@plt-0x20>:
   12860:	00014397          	auipc	t2,0x14
   12864:	41c30333          	sub	t1,t1,t3
   12868:	7a03be03          	ld	t3,1952(t2) # 27000 <stderr+0x1b8>
   1286c:	fd430313          	addi	t1,t1,-44
   12870:	7a038293          	addi	t0,t2,1952
   12874:	00135313          	srli	t1,t1,0x1
   12878:	0082b283          	ld	t0,8(t0)
   1287c:	000e0067          	jr	t3

0000000000012880 <longjmp@plt>:
   12880:	00014e17          	auipc	t3,0x14
   12884:	790e3e03          	ld	t3,1936(t3) # 27010 <longjmp>
   12888:	000e0367          	jalr	t1,t3
   1288c:	00000013          	nop

0000000000012890 <clock_gettime@plt>:
   12890:	00014e17          	auipc	t3,0x14
   12894:	788e3e03          	ld	t3,1928(t3) # 27018 <clock_gettime>
   12898:	000e0367          	jalr	t1,t3
   1289c:	00000013          	nop

00000000000128a0 <strcpy@plt>:
   128a0:	00014e17          	auipc	t3,0x14
   128a4:	780e3e03          	ld	t3,1920(t3) # 27020 <strcpy>
   128a8:	000e0367          	jalr	t1,t3
   128ac:	00000013          	nop

00000000000128b0 <setjmp@plt>:
   128b0:	00014e17          	auipc	t3,0x14
   128b4:	778e3e03          	ld	t3,1912(t3) # 27028 <setjmp>
   128b8:	000e0367          	jalr	t1,t3
   128bc:	00000013          	nop

00000000000128c0 <waitpid@plt>:
   128c0:	00014e17          	auipc	t3,0x14
   128c4:	770e3e03          	ld	t3,1904(t3) # 27030 <waitpid>
   128c8:	000e0367          	jalr	t1,t3
   128cc:	00000013          	nop

00000000000128d0 <getrlimit@plt>:
   128d0:	00014e17          	auipc	t3,0x14
   128d4:	768e3e03          	ld	t3,1896(t3) # 27038 <getrlimit>
   128d8:	000e0367          	jalr	t1,t3
   128dc:	00000013          	nop

00000000000128e0 <ioctl@plt>:
   128e0:	00014e17          	auipc	t3,0x14
   128e4:	760e3e03          	ld	t3,1888(t3) # 27040 <ioctl>
   128e8:	000e0367          	jalr	t1,t3
   128ec:	00000013          	nop

00000000000128f0 <strtok_r@plt>:
   128f0:	00014e17          	auipc	t3,0x14
   128f4:	758e3e03          	ld	t3,1880(t3) # 27048 <strtok_r>
   128f8:	000e0367          	jalr	t1,t3
   128fc:	00000013          	nop

0000000000012900 <getgid@plt>:
   12900:	00014e17          	auipc	t3,0x14
   12904:	750e3e03          	ld	t3,1872(t3) # 27050 <getgid>
   12908:	000e0367          	jalr	t1,t3
   1290c:	00000013          	nop

0000000000012910 <sysconf@plt>:
   12910:	00014e17          	auipc	t3,0x14
   12914:	748e3e03          	ld	t3,1864(t3) # 27058 <sysconf>
   12918:	000e0367          	jalr	t1,t3
   1291c:	00000013          	nop

0000000000012920 <printf@plt>:
   12920:	00014e17          	auipc	t3,0x14
   12924:	740e3e03          	ld	t3,1856(t3) # 27060 <printf>
   12928:	000e0367          	jalr	t1,t3
   1292c:	00000013          	nop

0000000000012930 <putc_unlocked@plt>:
   12930:	00014e17          	auipc	t3,0x14
   12934:	738e3e03          	ld	t3,1848(t3) # 27068 <putc_unlocked>
   12938:	000e0367          	jalr	t1,t3
   1293c:	00000013          	nop

0000000000012940 <strerror@plt>:
   12940:	00014e17          	auipc	t3,0x14
   12944:	730e3e03          	ld	t3,1840(t3) # 27070 <strerror>
   12948:	000e0367          	jalr	t1,t3
   1294c:	00000013          	nop

0000000000012950 <geteuid@plt>:
   12950:	00014e17          	auipc	t3,0x14
   12954:	728e3e03          	ld	t3,1832(t3) # 27078 <geteuid>
   12958:	000e0367          	jalr	t1,t3
   1295c:	00000013          	nop

0000000000012960 <strndup@plt>:
   12960:	00014e17          	auipc	t3,0x14
   12964:	720e3e03          	ld	t3,1824(t3) # 27080 <strndup>
   12968:	000e0367          	jalr	t1,t3
   1296c:	00000013          	nop

0000000000012970 <memmove@plt>:
   12970:	00014e17          	auipc	t3,0x14
   12974:	718e3e03          	ld	t3,1816(t3) # 27088 <memmove>
   12978:	000e0367          	jalr	t1,t3
   1297c:	00000013          	nop

0000000000012980 <getc_unlocked@plt>:
   12980:	00014e17          	auipc	t3,0x14
   12984:	710e3e03          	ld	t3,1808(t3) # 27090 <getc_unlocked>
   12988:	000e0367          	jalr	t1,t3
   1298c:	00000013          	nop

0000000000012990 <getgrgid@plt>:
   12990:	00014e17          	auipc	t3,0x14
   12994:	708e3e03          	ld	t3,1800(t3) # 27098 <getgrgid>
   12998:	000e0367          	jalr	t1,t3
   1299c:	00000013          	nop

00000000000129a0 <times@plt>:
   129a0:	00014e17          	auipc	t3,0x14
   129a4:	700e3e03          	ld	t3,1792(t3) # 270a0 <times>
   129a8:	000e0367          	jalr	t1,t3
   129ac:	00000013          	nop

00000000000129b0 <getenv@plt>:
   129b0:	00014e17          	auipc	t3,0x14
   129b4:	6f8e3e03          	ld	t3,1784(t3) # 270a8 <getenv>
   129b8:	000e0367          	jalr	t1,t3
   129bc:	00000013          	nop

00000000000129c0 <bsearch@plt>:
   129c0:	00014e17          	auipc	t3,0x14
   129c4:	6f0e3e03          	ld	t3,1776(t3) # 270b0 <bsearch>
   129c8:	000e0367          	jalr	t1,t3
   129cc:	00000013          	nop

00000000000129d0 <execve@plt>:
   129d0:	00014e17          	auipc	t3,0x14
   129d4:	6e8e3e03          	ld	t3,1768(t3) # 270b8 <execve>
   129d8:	000e0367          	jalr	t1,t3
   129dc:	00000013          	nop

00000000000129e0 <__libc_current_sigrtmax@plt>:
   129e0:	00014e17          	auipc	t3,0x14
   129e4:	6e0e3e03          	ld	t3,1760(t3) # 270c0 <__libc_current_sigrtmax>
   129e8:	000e0367          	jalr	t1,t3
   129ec:	00000013          	nop

00000000000129f0 <getpid@plt>:
   129f0:	00014e17          	auipc	t3,0x14
   129f4:	6d8e3e03          	ld	t3,1752(t3) # 270c8 <getpid>
   129f8:	000e0367          	jalr	t1,t3
   129fc:	00000013          	nop

0000000000012a00 <qsort@plt>:
   12a00:	00014e17          	auipc	t3,0x14
   12a04:	6d0e3e03          	ld	t3,1744(t3) # 270d0 <qsort>
   12a08:	000e0367          	jalr	t1,t3
   12a0c:	00000013          	nop

0000000000012a10 <memcpy@plt>:
   12a10:	00014e17          	auipc	t3,0x14
   12a14:	6c8e3e03          	ld	t3,1736(t3) # 270d8 <memcpy>
   12a18:	000e0367          	jalr	t1,t3
   12a1c:	00000013          	nop

0000000000012a20 <glob@plt>:
   12a20:	00014e17          	auipc	t3,0x14
   12a24:	6c0e3e03          	ld	t3,1728(t3) # 270e0 <glob>
   12a28:	000e0367          	jalr	t1,t3
   12a2c:	00000013          	nop

0000000000012a30 <readlink@plt>:
   12a30:	00014e17          	auipc	t3,0x14
   12a34:	6b8e3e03          	ld	t3,1720(t3) # 270e8 <readlink>
   12a38:	000e0367          	jalr	t1,t3
   12a3c:	00000013          	nop

0000000000012a40 <puts@plt>:
   12a40:	00014e17          	auipc	t3,0x14
   12a44:	6b0e3e03          	ld	t3,1712(t3) # 270f0 <puts>
   12a48:	000e0367          	jalr	t1,t3
   12a4c:	00000013          	nop

0000000000012a50 <dup2@plt>:
   12a50:	00014e17          	auipc	t3,0x14
   12a54:	6a8e3e03          	ld	t3,1704(t3) # 270f8 <dup2>
   12a58:	000e0367          	jalr	t1,t3
   12a5c:	00000013          	nop

0000000000012a60 <__libc_current_sigrtmin@plt>:
   12a60:	00014e17          	auipc	t3,0x14
   12a64:	6a0e3e03          	ld	t3,1696(t3) # 27100 <__libc_current_sigrtmin>
   12a68:	000e0367          	jalr	t1,t3
   12a6c:	00000013          	nop

0000000000012a70 <getuid@plt>:
   12a70:	00014e17          	auipc	t3,0x14
   12a74:	698e3e03          	ld	t3,1688(t3) # 27108 <getuid>
   12a78:	000e0367          	jalr	t1,t3
   12a7c:	00000013          	nop

0000000000012a80 <malloc@plt>:
   12a80:	00014e17          	auipc	t3,0x14
   12a84:	690e3e03          	ld	t3,1680(t3) # 27110 <malloc>
   12a88:	000e0367          	jalr	t1,t3
   12a8c:	00000013          	nop

0000000000012a90 <isatty@plt>:
   12a90:	00014e17          	auipc	t3,0x14
   12a94:	688e3e03          	ld	t3,1672(t3) # 27118 <isatty>
   12a98:	000e0367          	jalr	t1,t3
   12a9c:	00000013          	nop

0000000000012aa0 <endpwent@plt>:
   12aa0:	00014e17          	auipc	t3,0x14
   12aa4:	680e3e03          	ld	t3,1664(t3) # 27120 <endpwent>
   12aa8:	000e0367          	jalr	t1,t3
   12aac:	00000013          	nop

0000000000012ab0 <vsnprintf@plt>:
   12ab0:	00014e17          	auipc	t3,0x14
   12ab4:	678e3e03          	ld	t3,1656(t3) # 27128 <vsnprintf>
   12ab8:	000e0367          	jalr	t1,t3
   12abc:	00000013          	nop

0000000000012ac0 <strtoul@plt>:
   12ac0:	00014e17          	auipc	t3,0x14
   12ac4:	670e3e03          	ld	t3,1648(t3) # 27130 <strtoul>
   12ac8:	000e0367          	jalr	t1,t3
   12acc:	00000013          	nop

0000000000012ad0 <readdir@plt>:
   12ad0:	00014e17          	auipc	t3,0x14
   12ad4:	668e3e03          	ld	t3,1640(t3) # 27138 <readdir>
   12ad8:	000e0367          	jalr	t1,t3
   12adc:	00000013          	nop

0000000000012ae0 <fflush@plt>:
   12ae0:	00014e17          	auipc	t3,0x14
   12ae4:	660e3e03          	ld	t3,1632(t3) # 27140 <fflush>
   12ae8:	000e0367          	jalr	t1,t3
   12aec:	00000013          	nop

0000000000012af0 <lseek@plt>:
   12af0:	00014e17          	auipc	t3,0x14
   12af4:	658e3e03          	ld	t3,1624(t3) # 27148 <lseek>
   12af8:	000e0367          	jalr	t1,t3
   12afc:	00000013          	nop

0000000000012b00 <strncasecmp@plt>:
   12b00:	00014e17          	auipc	t3,0x14
   12b04:	650e3e03          	ld	t3,1616(t3) # 27150 <strncasecmp>
   12b08:	000e0367          	jalr	t1,t3
   12b0c:	00000013          	nop

0000000000012b10 <_init@plt>:
   12b10:	00014e17          	auipc	t3,0x14
   12b14:	648e3e03          	ld	t3,1608(t3) # 27158 <_init>
   12b18:	000e0367          	jalr	t1,t3
   12b1c:	00000013          	nop

0000000000012b20 <pipe@plt>:
   12b20:	00014e17          	auipc	t3,0x14
   12b24:	640e3e03          	ld	t3,1600(t3) # 27160 <pipe>
   12b28:	000e0367          	jalr	t1,t3
   12b2c:	00000013          	nop

0000000000012b30 <uname@plt>:
   12b30:	00014e17          	auipc	t3,0x14
   12b34:	638e3e03          	ld	t3,1592(t3) # 27168 <uname>
   12b38:	000e0367          	jalr	t1,t3
   12b3c:	00000013          	nop

0000000000012b40 <rename@plt>:
   12b40:	00014e17          	auipc	t3,0x14
   12b44:	630e3e03          	ld	t3,1584(t3) # 27170 <rename>
   12b48:	000e0367          	jalr	t1,t3
   12b4c:	00000013          	nop

0000000000012b50 <strrchr@plt>:
   12b50:	00014e17          	auipc	t3,0x14
   12b54:	628e3e03          	ld	t3,1576(t3) # 27178 <strrchr>
   12b58:	000e0367          	jalr	t1,t3
   12b5c:	00000013          	nop

0000000000012b60 <setrlimit@plt>:
   12b60:	00014e17          	auipc	t3,0x14
   12b64:	620e3e03          	ld	t3,1568(t3) # 27180 <setrlimit>
   12b68:	000e0367          	jalr	t1,t3
   12b6c:	00000013          	nop

0000000000012b70 <write@plt>:
   12b70:	00014e17          	auipc	t3,0x14
   12b74:	618e3e03          	ld	t3,1560(t3) # 27188 <write>
   12b78:	000e0367          	jalr	t1,t3
   12b7c:	00000013          	nop

0000000000012b80 <fstat@plt>:
   12b80:	00014e17          	auipc	t3,0x14
   12b84:	610e3e03          	ld	t3,1552(t3) # 27190 <fstat>
   12b88:	000e0367          	jalr	t1,t3
   12b8c:	00000013          	nop

0000000000012b90 <fprintf@plt>:
   12b90:	00014e17          	auipc	t3,0x14
   12b94:	608e3e03          	ld	t3,1544(t3) # 27198 <fprintf>
   12b98:	000e0367          	jalr	t1,t3
   12b9c:	00000013          	nop

0000000000012ba0 <fputs_unlocked@plt>:
   12ba0:	00014e17          	auipc	t3,0x14
   12ba4:	600e3e03          	ld	t3,1536(t3) # 271a0 <fputs_unlocked>
   12ba8:	000e0367          	jalr	t1,t3
   12bac:	00000013          	nop

0000000000012bb0 <setpwent@plt>:
   12bb0:	00014e17          	auipc	t3,0x14
   12bb4:	5f8e3e03          	ld	t3,1528(t3) # 271a8 <setpwent>
   12bb8:	000e0367          	jalr	t1,t3
   12bbc:	00000013          	nop

0000000000012bc0 <strcat@plt>:
   12bc0:	00014e17          	auipc	t3,0x14
   12bc4:	5f0e3e03          	ld	t3,1520(t3) # 271b0 <strcat>
   12bc8:	000e0367          	jalr	t1,t3
   12bcc:	00000013          	nop

0000000000012bd0 <vprintf@plt>:
   12bd0:	00014e17          	auipc	t3,0x14
   12bd4:	5e8e3e03          	ld	t3,1512(t3) # 271b8 <vprintf>
   12bd8:	000e0367          	jalr	t1,t3
   12bdc:	00000013          	nop

0000000000012be0 <chdir@plt>:
   12be0:	00014e17          	auipc	t3,0x14
   12be4:	5e0e3e03          	ld	t3,1504(t3) # 271c0 <chdir>
   12be8:	000e0367          	jalr	t1,t3
   12bec:	00000013          	nop

0000000000012bf0 <umask@plt>:
   12bf0:	00014e17          	auipc	t3,0x14
   12bf4:	5d8e3e03          	ld	t3,1496(t3) # 271c8 <umask>
   12bf8:	000e0367          	jalr	t1,t3
   12bfc:	00000013          	nop

0000000000012c00 <dprintf@plt>:
   12c00:	00014e17          	auipc	t3,0x14
   12c04:	5d0e3e03          	ld	t3,1488(t3) # 271d0 <dprintf>
   12c08:	000e0367          	jalr	t1,t3
   12c0c:	00000013          	nop

0000000000012c10 <lstat@plt>:
   12c10:	00014e17          	auipc	t3,0x14
   12c14:	5c8e3e03          	ld	t3,1480(t3) # 271d8 <lstat>
   12c18:	000e0367          	jalr	t1,t3
   12c1c:	00000013          	nop

0000000000012c20 <strstr@plt>:
   12c20:	00014e17          	auipc	t3,0x14
   12c24:	5c0e3e03          	ld	t3,1472(t3) # 271e0 <strstr>
   12c28:	000e0367          	jalr	t1,t3
   12c2c:	00000013          	nop

0000000000012c30 <setgid@plt>:
   12c30:	00014e17          	auipc	t3,0x14
   12c34:	5b8e3e03          	ld	t3,1464(t3) # 271e8 <setgid>
   12c38:	000e0367          	jalr	t1,t3
   12c3c:	00000013          	nop

0000000000012c40 <signal@plt>:
   12c40:	00014e17          	auipc	t3,0x14
   12c44:	5b0e3e03          	ld	t3,1456(t3) # 271f0 <signal>
   12c48:	000e0367          	jalr	t1,t3
   12c4c:	00000013          	nop

0000000000012c50 <read@plt>:
   12c50:	00014e17          	auipc	t3,0x14
   12c54:	5a8e3e03          	ld	t3,1448(t3) # 271f8 <read>
   12c58:	000e0367          	jalr	t1,t3
   12c5c:	00000013          	nop

0000000000012c60 <strncmp@plt>:
   12c60:	00014e17          	auipc	t3,0x14
   12c64:	5a0e3e03          	ld	t3,1440(t3) # 27200 <strncmp>
   12c68:	000e0367          	jalr	t1,t3
   12c6c:	00000013          	nop

0000000000012c70 <strncpy@plt>:
   12c70:	00014e17          	auipc	t3,0x14
   12c74:	598e3e03          	ld	t3,1432(t3) # 27208 <strncpy>
   12c78:	000e0367          	jalr	t1,t3
   12c7c:	00000013          	nop

0000000000012c80 <strcasecmp@plt>:
   12c80:	00014e17          	auipc	t3,0x14
   12c84:	590e3e03          	ld	t3,1424(t3) # 27210 <strcasecmp>
   12c88:	000e0367          	jalr	t1,t3
   12c8c:	00000013          	nop

0000000000012c90 <realloc@plt>:
   12c90:	00014e17          	auipc	t3,0x14
   12c94:	588e3e03          	ld	t3,1416(t3) # 27218 <realloc>
   12c98:	000e0367          	jalr	t1,t3
   12c9c:	00000013          	nop

0000000000012ca0 <sigfillset@plt>:
   12ca0:	00014e17          	auipc	t3,0x14
   12ca4:	580e3e03          	ld	t3,1408(t3) # 27220 <sigfillset>
   12ca8:	000e0367          	jalr	t1,t3
   12cac:	00000013          	nop

0000000000012cb0 <memcmp@plt>:
   12cb0:	00014e17          	auipc	t3,0x14
   12cb4:	578e3e03          	ld	t3,1400(t3) # 27228 <memcmp>
   12cb8:	000e0367          	jalr	t1,t3
   12cbc:	00000013          	nop

0000000000012cc0 <fdopen@plt>:
   12cc0:	00014e17          	auipc	t3,0x14
   12cc4:	570e3e03          	ld	t3,1392(t3) # 27230 <fdopen>
   12cc8:	000e0367          	jalr	t1,t3
   12ccc:	00000013          	nop

0000000000012cd0 <fork@plt>:
   12cd0:	00014e17          	auipc	t3,0x14
   12cd4:	568e3e03          	ld	t3,1384(t3) # 27238 <fork>
   12cd8:	000e0367          	jalr	t1,t3
   12cdc:	00000013          	nop

0000000000012ce0 <setresuid@plt>:
   12ce0:	00014e17          	auipc	t3,0x14
   12ce4:	560e3e03          	ld	t3,1376(t3) # 27240 <setresuid>
   12ce8:	000e0367          	jalr	t1,t3
   12cec:	00000013          	nop

0000000000012cf0 <sigaction@plt>:
   12cf0:	00014e17          	auipc	t3,0x14
   12cf4:	558e3e03          	ld	t3,1368(t3) # 27248 <sigaction>
   12cf8:	000e0367          	jalr	t1,t3
   12cfc:	00000013          	nop

0000000000012d00 <strdup@plt>:
   12d00:	00014e17          	auipc	t3,0x14
   12d04:	550e3e03          	ld	t3,1360(t3) # 27250 <strdup>
   12d08:	000e0367          	jalr	t1,t3
   12d0c:	00000013          	nop

0000000000012d10 <strtoull@plt>:
   12d10:	00014e17          	auipc	t3,0x14
   12d14:	548e3e03          	ld	t3,1352(t3) # 27258 <strtoull>
   12d18:	000e0367          	jalr	t1,t3
   12d1c:	00000013          	nop

0000000000012d20 <symlink@plt>:
   12d20:	00014e17          	auipc	t3,0x14
   12d24:	540e3e03          	ld	t3,1344(t3) # 27260 <symlink>
   12d28:	000e0367          	jalr	t1,t3
   12d2c:	00000013          	nop

0000000000012d30 <fopen@plt>:
   12d30:	00014e17          	auipc	t3,0x14
   12d34:	538e3e03          	ld	t3,1336(t3) # 27268 <fopen>
   12d38:	000e0367          	jalr	t1,t3
   12d3c:	00000013          	nop

0000000000012d40 <getopt@plt>:
   12d40:	00014e17          	auipc	t3,0x14
   12d44:	530e3e03          	ld	t3,1328(t3) # 27270 <getopt>
   12d48:	000e0367          	jalr	t1,t3
   12d4c:	00000013          	nop

0000000000012d50 <localtime@plt>:
   12d50:	00014e17          	auipc	t3,0x14
   12d54:	528e3e03          	ld	t3,1320(t3) # 27278 <localtime>
   12d58:	000e0367          	jalr	t1,t3
   12d5c:	00000013          	nop

0000000000012d60 <memset@plt>:
   12d60:	00014e17          	auipc	t3,0x14
   12d64:	520e3e03          	ld	t3,1312(t3) # 27280 <memset>
   12d68:	000e0367          	jalr	t1,t3
   12d6c:	00000013          	nop

0000000000012d70 <fnmatch@plt>:
   12d70:	00014e17          	auipc	t3,0x14
   12d74:	518e3e03          	ld	t3,1304(t3) # 27288 <fnmatch>
   12d78:	000e0367          	jalr	t1,t3
   12d7c:	00000013          	nop

0000000000012d80 <clearerr@plt>:
   12d80:	00014e17          	auipc	t3,0x14
   12d84:	510e3e03          	ld	t3,1296(t3) # 27290 <clearerr>
   12d88:	000e0367          	jalr	t1,t3
   12d8c:	00000013          	nop

0000000000012d90 <fclose@plt>:
   12d90:	00014e17          	auipc	t3,0x14
   12d94:	508e3e03          	ld	t3,1288(t3) # 27298 <fclose>
   12d98:	000e0367          	jalr	t1,t3
   12d9c:	00000013          	nop

0000000000012da0 <getppid@plt>:
   12da0:	00014e17          	auipc	t3,0x14
   12da4:	500e3e03          	ld	t3,1280(t3) # 272a0 <getppid>
   12da8:	000e0367          	jalr	t1,t3
   12dac:	00000013          	nop

0000000000012db0 <tcgetattr@plt>:
   12db0:	00014e17          	auipc	t3,0x14
   12db4:	4f8e3e03          	ld	t3,1272(t3) # 272a8 <tcgetattr>
   12db8:	000e0367          	jalr	t1,t3
   12dbc:	00000013          	nop

0000000000012dc0 <time@plt>:
   12dc0:	00014e17          	auipc	t3,0x14
   12dc4:	4f0e3e03          	ld	t3,1264(t3) # 272b0 <time>
   12dc8:	000e0367          	jalr	t1,t3
   12dcc:	00000013          	nop

0000000000012dd0 <opendir@plt>:
   12dd0:	00014e17          	auipc	t3,0x14
   12dd4:	4e8e3e03          	ld	t3,1256(t3) # 272b8 <opendir>
   12dd8:	000e0367          	jalr	t1,t3
   12ddc:	00000013          	nop

0000000000012de0 <poll@plt>:
   12de0:	00014e17          	auipc	t3,0x14
   12de4:	4e0e3e03          	ld	t3,1248(t3) # 272c0 <poll>
   12de8:	000e0367          	jalr	t1,t3
   12dec:	00000013          	nop

0000000000012df0 <strcmp@plt>:
   12df0:	00014e17          	auipc	t3,0x14
   12df4:	4d8e3e03          	ld	t3,1240(t3) # 272c8 <strcmp>
   12df8:	000e0367          	jalr	t1,t3
   12dfc:	00000013          	nop

0000000000012e00 <getpwuid@plt>:
   12e00:	00014e17          	auipc	t3,0x14
   12e04:	4d0e3e03          	ld	t3,1232(t3) # 272d0 <getpwuid>
   12e08:	000e0367          	jalr	t1,t3
   12e0c:	00000013          	nop

0000000000012e10 <getcwd@plt>:
   12e10:	00014e17          	auipc	t3,0x14
   12e14:	4c8e3e03          	ld	t3,1224(t3) # 272d8 <getcwd>
   12e18:	000e0367          	jalr	t1,t3
   12e1c:	00000013          	nop

0000000000012e20 <strsignal@plt>:
   12e20:	00014e17          	auipc	t3,0x14
   12e24:	4c0e3e03          	ld	t3,1216(t3) # 272e0 <strsignal>
   12e28:	000e0367          	jalr	t1,t3
   12e2c:	00000013          	nop

0000000000012e30 <getpwnam@plt>:
   12e30:	00014e17          	auipc	t3,0x14
   12e34:	4b8e3e03          	ld	t3,1208(t3) # 272e8 <getpwnam>
   12e38:	000e0367          	jalr	t1,t3
   12e3c:	00000013          	nop

0000000000012e40 <_fini@plt>:
   12e40:	00014e17          	auipc	t3,0x14
   12e44:	4b0e3e03          	ld	t3,1200(t3) # 272f0 <_fini>
   12e48:	000e0367          	jalr	t1,t3
   12e4c:	00000013          	nop

0000000000012e50 <sprintf@plt>:
   12e50:	00014e17          	auipc	t3,0x14
   12e54:	4a8e3e03          	ld	t3,1192(t3) # 272f8 <sprintf>
   12e58:	000e0367          	jalr	t1,t3
   12e5c:	00000013          	nop

0000000000012e60 <strcspn@plt>:
   12e60:	00014e17          	auipc	t3,0x14
   12e64:	4a0e3e03          	ld	t3,1184(t3) # 27300 <strcspn>
   12e68:	000e0367          	jalr	t1,t3
   12e6c:	00000013          	nop

0000000000012e70 <putchar_unlocked@plt>:
   12e70:	00014e17          	auipc	t3,0x14
   12e74:	498e3e03          	ld	t3,1176(t3) # 27308 <putchar_unlocked>
   12e78:	000e0367          	jalr	t1,t3
   12e7c:	00000013          	nop

0000000000012e80 <feof_unlocked@plt>:
   12e80:	00014e17          	auipc	t3,0x14
   12e84:	490e3e03          	ld	t3,1168(t3) # 27310 <feof_unlocked>
   12e88:	000e0367          	jalr	t1,t3
   12e8c:	00000013          	nop

0000000000012e90 <globfree@plt>:
   12e90:	00014e17          	auipc	t3,0x14
   12e94:	488e3e03          	ld	t3,1160(t3) # 27318 <globfree>
   12e98:	000e0367          	jalr	t1,t3
   12e9c:	00000013          	nop

0000000000012ea0 <setresgid@plt>:
   12ea0:	00014e17          	auipc	t3,0x14
   12ea4:	480e3e03          	ld	t3,1152(t3) # 27320 <setresgid>
   12ea8:	000e0367          	jalr	t1,t3
   12eac:	00000013          	nop

0000000000012eb0 <strftime@plt>:
   12eb0:	00014e17          	auipc	t3,0x14
   12eb4:	478e3e03          	ld	t3,1144(t3) # 27328 <strftime>
   12eb8:	000e0367          	jalr	t1,t3
   12ebc:	00000013          	nop

0000000000012ec0 <stat@plt>:
   12ec0:	00014e17          	auipc	t3,0x14
   12ec4:	470e3e03          	ld	t3,1136(t3) # 27330 <stat>
   12ec8:	000e0367          	jalr	t1,t3
   12ecc:	00000013          	nop

0000000000012ed0 <__errno_location@plt>:
   12ed0:	00014e17          	auipc	t3,0x14
   12ed4:	468e3e03          	ld	t3,1128(t3) # 27338 <__errno_location>
   12ed8:	000e0367          	jalr	t1,t3
   12edc:	00000013          	nop

0000000000012ee0 <link@plt>:
   12ee0:	00014e17          	auipc	t3,0x14
   12ee4:	460e3e03          	ld	t3,1120(t3) # 27340 <link>
   12ee8:	000e0367          	jalr	t1,t3
   12eec:	00000013          	nop

0000000000012ef0 <exit@plt>:
   12ef0:	00014e17          	auipc	t3,0x14
   12ef4:	458e3e03          	ld	t3,1112(t3) # 27348 <exit>
   12ef8:	000e0367          	jalr	t1,t3
   12efc:	00000013          	nop

0000000000012f00 <getgrnam@plt>:
   12f00:	00014e17          	auipc	t3,0x14
   12f04:	450e3e03          	ld	t3,1104(t3) # 27350 <getgrnam>
   12f08:	000e0367          	jalr	t1,t3
   12f0c:	00000013          	nop

0000000000012f10 <atoi@plt>:
   12f10:	00014e17          	auipc	t3,0x14
   12f14:	448e3e03          	ld	t3,1096(t3) # 27358 <atoi>
   12f18:	000e0367          	jalr	t1,t3
   12f1c:	00000013          	nop

0000000000012f20 <ferror_unlocked@plt>:
   12f20:	00014e17          	auipc	t3,0x14
   12f24:	440e3e03          	ld	t3,1088(t3) # 27360 <ferror_unlocked>
   12f28:	000e0367          	jalr	t1,t3
   12f2c:	00000013          	nop

0000000000012f30 <fgets_unlocked@plt>:
   12f30:	00014e17          	auipc	t3,0x14
   12f34:	438e3e03          	ld	t3,1080(t3) # 27368 <fgets_unlocked>
   12f38:	000e0367          	jalr	t1,t3
   12f3c:	00000013          	nop

0000000000012f40 <_exit@plt>:
   12f40:	00014e17          	auipc	t3,0x14
   12f44:	430e3e03          	ld	t3,1072(t3) # 27370 <_exit>
   12f48:	000e0367          	jalr	t1,t3
   12f4c:	00000013          	nop

0000000000012f50 <getpwent@plt>:
   12f50:	00014e17          	auipc	t3,0x14
   12f54:	428e3e03          	ld	t3,1064(t3) # 27378 <getpwent>
   12f58:	000e0367          	jalr	t1,t3
   12f5c:	00000013          	nop

0000000000012f60 <__libc_start_main@plt>:
   12f60:	00014e17          	auipc	t3,0x14
   12f64:	420e3e03          	ld	t3,1056(t3) # 27380 <__libc_start_main>
   12f68:	000e0367          	jalr	t1,t3
   12f6c:	00000013          	nop

0000000000012f70 <strlen@plt>:
   12f70:	00014e17          	auipc	t3,0x14
   12f74:	418e3e03          	ld	t3,1048(t3) # 27388 <strlen>
   12f78:	000e0367          	jalr	t1,t3
   12f7c:	00000013          	nop

0000000000012f80 <open@plt>:
   12f80:	00014e17          	auipc	t3,0x14
   12f84:	410e3e03          	ld	t3,1040(t3) # 27390 <open>
   12f88:	000e0367          	jalr	t1,t3
   12f8c:	00000013          	nop

0000000000012f90 <strchr@plt>:
   12f90:	00014e17          	auipc	t3,0x14
   12f94:	408e3e03          	ld	t3,1032(t3) # 27398 <strchr>
   12f98:	000e0367          	jalr	t1,t3
   12f9c:	00000013          	nop

0000000000012fa0 <closedir@plt>:
   12fa0:	00014e17          	auipc	t3,0x14
   12fa4:	400e3e03          	ld	t3,1024(t3) # 273a0 <closedir>
   12fa8:	000e0367          	jalr	t1,t3
   12fac:	00000013          	nop

0000000000012fb0 <vasprintf@plt>:
   12fb0:	00014e17          	auipc	t3,0x14
   12fb4:	3f8e3e03          	ld	t3,1016(t3) # 273a8 <vasprintf>
   12fb8:	000e0367          	jalr	t1,t3
   12fbc:	00000013          	nop

0000000000012fc0 <strchrnul@plt>:
   12fc0:	00014e17          	auipc	t3,0x14
   12fc4:	3f0e3e03          	ld	t3,1008(t3) # 273b0 <strchrnul>
   12fc8:	000e0367          	jalr	t1,t3
   12fcc:	00000013          	nop

0000000000012fd0 <fcntl@plt>:
   12fd0:	00014e17          	auipc	t3,0x14
   12fd4:	3e8e3e03          	ld	t3,1000(t3) # 273b8 <fcntl>
   12fd8:	000e0367          	jalr	t1,t3
   12fdc:	00000013          	nop

0000000000012fe0 <setuid@plt>:
   12fe0:	00014e17          	auipc	t3,0x14
   12fe4:	3e0e3e03          	ld	t3,992(t3) # 273c0 <setuid>
   12fe8:	000e0367          	jalr	t1,t3
   12fec:	00000013          	nop

0000000000012ff0 <tcsetattr@plt>:
   12ff0:	00014e17          	auipc	t3,0x14
   12ff4:	3d8e3e03          	ld	t3,984(t3) # 273c8 <tcsetattr>
   12ff8:	000e0367          	jalr	t1,t3
   12ffc:	00000013          	nop

0000000000013000 <close@plt>:
   13000:	00014e17          	auipc	t3,0x14
   13004:	3d0e3e03          	ld	t3,976(t3) # 273d0 <close>
   13008:	000e0367          	jalr	t1,t3
   1300c:	00000013          	nop

0000000000013010 <vfprintf@plt>:
   13010:	00014e17          	auipc	t3,0x14
   13014:	3c8e3e03          	ld	t3,968(t3) # 273d8 <vfprintf>
   13018:	000e0367          	jalr	t1,t3
   1301c:	00000013          	nop

0000000000013020 <strpbrk@plt>:
   13020:	00014e17          	auipc	t3,0x14
   13024:	3c0e3e03          	ld	t3,960(t3) # 273e0 <strpbrk>
   13028:	000e0367          	jalr	t1,t3
   1302c:	00000013          	nop

0000000000013030 <sigsuspend@plt>:
   13030:	00014e17          	auipc	t3,0x14
   13034:	3b8e3e03          	ld	t3,952(t3) # 273e8 <sigsuspend>
   13038:	000e0367          	jalr	t1,t3
   1303c:	00000013          	nop

0000000000013040 <raise@plt>:
   13040:	00014e17          	auipc	t3,0x14
   13044:	3b0e3e03          	ld	t3,944(t3) # 273f0 <raise>
   13048:	000e0367          	jalr	t1,t3
   1304c:	00000013          	nop

0000000000013050 <free@plt>:
   13050:	00014e17          	auipc	t3,0x14
   13054:	3a8e3e03          	ld	t3,936(t3) # 273f8 <free>
   13058:	000e0367          	jalr	t1,t3
   1305c:	00000013          	nop

0000000000013060 <sigprocmask@plt>:
   13060:	00014e17          	auipc	t3,0x14
   13064:	3a0e3e03          	ld	t3,928(t3) # 27400 <sigprocmask>
   13068:	000e0367          	jalr	t1,t3
   1306c:	00000013          	nop

Disassembly of section .text:

0000000000013070 <.text>:
   13070:	00014197          	auipc	gp,0x14
   13074:	79018193          	addi	gp,gp,1936 # 27800 <optind+0x230>
   13078:	00010513          	mv	a0,sp
   1307c:	00014597          	auipc	a1,0x14
   13080:	dd458593          	addi	a1,a1,-556 # 26e50 <stderr+0x8>
   13084:	ff017113          	andi	sp,sp,-16
   13088:	0040006f          	j	1308c <sigprocmask@plt+0x2c>
   1308c:	00052583          	lw	a1,0(a0)
   13090:	00013737          	lui	a4,0x13
   13094:	000136b7          	lui	a3,0x13
   13098:	00850613          	addi	a2,a0,8
   1309c:	00014537          	lui	a0,0x14
   130a0:	00000793          	li	a5,0
   130a4:	e4070713          	addi	a4,a4,-448 # 12e40 <_fini@plt>
   130a8:	b1068693          	addi	a3,a3,-1264 # 12b10 <_init@plt>
   130ac:	af450513          	addi	a0,a0,-1292 # 13af4 <sigprocmask@plt+0xa94>
   130b0:	eb1ff06f          	j	12f60 <__libc_start_main@plt>
   130b4:	00027537          	lui	a0,0x27
   130b8:	000277b7          	lui	a5,0x27
   130bc:	00050713          	mv	a4,a0
   130c0:	00078793          	mv	a5,a5
   130c4:	00e78a63          	beq	a5,a4,130d8 <sigprocmask@plt+0x78>
   130c8:	00000793          	li	a5,0
   130cc:	00078663          	beqz	a5,130d8 <sigprocmask@plt+0x78>
   130d0:	00050513          	mv	a0,a0
   130d4:	00078067          	jr	a5 # 27000 <stderr+0x1b8>
   130d8:	00008067          	ret
   130dc:	000277b7          	lui	a5,0x27
   130e0:	00027537          	lui	a0,0x27
   130e4:	00078593          	mv	a1,a5
   130e8:	00050793          	mv	a5,a0
   130ec:	40f585b3          	sub	a1,a1,a5
   130f0:	4035d593          	srai	a1,a1,0x3
   130f4:	00200793          	li	a5,2
   130f8:	02f5c5b3          	div	a1,a1,a5
   130fc:	00058a63          	beqz	a1,13110 <sigprocmask@plt+0xb0>
   13100:	00000793          	li	a5,0
   13104:	00078663          	beqz	a5,13110 <sigprocmask@plt+0xb0>
   13108:	00050513          	mv	a0,a0
   1310c:	00078067          	jr	a5 # 27000 <stderr+0x1b8>
   13110:	00008067          	ret
   13114:	dd81c703          	lbu	a4,-552(gp)
   13118:	04071463          	bnez	a4,13160 <sigprocmask@plt+0x100>
   1311c:	ff010113          	addi	sp,sp,-16
   13120:	00813023          	sd	s0,0(sp)
   13124:	00113423          	sd	ra,8(sp)
   13128:	00078413          	mv	s0,a5
   1312c:	f89ff0ef          	jal	ra,130b4 <sigprocmask@plt+0x54>
   13130:	00000793          	li	a5,0
   13134:	00078a63          	beqz	a5,13148 <sigprocmask@plt+0xe8>
   13138:	00025537          	lui	a0,0x25
   1313c:	35c50513          	addi	a0,a0,860 # 2535c <sigprocmask@plt+0x122fc>
   13140:	00000097          	auipc	ra,0x0
   13144:	000000e7          	jalr	zero # 0 <longjmp@plt-0x12880>
   13148:	00100793          	li	a5,1
   1314c:	00813083          	ld	ra,8(sp)
   13150:	dcf18c23          	sb	a5,-552(gp)
   13154:	00013403          	ld	s0,0(sp)
   13158:	01010113          	addi	sp,sp,16
   1315c:	00008067          	ret
   13160:	00008067          	ret
   13164:	00000793          	li	a5,0
   13168:	02078463          	beqz	a5,13190 <sigprocmask@plt+0x130>
   1316c:	00025537          	lui	a0,0x25
   13170:	ff010113          	addi	sp,sp,-16
   13174:	de018593          	addi	a1,gp,-544
   13178:	35c50513          	addi	a0,a0,860 # 2535c <sigprocmask@plt+0x122fc>
   1317c:	00113423          	sd	ra,8(sp)
   13180:	00000097          	auipc	ra,0x0
   13184:	000000e7          	jalr	zero # 0 <longjmp@plt-0x12880>
   13188:	00813083          	ld	ra,8(sp)
   1318c:	01010113          	addi	sp,sp,16
   13190:	f4dff06f          	j	130dc <sigprocmask@plt+0x7c>
   13194:	01700713          	li	a4,23
   13198:	00400693          	li	a3,4
   1319c:	00b57c63          	bgeu	a0,a1,131b4 <sigprocmask@plt+0x154>
   131a0:	fff5c783          	lbu	a5,-1(a1)
   131a4:	ff77879b          	addiw	a5,a5,-9
   131a8:	0ff7f793          	andi	a5,a5,255
   131ac:	00e78863          	beq	a5,a4,131bc <sigprocmask@plt+0x15c>
   131b0:	00f6f663          	bgeu	a3,a5,131bc <sigprocmask@plt+0x15c>
   131b4:	00058023          	sb	zero,0(a1)
   131b8:	4750006f          	j	13e2c <sigprocmask@plt+0xdcc>
   131bc:	fff58593          	addi	a1,a1,-1
   131c0:	fddff06f          	j	1319c <sigprocmask@plt+0x13c>
   131c4:	00050793          	mv	a5,a0
   131c8:	0007b703          	ld	a4,0(a5)
   131cc:	00071a63          	bnez	a4,131e0 <sigprocmask@plt+0x180>
   131d0:	40a78533          	sub	a0,a5,a0
   131d4:	40355513          	srai	a0,a0,0x3
   131d8:	0005051b          	sext.w	a0,a0
   131dc:	00008067          	ret
   131e0:	00878793          	addi	a5,a5,8
   131e4:	fe5ff06f          	j	131c8 <sigprocmask@plt+0x168>
   131e8:	00050693          	mv	a3,a0
   131ec:	c2418793          	addi	a5,gp,-988
   131f0:	0007c703          	lbu	a4,0(a5)
   131f4:	0006c603          	lbu	a2,0(a3)
   131f8:	00e61a63          	bne	a2,a4,1320c <sigprocmask@plt+0x1ac>
   131fc:	00168693          	addi	a3,a3,1
   13200:	02060863          	beqz	a2,13230 <sigprocmask@plt+0x1d0>
   13204:	00178793          	addi	a5,a5,1
   13208:	fe9ff06f          	j	131f0 <sigprocmask@plt+0x190>
   1320c:	00178793          	addi	a5,a5,1
   13210:	02070663          	beqz	a4,1323c <sigprocmask@plt+0x1dc>
   13214:	0007c703          	lbu	a4,0(a5)
   13218:	ff5ff06f          	j	1320c <sigprocmask@plt+0x1ac>
   1321c:	00150513          	addi	a0,a0,1
   13220:	00069c63          	bnez	a3,13238 <sigprocmask@plt+0x1d8>
   13224:	00100513          	li	a0,1
   13228:	0005051b          	sext.w	a0,a0
   1322c:	00008067          	ret
   13230:	00000513          	li	a0,0
   13234:	ff5ff06f          	j	13228 <sigprocmask@plt+0x1c8>
   13238:	00178793          	addi	a5,a5,1
   1323c:	0007c703          	lbu	a4,0(a5)
   13240:	00054683          	lbu	a3,0(a0)
   13244:	fce68ce3          	beq	a3,a4,1321c <sigprocmask@plt+0x1bc>
   13248:	00178793          	addi	a5,a5,1
   1324c:	00071663          	bnez	a4,13258 <sigprocmask@plt+0x1f8>
   13250:	fff00513          	li	a0,-1
   13254:	00008067          	ret
   13258:	0007c703          	lbu	a4,0(a5)
   1325c:	fedff06f          	j	13248 <sigprocmask@plt+0x1e8>
   13260:	fe010113          	addi	sp,sp,-32
   13264:	00913423          	sd	s1,8(sp)
   13268:	c901b503          	ld	a0,-880(gp)
   1326c:	00113c23          	sd	ra,24(sp)
   13270:	00813823          	sd	s0,16(sp)
   13274:	f75ff0ef          	jal	ra,131e8 <sigprocmask@plt+0x188>
   13278:	04055863          	bgez	a0,132c8 <sigprocmask@plt+0x268>
   1327c:	6d9000ef          	jal	ra,14154 <sigprocmask@plt+0x10f4>
   13280:	00044783          	lbu	a5,0(s0)
   13284:	00140413          	addi	s0,s0,1
   13288:	fe079ce3          	bnez	a5,13280 <sigprocmask@plt+0x220>
   1328c:	fff5051b          	addiw	a0,a0,-1
   13290:	fe0518e3          	bnez	a0,13280 <sigprocmask@plt+0x220>
   13294:	00025537          	lui	a0,0x25
   13298:	efd50513          	addi	a0,a0,-259 # 24efd <sigprocmask@plt+0x11e9d>
   1329c:	7c1000ef          	jal	ra,1425c <sigprocmask@plt+0x11fc>
   132a0:	00023537          	lui	a0,0x23
   132a4:	71850513          	addi	a0,a0,1816 # 23718 <sigprocmask@plt+0x106b8>
   132a8:	7b5000ef          	jal	ra,1425c <sigprocmask@plt+0x11fc>
   132ac:	00044703          	lbu	a4,0(s0)
   132b0:	00800793          	li	a5,8
   132b4:	02f71263          	bne	a4,a5,132d8 <sigprocmask@plt+0x278>
   132b8:	00023537          	lui	a0,0x23
   132bc:	73050513          	addi	a0,a0,1840 # 23730 <sigprocmask@plt+0x106d0>
   132c0:	79d000ef          	jal	ra,1425c <sigprocmask@plt+0x11fc>
   132c4:	fb9ff06f          	j	1327c <sigprocmask@plt+0x21c>
   132c8:	00025437          	lui	s0,0x25
   132cc:	c9018493          	addi	s1,gp,-880
   132d0:	dfd40413          	addi	s0,s0,-515 # 24dfd <sigprocmask@plt+0x11d9d>
   132d4:	fbdff06f          	j	13290 <sigprocmask@plt+0x230>
   132d8:	00023537          	lui	a0,0x23
   132dc:	74850513          	addi	a0,a0,1864 # 23748 <sigprocmask@plt+0x106e8>
   132e0:	77d000ef          	jal	ra,1425c <sigprocmask@plt+0x11fc>
   132e4:	0004b503          	ld	a0,0(s1)
   132e8:	775000ef          	jal	ra,1425c <sigprocmask@plt+0x11fc>
   132ec:	00044783          	lbu	a5,0(s0)
   132f0:	02078063          	beqz	a5,13310 <sigprocmask@plt+0x2b0>
   132f4:	00a00713          	li	a4,10
   132f8:	00e78863          	beq	a5,a4,13308 <sigprocmask@plt+0x2a8>
   132fc:	00024537          	lui	a0,0x24
   13300:	c0050513          	addi	a0,a0,-1024 # 23c00 <sigprocmask@plt+0x10ba0>
   13304:	759000ef          	jal	ra,1425c <sigprocmask@plt+0x11fc>
   13308:	00040513          	mv	a0,s0
   1330c:	751000ef          	jal	ra,1425c <sigprocmask@plt+0x11fc>
   13310:	00024537          	lui	a0,0x24
   13314:	bd850513          	addi	a0,a0,-1064 # 23bd8 <sigprocmask@plt+0x10b78>
   13318:	fa9ff06f          	j	132c0 <sigprocmask@plt+0x260>
   1331c:	e0010113          	addi	sp,sp,-512
   13320:	1e113c23          	sd	ra,504(sp)
   13324:	1e813823          	sd	s0,496(sp)
   13328:	1e913423          	sd	s1,488(sp)
   1332c:	1f213023          	sd	s2,480(sp)
   13330:	1d313c23          	sd	s3,472(sp)
   13334:	1d413823          	sd	s4,464(sp)
   13338:	1d513423          	sd	s5,456(sp)
   1333c:	1d613023          	sd	s6,448(sp)
   13340:	1b713c23          	sd	s7,440(sp)
   13344:	1b813823          	sd	s8,432(sp)
   13348:	1b913423          	sd	s9,424(sp)
   1334c:	1ba13023          	sd	s10,416(sp)
   13350:	19b13c23          	sd	s11,408(sp)
   13354:	f1cff0ef          	jal	ra,12a70 <getuid@plt>
   13358:	0005051b          	sext.w	a0,a0
   1335c:	d8a1a023          	sw	a0,-640(gp)
   13360:	08050a63          	beqz	a0,133f4 <sigprocmask@plt+0x394>
   13364:	000259b7          	lui	s3,0x25
   13368:	01010593          	addi	a1,sp,16
   1336c:	dde98513          	addi	a0,s3,-546 # 24dde <sigprocmask@plt+0x11d7e>
   13370:	b51ff0ef          	jal	ra,12ec0 <stat@plt>
   13374:	00050a93          	mv	s5,a0
   13378:	06051e63          	bnez	a0,133f4 <sigprocmask@plt+0x394>
   1337c:	02012483          	lw	s1,32(sp)
   13380:	0000f7b7          	lui	a5,0xf
   13384:	00008737          	lui	a4,0x8
   13388:	00f4f7b3          	and	a5,s1,a5
   1338c:	06e79463          	bne	a5,a4,133f4 <sigprocmask@plt+0x394>
   13390:	02812783          	lw	a5,40(sp)
   13394:	0124f493          	andi	s1,s1,18
   13398:	00f4e4b3          	or	s1,s1,a5
   1339c:	04049c63          	bnez	s1,133f4 <sigprocmask@plt+0x394>
   133a0:	dde98513          	addi	a0,s3,-546
   133a4:	599000ef          	jal	ra,1413c <sigprocmask@plt+0x10dc>
   133a8:	00050913          	mv	s2,a0
   133ac:	04050463          	beqz	a0,133f4 <sigprocmask@plt+0x394>
   133b0:	00100713          	li	a4,1
   133b4:	00025bb7          	lui	s7,0x25
   133b8:	00025b37          	lui	s6,0x25
   133bc:	dae18c23          	sb	a4,-584(gp)
   133c0:	00000413          	li	s0,0
   133c4:	05b00c13          	li	s8,91
   133c8:	df0b8c93          	addi	s9,s7,-528 # 24df0 <sigprocmask@plt+0x11d90>
   133cc:	d90b0b13          	addi	s6,s6,-624 # 24d90 <sigprocmask@plt+0x11d30>
   133d0:	00023d37          	lui	s10,0x23
   133d4:	00090613          	mv	a2,s2
   133d8:	10000593          	li	a1,256
   133dc:	09010513          	addi	a0,sp,144
   133e0:	b51ff0ef          	jal	ra,12f30 <fgets_unlocked@plt>
   133e4:	04051663          	bnez	a0,13430 <sigprocmask@plt+0x3d0>
   133e8:	00090513          	mv	a0,s2
   133ec:	9a5ff0ef          	jal	ra,12d90 <fclose@plt>
   133f0:	c881bc23          	sd	s0,-872(gp)
   133f4:	1f813083          	ld	ra,504(sp)
   133f8:	1f013403          	ld	s0,496(sp)
   133fc:	1e813483          	ld	s1,488(sp)
   13400:	1e013903          	ld	s2,480(sp)
   13404:	1d813983          	ld	s3,472(sp)
   13408:	1d013a03          	ld	s4,464(sp)
   1340c:	1c813a83          	ld	s5,456(sp)
   13410:	1c013b03          	ld	s6,448(sp)
   13414:	1b813b83          	ld	s7,440(sp)
   13418:	1b013c03          	ld	s8,432(sp)
   1341c:	1a813c83          	ld	s9,424(sp)
   13420:	1a013d03          	ld	s10,416(sp)
   13424:	19813d83          	ld	s11,408(sp)
   13428:	20010113          	addi	sp,sp,512
   1342c:	00008067          	ret
   13430:	00a00593          	li	a1,10
   13434:	09010513          	addi	a0,sp,144
   13438:	0014849b          	addiw	s1,s1,1
   1343c:	b55ff0ef          	jal	ra,12f90 <strchr@plt>
   13440:	06050663          	beqz	a0,134ac <sigprocmask@plt+0x44c>
   13444:	02300593          	li	a1,35
   13448:	09010513          	addi	a0,sp,144
   1344c:	b75ff0ef          	jal	ra,12fc0 <strchrnul@plt>
   13450:	00050593          	mv	a1,a0
   13454:	09010513          	addi	a0,sp,144
   13458:	d3dff0ef          	jal	ra,13194 <sigprocmask@plt+0x134>
   1345c:	00054783          	lbu	a5,0(a0)
   13460:	00050a13          	mv	s4,a0
   13464:	f60788e3          	beqz	a5,133d4 <sigprocmask@plt+0x374>
   13468:	09879663          	bne	a5,s8,134f4 <sigprocmask@plt+0x494>
   1346c:	05d00593          	li	a1,93
   13470:	b21ff0ef          	jal	ra,12f90 <strchr@plt>
   13474:	00050593          	mv	a1,a0
   13478:	16050e63          	beqz	a0,135f4 <sigprocmask@plt+0x594>
   1347c:	00154783          	lbu	a5,1(a0)
   13480:	16079a63          	bnez	a5,135f4 <sigprocmask@plt+0x594>
   13484:	001a0513          	addi	a0,s4,1
   13488:	d0dff0ef          	jal	ra,13194 <sigprocmask@plt+0x134>
   1348c:	00054783          	lbu	a5,0(a0)
   13490:	16078263          	beqz	a5,135f4 <sigprocmask@plt+0x594>
   13494:	7c0d0593          	addi	a1,s10,1984 # 237c0 <sigprocmask@plt+0x10760>
   13498:	fe8ff0ef          	jal	ra,12c80 <strcasecmp@plt>
   1349c:	00100a93          	li	s5,1
   134a0:	f2050ae3          	beqz	a0,133d4 <sigprocmask@plt+0x374>
   134a4:	fff00a93          	li	s5,-1
   134a8:	f2dff06f          	j	133d4 <sigprocmask@plt+0x374>
   134ac:	00090513          	mv	a0,s2
   134b0:	9d1ff0ef          	jal	ra,12e80 <feof_unlocked@plt>
   134b4:	f80518e3          	bnez	a0,13444 <sigprocmask@plt+0x3e4>
   134b8:	000236b7          	lui	a3,0x23
   134bc:	76868693          	addi	a3,a3,1896 # 23768 <sigprocmask@plt+0x10708>
   134c0:	00090513          	mv	a0,s2
   134c4:	00d13423          	sd	a3,8(sp)
   134c8:	8c9ff0ef          	jal	ra,12d90 <fclose@plt>
   134cc:	00813683          	ld	a3,8(sp)
   134d0:	00023537          	lui	a0,0x23
   134d4:	dde98593          	addi	a1,s3,-546
   134d8:	00048613          	mv	a2,s1
   134dc:	7c850513          	addi	a0,a0,1992 # 237c8 <sigprocmask@plt+0x10768>
   134e0:	3c5000ef          	jal	ra,140a4 <sigprocmask@plt+0x1044>
   134e4:	00000593          	li	a1,0
   134e8:	00040513          	mv	a0,s0
   134ec:	015000ef          	jal	ra,13d00 <sigprocmask@plt+0xca0>
   134f0:	f05ff06f          	j	133f4 <sigprocmask@plt+0x394>
   134f4:	00100793          	li	a5,1
   134f8:	0efa9663          	bne	s5,a5,135e4 <sigprocmask@plt+0x584>
   134fc:	03d00593          	li	a1,61
   13500:	a91ff0ef          	jal	ra,12f90 <strchr@plt>
   13504:	00050d93          	mv	s11,a0
   13508:	0e050c63          	beqz	a0,13600 <sigprocmask@plt+0x5a0>
   1350c:	00050593          	mv	a1,a0
   13510:	000a0513          	mv	a0,s4
   13514:	c81ff0ef          	jal	ra,13194 <sigprocmask@plt+0x134>
   13518:	00054783          	lbu	a5,0(a0)
   1351c:	0e078263          	beqz	a5,13600 <sigprocmask@plt+0x5a0>
   13520:	cc9ff0ef          	jal	ra,131e8 <sigprocmask@plt+0x188>
   13524:	00a13423          	sd	a0,8(sp)
   13528:	ea0546e3          	bltz	a0,133d4 <sigprocmask@plt+0x374>
   1352c:	01800513          	li	a0,24
   13530:	03c010ef          	jal	ra,1456c <sigprocmask@plt+0x150c>
   13534:	00813783          	ld	a5,8(sp)
   13538:	00853023          	sd	s0,0(a0)
   1353c:	00050a13          	mv	s4,a0
   13540:	00f52823          	sw	a5,16(a0)
   13544:	001d8513          	addi	a0,s11,1
   13548:	0e5000ef          	jal	ra,13e2c <sigprocmask@plt+0xdcc>
   1354c:	00050413          	mv	s0,a0
   13550:	df0b8d93          	addi	s11,s7,-528
   13554:	00350713          	addi	a4,a0,3
   13558:	00044583          	lbu	a1,0(s0)
   1355c:	000d8513          	mv	a0,s11
   13560:	00e13423          	sd	a4,8(sp)
   13564:	a5dff0ef          	jal	ra,12fc0 <strchrnul@plt>
   13568:	41b506bb          	subw	a3,a0,s11
   1356c:	00300613          	li	a2,3
   13570:	08d66e63          	bltu	a2,a3,1360c <sigprocmask@plt+0x5ac>
   13574:	419507b3          	sub	a5,a0,s9
   13578:	00179793          	slli	a5,a5,0x1
   1357c:	00fb07b3          	add	a5,s6,a5
   13580:	014a2683          	lw	a3,20(s4)
   13584:	0007d783          	lhu	a5,0(a5) # f000 <longjmp@plt-0x3880>
   13588:	00813703          	ld	a4,8(sp)
   1358c:	00140413          	addi	s0,s0,1
   13590:	00d7e7b3          	or	a5,a5,a3
   13594:	00fa2a23          	sw	a5,20(s4)
   13598:	004d8d93          	addi	s11,s11,4
   1359c:	fae41ee3          	bne	s0,a4,13558 <sigprocmask@plt+0x4f8>
   135a0:	00040513          	mv	a0,s0
   135a4:	089000ef          	jal	ra,13e2c <sigprocmask@plt+0xdcc>
   135a8:	00054783          	lbu	a5,0(a0)
   135ac:	00050d93          	mv	s11,a0
   135b0:	02078663          	beqz	a5,135dc <sigprocmask@plt+0x57c>
   135b4:	06850463          	beq	a0,s0,1361c <sigprocmask@plt+0x5bc>
   135b8:	02e00593          	li	a1,46
   135bc:	9d5ff0ef          	jal	ra,12f90 <strchr@plt>
   135c0:	04050e63          	beqz	a0,1361c <sigprocmask@plt+0x5bc>
   135c4:	03a00793          	li	a5,58
   135c8:	00f50023          	sb	a5,0(a0)
   135cc:	000d8593          	mv	a1,s11
   135d0:	008a0513          	addi	a0,s4,8
   135d4:	670010ef          	jal	ra,14c44 <sigprocmask@plt+0x1be4>
   135d8:	04050a63          	beqz	a0,1362c <sigprocmask@plt+0x5cc>
   135dc:	000a0413          	mv	s0,s4
   135e0:	df5ff06f          	j	133d4 <sigprocmask@plt+0x374>
   135e4:	ec0a90e3          	bnez	s5,134a4 <sigprocmask@plt+0x444>
   135e8:	000236b7          	lui	a3,0x23
   135ec:	7a868693          	addi	a3,a3,1960 # 237a8 <sigprocmask@plt+0x10748>
   135f0:	ed1ff06f          	j	134c0 <sigprocmask@plt+0x460>
   135f4:	000236b7          	lui	a3,0x23
   135f8:	75868693          	addi	a3,a3,1880 # 23758 <sigprocmask@plt+0x106f8>
   135fc:	ec5ff06f          	j	134c0 <sigprocmask@plt+0x460>
   13600:	000236b7          	lui	a3,0x23
   13604:	77868693          	addi	a3,a3,1912 # 23778 <sigprocmask@plt+0x10718>
   13608:	eb9ff06f          	j	134c0 <sigprocmask@plt+0x460>
   1360c:	000236b7          	lui	a3,0x23
   13610:	000a0413          	mv	s0,s4
   13614:	78068693          	addi	a3,a3,1920 # 23780 <sigprocmask@plt+0x10720>
   13618:	ea9ff06f          	j	134c0 <sigprocmask@plt+0x460>
   1361c:	000236b7          	lui	a3,0x23
   13620:	000a0413          	mv	s0,s4
   13624:	78868693          	addi	a3,a3,1928 # 23788 <sigprocmask@plt+0x10728>
   13628:	e99ff06f          	j	134c0 <sigprocmask@plt+0x460>
   1362c:	000236b7          	lui	a3,0x23
   13630:	000a0413          	mv	s0,s4
   13634:	79068693          	addi	a3,a3,1936 # 23790 <sigprocmask@plt+0x10730>
   13638:	e89ff06f          	j	134c0 <sigprocmask@plt+0x460>
   1363c:	ff010113          	addi	sp,sp,-16
   13640:	00813023          	sd	s0,0(sp)
   13644:	00113423          	sd	ra,8(sp)
   13648:	00050413          	mv	s0,a0
   1364c:	885ff0ef          	jal	ra,12ed0 <__errno_location@plt>
   13650:	caa1b023          	sd	a0,-864(gp)
   13654:	00813083          	ld	ra,8(sp)
   13658:	c881b823          	sd	s0,-880(gp)
   1365c:	00013403          	ld	s0,0(sp)
   13660:	01010113          	addi	sp,sp,16
   13664:	00008067          	ret
   13668:	fa010113          	addi	sp,sp,-96
   1366c:	05213023          	sd	s2,64(sp)
   13670:	00050913          	mv	s2,a0
   13674:	00060513          	mv	a0,a2
   13678:	04813823          	sd	s0,80(sp)
   1367c:	03513423          	sd	s5,40(sp)
   13680:	03613023          	sd	s6,32(sp)
   13684:	00058413          	mv	s0,a1
   13688:	04113c23          	sd	ra,88(sp)
   1368c:	04913423          	sd	s1,72(sp)
   13690:	03313c23          	sd	s3,56(sp)
   13694:	03413823          	sd	s4,48(sp)
   13698:	01713c23          	sd	s7,24(sp)
   1369c:	01813823          	sd	s8,16(sp)
   136a0:	01913423          	sd	s9,8(sp)
   136a4:	00060a93          	mv	s5,a2
   136a8:	b1dff0ef          	jal	ra,131c4 <sigprocmask@plt+0x164>
   136ac:	c881b823          	sd	s0,-880(gp)
   136b0:	00050b1b          	sext.w	s6,a0
   136b4:	00200793          	li	a5,2
   136b8:	02fb1063          	bne	s6,a5,136d8 <sigprocmask@plt+0x678>
   136bc:	008ab503          	ld	a0,8(s5)
   136c0:	000235b7          	lui	a1,0x23
   136c4:	7e858593          	addi	a1,a1,2024 # 237e8 <sigprocmask@plt+0x10788>
   136c8:	f28ff0ef          	jal	ra,12df0 <strcmp@plt>
   136cc:	00051663          	bnez	a0,136d8 <sigprocmask@plt+0x678>
   136d0:	c8018423          	sb	zero,-888(gp)
   136d4:	b8dff0ef          	jal	ra,13260 <sigprocmask@plt+0x200>
   136d8:	d801a783          	lw	a5,-640(gp)
   136dc:	d8018993          	addi	s3,gp,-640
   136e0:	02078e63          	beqz	a5,1371c <sigprocmask@plt+0x6bc>
   136e4:	a1cff0ef          	jal	ra,12900 <getgid@plt>
   136e8:	db81c783          	lbu	a5,-584(gp)
   136ec:	00050a1b          	sext.w	s4,a0
   136f0:	c9818b93          	addi	s7,gp,-872
   136f4:	00078663          	beqz	a5,13700 <sigprocmask@plt+0x6a0>
   136f8:	000bb403          	ld	s0,0(s7)
   136fc:	04041463          	bnez	s0,13744 <sigprocmask@plt+0x6e4>
   13700:	000a0513          	mv	a0,s4
   13704:	d2cff0ef          	jal	ra,12c30 <setgid@plt>
   13708:	0009a503          	lw	a0,0(s3)
   1370c:	8d5ff0ef          	jal	ra,12fe0 <setuid@plt>
   13710:	000bb503          	ld	a0,0(s7)
   13714:	00000593          	li	a1,0
   13718:	5e8000ef          	jal	ra,13d00 <sigprocmask@plt+0xca0>
   1371c:	00391513          	slli	a0,s2,0x3
   13720:	00024937          	lui	s2,0x24
   13724:	ad890913          	addi	s2,s2,-1320 # 23ad8 <sigprocmask@plt+0x10a78>
   13728:	00a90933          	add	s2,s2,a0
   1372c:	00093783          	ld	a5,0(s2)
   13730:	000a8593          	mv	a1,s5
   13734:	000b0513          	mv	a0,s6
   13738:	000780e7          	jalr	a5
   1373c:	c8a18423          	sb	a0,-888(gp)
   13740:	215000ef          	jal	ra,14154 <sigprocmask@plt+0x10f4>
   13744:	01042783          	lw	a5,16(s0)
   13748:	05279463          	bne	a5,s2,13790 <sigprocmask@plt+0x730>
   1374c:	0009ac03          	lw	s8,0(s3)
   13750:	00842783          	lw	a5,8(s0)
   13754:	01442483          	lw	s1,20(s0)
   13758:	05878063          	beq	a5,s8,13798 <sigprocmask@plt+0x738>
   1375c:	00c42503          	lw	a0,12(s0)
   13760:	04aa0863          	beq	s4,a0,137b0 <sigprocmask@plt+0x750>
   13764:	a2cff0ef          	jal	ra,12990 <getgrgid@plt>
   13768:	02050a63          	beqz	a0,1379c <sigprocmask@plt+0x73c>
   1376c:	01853c83          	ld	s9,24(a0)
   13770:	000cb503          	ld	a0,0(s9)
   13774:	02050463          	beqz	a0,1379c <sigprocmask@plt+0x73c>
   13778:	eb8ff0ef          	jal	ra,12e30 <getpwnam@plt>
   1377c:	00050663          	beqz	a0,13788 <sigprocmask@plt+0x728>
   13780:	01052783          	lw	a5,16(a0)
   13784:	03878663          	beq	a5,s8,137b0 <sigprocmask@plt+0x750>
   13788:	008c8c93          	addi	s9,s9,8
   1378c:	fe5ff06f          	j	13770 <sigprocmask@plt+0x710>
   13790:	00043403          	ld	s0,0(s0)
   13794:	f69ff06f          	j	136fc <sigprocmask@plt+0x69c>
   13798:	0064d49b          	srliw	s1,s1,0x6
   1379c:	0014f493          	andi	s1,s1,1
   137a0:	00049c63          	bnez	s1,137b8 <sigprocmask@plt+0x758>
   137a4:	00023537          	lui	a0,0x23
   137a8:	7f050513          	addi	a0,a0,2032 # 237f0 <sigprocmask@plt+0x10790>
   137ac:	139000ef          	jal	ra,140e4 <sigprocmask@plt+0x1084>
   137b0:	0034d49b          	srliw	s1,s1,0x3
   137b4:	fe9ff06f          	j	1379c <sigprocmask@plt+0x73c>
   137b8:	01442783          	lw	a5,20(s0)
   137bc:	4007f793          	andi	a5,a5,1024
   137c0:	00078463          	beqz	a5,137c8 <sigprocmask@plt+0x768>
   137c4:	00c42a03          	lw	s4,12(s0)
   137c8:	000a0613          	mv	a2,s4
   137cc:	000a0593          	mv	a1,s4
   137d0:	fff00513          	li	a0,-1
   137d4:	eccff0ef          	jal	ra,12ea0 <setresgid@plt>
   137d8:	00050863          	beqz	a0,137e8 <sigprocmask@plt+0x788>
   137dc:	00024537          	lui	a0,0x24
   137e0:	82050513          	addi	a0,a0,-2016 # 23820 <sigprocmask@plt+0x107c0>
   137e4:	630000ef          	jal	ra,13e14 <sigprocmask@plt+0xdb4>
   137e8:	01442783          	lw	a5,20(s0)
   137ec:	0009a603          	lw	a2,0(s3)
   137f0:	03479713          	slli	a4,a5,0x34
   137f4:	00075463          	bgez	a4,137fc <sigprocmask@plt+0x79c>
   137f8:	00842603          	lw	a2,8(s0)
   137fc:	00060593          	mv	a1,a2
   13800:	fff00513          	li	a0,-1
   13804:	cdcff0ef          	jal	ra,12ce0 <setresuid@plt>
   13808:	f00504e3          	beqz	a0,13710 <sigprocmask@plt+0x6b0>
   1380c:	00024537          	lui	a0,0x24
   13810:	83050513          	addi	a0,a0,-2000 # 23830 <sigprocmask@plt+0x107d0>
   13814:	fd1ff06f          	j	137e4 <sigprocmask@plt+0x784>
   13818:	fb010113          	addi	sp,sp,-80
   1381c:	04813023          	sd	s0,64(sp)
   13820:	00058413          	mv	s0,a1
   13824:	000245b7          	lui	a1,0x24
   13828:	84058593          	addi	a1,a1,-1984 # 23840 <sigprocmask@plt+0x107e0>
   1382c:	02913c23          	sd	s1,56(sp)
   13830:	04113423          	sd	ra,72(sp)
   13834:	03213823          	sd	s2,48(sp)
   13838:	03313423          	sd	s3,40(sp)
   1383c:	03413023          	sd	s4,32(sp)
   13840:	01513c23          	sd	s5,24(sp)
   13844:	01613823          	sd	s6,16(sp)
   13848:	01713423          	sd	s7,8(sp)
   1384c:	01813023          	sd	s8,0(sp)
   13850:	00050493          	mv	s1,a0
   13854:	2fc000ef          	jal	ra,13b50 <sigprocmask@plt+0xaf0>
   13858:	26050463          	beqz	a0,13ac0 <sigprocmask@plt+0xa60>
   1385c:	00843503          	ld	a0,8(s0)
   13860:	c2418a13          	addi	s4,gp,-988
   13864:	0c051263          	bnez	a0,13928 <sigprocmask@plt+0x8c8>
   13868:	00200513          	li	a0,2
   1386c:	379000ef          	jal	ra,143e4 <sigprocmask@plt+0x1384>
   13870:	00200593          	li	a1,2
   13874:	0005099b          	sext.w	s3,a0
   13878:	00100513          	li	a0,1
   1387c:	9d4ff0ef          	jal	ra,12a50 <dup2@plt>
   13880:	00025537          	lui	a0,0x25
   13884:	efd50513          	addi	a0,a0,-259 # 24efd <sigprocmask@plt+0x11e9d>
   13888:	1d5000ef          	jal	ra,1425c <sigprocmask@plt+0x11fc>
   1388c:	00023537          	lui	a0,0x23
   13890:	71850513          	addi	a0,a0,1816 # 23718 <sigprocmask@plt+0x106b8>
   13894:	1c9000ef          	jal	ra,1425c <sigprocmask@plt+0x11fc>
   13898:	00024537          	lui	a0,0x24
   1389c:	84850513          	addi	a0,a0,-1976 # 23848 <sigprocmask@plt+0x107e8>
   138a0:	1bd000ef          	jal	ra,1425c <sigprocmask@plt+0x11fc>
   138a4:	fff9899b          	addiw	s3,s3,-1
   138a8:	00000493          	li	s1,0
   138ac:	000a0413          	mv	s0,s4
   138b0:	00024ab7          	lui	s5,0x24
   138b4:	00024b37          	lui	s6,0x24
   138b8:	00024bb7          	lui	s7,0x24
   138bc:	00040513          	mv	a0,s0
   138c0:	eb0ff0ef          	jal	ra,12f70 <strlen@plt>
   138c4:	00250a1b          	addiw	s4,a0,2
   138c8:	414987bb          	subw	a5,s3,s4
   138cc:	000a0913          	mv	s2,s4
   138d0:	04f4c463          	blt	s1,a5,13918 <sigprocmask@plt+0x8b8>
   138d4:	a68b8513          	addi	a0,s7,-1432 # 23a68 <sigprocmask@plt+0x10a08>
   138d8:	185000ef          	jal	ra,1425c <sigprocmask@plt+0x11fc>
   138dc:	a70a8513          	addi	a0,s5,-1424 # 23a70 <sigprocmask@plt+0x10a10>
   138e0:	17d000ef          	jal	ra,1425c <sigprocmask@plt+0x11fc>
   138e4:	00600493          	li	s1,6
   138e8:	00040513          	mv	a0,s0
   138ec:	fffa0a13          	addi	s4,s4,-1
   138f0:	16d000ef          	jal	ra,1425c <sigprocmask@plt+0x11fc>
   138f4:	01440433          	add	s0,s0,s4
   138f8:	00044783          	lbu	a5,0(s0)
   138fc:	009904bb          	addw	s1,s2,s1
   13900:	fa079ee3          	bnez	a5,138bc <sigprocmask@plt+0x85c>
   13904:	00024537          	lui	a0,0x24
   13908:	bd850513          	addi	a0,a0,-1064 # 23bd8 <sigprocmask@plt+0x10b78>
   1390c:	151000ef          	jal	ra,1425c <sigprocmask@plt+0x11fc>
   13910:	00000513          	li	a0,0
   13914:	ddcff0ef          	jal	ra,12ef0 <exit@plt>
   13918:	fc0482e3          	beqz	s1,138dc <sigprocmask@plt+0x87c>
   1391c:	a78b0513          	addi	a0,s6,-1416 # 23a78 <sigprocmask@plt+0x10a18>
   13920:	13d000ef          	jal	ra,1425c <sigprocmask@plt+0x11fc>
   13924:	fc5ff06f          	j	138e8 <sigprocmask@plt+0x888>
   13928:	000245b7          	lui	a1,0x24
   1392c:	a8058593          	addi	a1,a1,-1408 # 23a80 <sigprocmask@plt+0x10a20>
   13930:	220000ef          	jal	ra,13b50 <sigprocmask@plt+0xaf0>
   13934:	04050e63          	beqz	a0,13990 <sigprocmask@plt+0x930>
   13938:	00200593          	li	a1,2
   1393c:	00100513          	li	a0,1
   13940:	00025937          	lui	s2,0x25
   13944:	90cff0ef          	jal	ra,12a50 <dup2@plt>
   13948:	c2418493          	addi	s1,gp,-988
   1394c:	ed590913          	addi	s2,s2,-299 # 24ed5 <sigprocmask@plt+0x11e75>
   13950:	000249b7          	lui	s3,0x24
   13954:	00843783          	ld	a5,8(s0)
   13958:	0067c783          	lbu	a5,6(a5)
   1395c:	00078663          	beqz	a5,13968 <sigprocmask@plt+0x908>
   13960:	00090513          	mv	a0,s2
   13964:	0f9000ef          	jal	ra,1425c <sigprocmask@plt+0x11fc>
   13968:	00048513          	mv	a0,s1
   1396c:	0f1000ef          	jal	ra,1425c <sigprocmask@plt+0x11fc>
   13970:	bd898513          	addi	a0,s3,-1064 # 23bd8 <sigprocmask@plt+0x10b78>
   13974:	0e9000ef          	jal	ra,1425c <sigprocmask@plt+0x11fc>
   13978:	0004c783          	lbu	a5,0(s1)
   1397c:	00148493          	addi	s1,s1,1
   13980:	fe079ce3          	bnez	a5,13978 <sigprocmask@plt+0x918>
   13984:	0004c783          	lbu	a5,0(s1)
   13988:	fc0796e3          	bnez	a5,13954 <sigprocmask@plt+0x8f4>
   1398c:	f85ff06f          	j	13910 <sigprocmask@plt+0x8b0>
   13990:	00843483          	ld	s1,8(s0)
   13994:	000245b7          	lui	a1,0x24
   13998:	a8858593          	addi	a1,a1,-1400 # 23a88 <sigprocmask@plt+0x10a28>
   1399c:	00048513          	mv	a0,s1
   139a0:	c50ff0ef          	jal	ra,12df0 <strcmp@plt>
   139a4:	0c051e63          	bnez	a0,13a80 <sigprocmask@plt+0xa20>
   139a8:	00025537          	lui	a0,0x25
   139ac:	f2750513          	addi	a0,a0,-217 # 24f27 <sigprocmask@plt+0x11ec7>
   139b0:	565000ef          	jal	ra,14714 <sigprocmask@plt+0x16b4>
   139b4:	00050913          	mv	s2,a0
   139b8:	02051263          	bnez	a0,139dc <sigprocmask@plt+0x97c>
   139bc:	00043903          	ld	s2,0(s0)
   139c0:	02f00793          	li	a5,47
   139c4:	00094703          	lbu	a4,0(s2)
   139c8:	00f70a63          	beq	a4,a5,139dc <sigprocmask@plt+0x97c>
   139cc:	00024537          	lui	a0,0x24
   139d0:	00090593          	mv	a1,s2
   139d4:	a9850513          	addi	a0,a0,-1384 # 23a98 <sigprocmask@plt+0x10a38>
   139d8:	694000ef          	jal	ra,1406c <sigprocmask@plt+0x100c>
   139dc:	01043503          	ld	a0,16(s0)
   139e0:	08050a63          	beqz	a0,13a74 <sigprocmask@plt+0xa14>
   139e4:	000245b7          	lui	a1,0x24
   139e8:	ab858593          	addi	a1,a1,-1352 # 23ab8 <sigprocmask@plt+0x10a58>
   139ec:	c04ff0ef          	jal	ra,12df0 <strcmp@plt>
   139f0:	08051263          	bnez	a0,13a74 <sigprocmask@plt+0xa14>
   139f4:	000134b7          	lui	s1,0x13
   139f8:	00840413          	addi	s0,s0,8
   139fc:	d2048493          	addi	s1,s1,-736 # 12d20 <symlink@plt>
   13a00:	01043403          	ld	s0,16(s0)
   13a04:	00041663          	bnez	s0,13a10 <sigprocmask@plt+0x9b0>
   13a08:	00025437          	lui	s0,0x25
   13a0c:	ed440413          	addi	s0,s0,-300 # 24ed4 <sigprocmask@plt+0x11e74>
   13a10:	ca01b783          	ld	a5,-864(gp)
   13a14:	00200a93          	li	s5,2
   13a18:	01100b93          	li	s7,17
   13a1c:	00078c13          	mv	s8,a5
   13a20:	00100b13          	li	s6,1
   13a24:	000a0593          	mv	a1,s4
   13a28:	00040513          	mv	a0,s0
   13a2c:	170000ef          	jal	ra,13b9c <sigprocmask@plt+0xb3c>
   13a30:	00050993          	mv	s3,a0
   13a34:	00050593          	mv	a1,a0
   13a38:	00090513          	mv	a0,s2
   13a3c:	000480e7          	jalr	s1
   13a40:	00050a63          	beqz	a0,13a54 <sigprocmask@plt+0x9f4>
   13a44:	000c2783          	lw	a5,0(s8)
   13a48:	01778663          	beq	a5,s7,13a54 <sigprocmask@plt+0x9f4>
   13a4c:	00098513          	mv	a0,s3
   13a50:	3b4000ef          	jal	ra,13e04 <sigprocmask@plt+0xda4>
   13a54:	00098513          	mv	a0,s3
   13a58:	df8ff0ef          	jal	ra,13050 <free@plt>
   13a5c:	000a4783          	lbu	a5,0(s4)
   13a60:	001a0a13          	addi	s4,s4,1
   13a64:	fe079ce3          	bnez	a5,13a5c <sigprocmask@plt+0x9fc>
   13a68:	eb6a84e3          	beq	s5,s6,13910 <sigprocmask@plt+0x8b0>
   13a6c:	00100a93          	li	s5,1
   13a70:	fb5ff06f          	j	13a24 <sigprocmask@plt+0x9c4>
   13a74:	000134b7          	lui	s1,0x13
   13a78:	ee048493          	addi	s1,s1,-288 # 12ee0 <link@plt>
   13a7c:	f85ff06f          	j	13a00 <sigprocmask@plt+0x9a0>
   13a80:	000235b7          	lui	a1,0x23
   13a84:	7e858593          	addi	a1,a1,2024 # 237e8 <sigprocmask@plt+0x10788>
   13a88:	00048513          	mv	a0,s1
   13a8c:	b64ff0ef          	jal	ra,12df0 <strcmp@plt>
   13a90:	02051463          	bnez	a0,13ab8 <sigprocmask@plt+0xa58>
   13a94:	01043783          	ld	a5,16(s0)
   13a98:	dc0788e3          	beqz	a5,13868 <sigprocmask@plt+0x808>
   13a9c:	00f43023          	sd	a5,0(s0)
   13aa0:	00043823          	sd	zero,16(s0)
   13aa4:	00043503          	ld	a0,0(s0)
   13aa8:	1a4000ef          	jal	ra,13c4c <sigprocmask@plt+0xbec>
   13aac:	00040593          	mv	a1,s0
   13ab0:	c8a1b823          	sd	a0,-880(gp)
   13ab4:	d65ff0ef          	jal	ra,13818 <sigprocmask@plt+0x7b8>
   13ab8:	00840413          	addi	s0,s0,8
   13abc:	fe9ff06f          	j	13aa4 <sigprocmask@plt+0xa44>
   13ac0:	00048513          	mv	a0,s1
   13ac4:	f24ff0ef          	jal	ra,131e8 <sigprocmask@plt+0x188>
   13ac8:	00054863          	bltz	a0,13ad8 <sigprocmask@plt+0xa78>
   13acc:	00040613          	mv	a2,s0
   13ad0:	00048593          	mv	a1,s1
   13ad4:	b95ff0ef          	jal	ra,13668 <sigprocmask@plt+0x608>
   13ad8:	c901b503          	ld	a0,-880(gp)
   13adc:	780000ef          	jal	ra,1425c <sigprocmask@plt+0x11fc>
   13ae0:	00024537          	lui	a0,0x24
   13ae4:	ac050513          	addi	a0,a0,-1344 # 23ac0 <sigprocmask@plt+0x10a60>
   13ae8:	774000ef          	jal	ra,1425c <sigprocmask@plt+0x11fc>
   13aec:	07f00513          	li	a0,127
   13af0:	e25ff06f          	j	13914 <sigprocmask@plt+0x8b4>
   13af4:	00024537          	lui	a0,0x24
   13af8:	fe010113          	addi	sp,sp,-32
   13afc:	84050513          	addi	a0,a0,-1984 # 23840 <sigprocmask@plt+0x107e0>
   13b00:	00813823          	sd	s0,16(sp)
   13b04:	00913423          	sd	s1,8(sp)
   13b08:	00113c23          	sd	ra,24(sp)
   13b0c:	00058493          	mv	s1,a1
   13b10:	b2dff0ef          	jal	ra,1363c <sigprocmask@plt+0x5dc>
   13b14:	0004b783          	ld	a5,0(s1)
   13b18:	02d00713          	li	a4,45
   13b1c:	c8f1b823          	sd	a5,-880(gp)
   13b20:	0007c683          	lbu	a3,0(a5)
   13b24:	c9018413          	addi	s0,gp,-880
   13b28:	00e69663          	bne	a3,a4,13b34 <sigprocmask@plt+0xad4>
   13b2c:	00178793          	addi	a5,a5,1
   13b30:	00f43023          	sd	a5,0(s0)
   13b34:	00043503          	ld	a0,0(s0)
   13b38:	0e0000ef          	jal	ra,13c18 <sigprocmask@plt+0xbb8>
   13b3c:	00a43023          	sd	a0,0(s0)
   13b40:	fdcff0ef          	jal	ra,1331c <sigprocmask@plt+0x2bc>
   13b44:	00043503          	ld	a0,0(s0)
   13b48:	00048593          	mv	a1,s1
   13b4c:	ccdff0ef          	jal	ra,13818 <sigprocmask@plt+0x7b8>
   13b50:	0005c783          	lbu	a5,0(a1)
   13b54:	00079463          	bnez	a5,13b5c <sigprocmask@plt+0xafc>
   13b58:	00008067          	ret
   13b5c:	00054703          	lbu	a4,0(a0)
   13b60:	00f71863          	bne	a4,a5,13b70 <sigprocmask@plt+0xb10>
   13b64:	00158593          	addi	a1,a1,1
   13b68:	00150513          	addi	a0,a0,1
   13b6c:	fe5ff06f          	j	13b50 <sigprocmask@plt+0xaf0>
   13b70:	00000513          	li	a0,0
   13b74:	00008067          	ret
   13b78:	00059463          	bnez	a1,13b80 <sigprocmask@plt+0xb20>
   13b7c:	00008067          	ret
   13b80:	00054783          	lbu	a5,0(a0)
   13b84:	00150513          	addi	a0,a0,1
   13b88:	fe0798e3          	bnez	a5,13b78 <sigprocmask@plt+0xb18>
   13b8c:	00054783          	lbu	a5,0(a0)
   13b90:	fe0786e3          	beqz	a5,13b7c <sigprocmask@plt+0xb1c>
   13b94:	fff5859b          	addiw	a1,a1,-1
   13b98:	fe1ff06f          	j	13b78 <sigprocmask@plt+0xb18>
   13b9c:	fe010113          	addi	sp,sp,-32
   13ba0:	00813823          	sd	s0,16(sp)
   13ba4:	00113c23          	sd	ra,24(sp)
   13ba8:	00058693          	mv	a3,a1
   13bac:	00050413          	mv	s0,a0
   13bb0:	00051663          	bnez	a0,13bbc <sigprocmask@plt+0xb5c>
   13bb4:	00024437          	lui	s0,0x24
   13bb8:	d5040413          	addi	s0,s0,-688 # 23d50 <sigprocmask@plt+0x10cf0>
   13bbc:	02f00593          	li	a1,47
   13bc0:	00040513          	mv	a0,s0
   13bc4:	00d13423          	sd	a3,8(sp)
   13bc8:	0c8000ef          	jal	ra,13c90 <sigprocmask@plt+0xc30>
   13bcc:	00813683          	ld	a3,8(sp)
   13bd0:	02f00793          	li	a5,47
   13bd4:	0006c703          	lbu	a4,0(a3)
   13bd8:	02f70663          	beq	a4,a5,13c04 <sigprocmask@plt+0xba4>
   13bdc:	02050863          	beqz	a0,13c0c <sigprocmask@plt+0xbac>
   13be0:	00024637          	lui	a2,0x24
   13be4:	d5060613          	addi	a2,a2,-688 # 23d50 <sigprocmask@plt+0x10cf0>
   13be8:	00040593          	mv	a1,s0
   13bec:	01013403          	ld	s0,16(sp)
   13bf0:	01813083          	ld	ra,24(sp)
   13bf4:	00024537          	lui	a0,0x24
   13bf8:	af050513          	addi	a0,a0,-1296 # 23af0 <sigprocmask@plt+0x10a90>
   13bfc:	02010113          	addi	sp,sp,32
   13c00:	2c50006f          	j	146c4 <sigprocmask@plt+0x1664>
   13c04:	00168693          	addi	a3,a3,1
   13c08:	fcdff06f          	j	13bd4 <sigprocmask@plt+0xb74>
   13c0c:	00024637          	lui	a2,0x24
   13c10:	ae860613          	addi	a2,a2,-1304 # 23ae8 <sigprocmask@plt+0x10a88>
   13c14:	fd5ff06f          	j	13be8 <sigprocmask@plt+0xb88>
   13c18:	ff010113          	addi	sp,sp,-16
   13c1c:	02f00593          	li	a1,47
   13c20:	00813023          	sd	s0,0(sp)
   13c24:	00113423          	sd	ra,8(sp)
   13c28:	00050413          	mv	s0,a0
   13c2c:	f25fe0ef          	jal	ra,12b50 <strrchr@plt>
   13c30:	00050463          	beqz	a0,13c38 <sigprocmask@plt+0xbd8>
   13c34:	00150413          	addi	s0,a0,1
   13c38:	00813083          	ld	ra,8(sp)
   13c3c:	00040513          	mv	a0,s0
   13c40:	00013403          	ld	s0,0(sp)
   13c44:	01010113          	addi	sp,sp,16
   13c48:	00008067          	ret
   13c4c:	ff010113          	addi	sp,sp,-16
   13c50:	02f00593          	li	a1,47
   13c54:	00813023          	sd	s0,0(sp)
   13c58:	00113423          	sd	ra,8(sp)
   13c5c:	00050413          	mv	s0,a0
   13c60:	ef1fe0ef          	jal	ra,12b50 <strrchr@plt>
   13c64:	02050263          	beqz	a0,13c88 <sigprocmask@plt+0xc28>
   13c68:	00a41663          	bne	s0,a0,13c74 <sigprocmask@plt+0xc14>
   13c6c:	00154783          	lbu	a5,1(a0)
   13c70:	00078463          	beqz	a5,13c78 <sigprocmask@plt+0xc18>
   13c74:	00150513          	addi	a0,a0,1
   13c78:	00813083          	ld	ra,8(sp)
   13c7c:	00013403          	ld	s0,0(sp)
   13c80:	01010113          	addi	sp,sp,16
   13c84:	00008067          	ret
   13c88:	00040513          	mv	a0,s0
   13c8c:	fedff06f          	j	13c78 <sigprocmask@plt+0xc18>
   13c90:	00054783          	lbu	a5,0(a0)
   13c94:	02078263          	beqz	a5,13cb8 <sigprocmask@plt+0xc58>
   13c98:	00154783          	lbu	a5,1(a0)
   13c9c:	00079a63          	bnez	a5,13cb0 <sigprocmask@plt+0xc50>
   13ca0:	00054783          	lbu	a5,0(a0)
   13ca4:	0ff5f593          	andi	a1,a1,255
   13ca8:	00b79863          	bne	a5,a1,13cb8 <sigprocmask@plt+0xc58>
   13cac:	00008067          	ret
   13cb0:	00150513          	addi	a0,a0,1
   13cb4:	fe5ff06f          	j	13c98 <sigprocmask@plt+0xc38>
   13cb8:	00000513          	li	a0,0
   13cbc:	00008067          	ret
   13cc0:	00050793          	mv	a5,a0
   13cc4:	00053503          	ld	a0,0(a0)
   13cc8:	02050a63          	beqz	a0,13cfc <sigprocmask@plt+0xc9c>
   13ccc:	00053703          	ld	a4,0(a0)
   13cd0:	ff010113          	addi	sp,sp,-16
   13cd4:	00813023          	sd	s0,0(sp)
   13cd8:	00853403          	ld	s0,8(a0)
   13cdc:	00e7b023          	sd	a4,0(a5)
   13ce0:	00113423          	sd	ra,8(sp)
   13ce4:	b6cff0ef          	jal	ra,13050 <free@plt>
   13ce8:	00813083          	ld	ra,8(sp)
   13cec:	00040513          	mv	a0,s0
   13cf0:	00013403          	ld	s0,0(sp)
   13cf4:	01010113          	addi	sp,sp,16
   13cf8:	00008067          	ret
   13cfc:	00008067          	ret
   13d00:	fe010113          	addi	sp,sp,-32
   13d04:	00813823          	sd	s0,16(sp)
   13d08:	00113c23          	sd	ra,24(sp)
   13d0c:	00a13423          	sd	a0,8(sp)
   13d10:	00058413          	mv	s0,a1
   13d14:	00813783          	ld	a5,8(sp)
   13d18:	00079a63          	bnez	a5,13d2c <sigprocmask@plt+0xccc>
   13d1c:	01813083          	ld	ra,24(sp)
   13d20:	01013403          	ld	s0,16(sp)
   13d24:	02010113          	addi	sp,sp,32
   13d28:	00008067          	ret
   13d2c:	00810513          	addi	a0,sp,8
   13d30:	f91ff0ef          	jal	ra,13cc0 <sigprocmask@plt+0xc60>
   13d34:	fe0400e3          	beqz	s0,13d14 <sigprocmask@plt+0xcb4>
   13d38:	000400e7          	jalr	s0
   13d3c:	fd9ff06f          	j	13d14 <sigprocmask@plt+0xcb4>
   13d40:	fa010113          	addi	sp,sp,-96
   13d44:	04f13423          	sd	a5,72(sp)
   13d48:	ca01b783          	ld	a5,-864(gp)
   13d4c:	02b13423          	sd	a1,40(sp)
   13d50:	02c13823          	sd	a2,48(sp)
   13d54:	02d13c23          	sd	a3,56(sp)
   13d58:	04e13023          	sd	a4,64(sp)
   13d5c:	05013823          	sd	a6,80(sp)
   13d60:	05113c23          	sd	a7,88(sp)
   13d64:	00813823          	sd	s0,16(sp)
   13d68:	00050413          	mv	s0,a0
   13d6c:	0007a503          	lw	a0,0(a5)
   13d70:	02810593          	addi	a1,sp,40
   13d74:	00113c23          	sd	ra,24(sp)
   13d78:	00b13423          	sd	a1,8(sp)
   13d7c:	00000613          	li	a2,0
   13d80:	00050863          	beqz	a0,13d90 <sigprocmask@plt+0xd30>
   13d84:	bbdfe0ef          	jal	ra,12940 <strerror@plt>
   13d88:	00050613          	mv	a2,a0
   13d8c:	02810593          	addi	a1,sp,40
   13d90:	00040513          	mv	a0,s0
   13d94:	0c0000ef          	jal	ra,13e54 <sigprocmask@plt+0xdf4>
   13d98:	01813083          	ld	ra,24(sp)
   13d9c:	01013403          	ld	s0,16(sp)
   13da0:	06010113          	addi	sp,sp,96
   13da4:	00008067          	ret
   13da8:	fa010113          	addi	sp,sp,-96
   13dac:	04f13423          	sd	a5,72(sp)
   13db0:	ca01b783          	ld	a5,-864(gp)
   13db4:	02b13423          	sd	a1,40(sp)
   13db8:	02c13823          	sd	a2,48(sp)
   13dbc:	02d13c23          	sd	a3,56(sp)
   13dc0:	04e13023          	sd	a4,64(sp)
   13dc4:	05013823          	sd	a6,80(sp)
   13dc8:	05113c23          	sd	a7,88(sp)
   13dcc:	00813823          	sd	s0,16(sp)
   13dd0:	00050413          	mv	s0,a0
   13dd4:	0007a503          	lw	a0,0(a5)
   13dd8:	02810593          	addi	a1,sp,40
   13ddc:	00113c23          	sd	ra,24(sp)
   13de0:	00b13423          	sd	a1,8(sp)
   13de4:	00000613          	li	a2,0
   13de8:	00050863          	beqz	a0,13df8 <sigprocmask@plt+0xd98>
   13dec:	b55fe0ef          	jal	ra,12940 <strerror@plt>
   13df0:	00050613          	mv	a2,a0
   13df4:	02810593          	addi	a1,sp,40
   13df8:	00040513          	mv	a0,s0
   13dfc:	058000ef          	jal	ra,13e54 <sigprocmask@plt+0xdf4>
   13e00:	354000ef          	jal	ra,14154 <sigprocmask@plt+0x10f4>
   13e04:	00050593          	mv	a1,a0
   13e08:	00024537          	lui	a0,0x24
   13e0c:	c5050513          	addi	a0,a0,-944 # 23c50 <sigprocmask@plt+0x10bf0>
   13e10:	f31ff06f          	j	13d40 <sigprocmask@plt+0xce0>
   13e14:	00050593          	mv	a1,a0
   13e18:	00024537          	lui	a0,0x24
   13e1c:	ff010113          	addi	sp,sp,-16
   13e20:	c5050513          	addi	a0,a0,-944 # 23c50 <sigprocmask@plt+0x10bf0>
   13e24:	00113423          	sd	ra,8(sp)
   13e28:	f81ff0ef          	jal	ra,13da8 <sigprocmask@plt+0xd48>
   13e2c:	02000693          	li	a3,32
   13e30:	00400713          	li	a4,4
   13e34:	00054783          	lbu	a5,0(a0)
   13e38:	00d78a63          	beq	a5,a3,13e4c <sigprocmask@plt+0xdec>
   13e3c:	ff77879b          	addiw	a5,a5,-9
   13e40:	0ff7f793          	andi	a5,a5,255
   13e44:	00f77463          	bgeu	a4,a5,13e4c <sigprocmask@plt+0xdec>
   13e48:	00008067          	ret
   13e4c:	00150513          	addi	a0,a0,1
   13e50:	fe5ff06f          	j	13e34 <sigprocmask@plt+0xdd4>
   13e54:	f2010113          	addi	sp,sp,-224
   13e58:	0b613023          	sd	s6,160(sp)
   13e5c:	c801a783          	lw	a5,-896(gp)
   13e60:	0c113c23          	sd	ra,216(sp)
   13e64:	0c813823          	sd	s0,208(sp)
   13e68:	0c913423          	sd	s1,200(sp)
   13e6c:	0d213023          	sd	s2,192(sp)
   13e70:	0b313c23          	sd	s3,184(sp)
   13e74:	0b413823          	sd	s4,176(sp)
   13e78:	0b513423          	sd	s5,168(sp)
   13e7c:	09713c23          	sd	s7,152(sp)
   13e80:	09813823          	sd	s8,144(sp)
   13e84:	09913423          	sd	s9,136(sp)
   13e88:	09a13023          	sd	s10,128(sp)
   13e8c:	07b13c23          	sd	s11,120(sp)
   13e90:	10078863          	beqz	a5,13fa0 <sigprocmask@plt+0xf40>
   13e94:	00050913          	mv	s2,a0
   13e98:	00058d13          	mv	s10,a1
   13e9c:	00060a13          	mv	s4,a2
   13ea0:	c8018b13          	addi	s6,gp,-896
   13ea4:	00051663          	bnez	a0,13eb0 <sigprocmask@plt+0xe50>
   13ea8:	00024937          	lui	s2,0x24
   13eac:	d5090913          	addi	s2,s2,-688 # 23d50 <sigprocmask@plt+0x10cf0>
   13eb0:	c901b503          	ld	a0,-880(gp)
   13eb4:	00000993          	li	s3,0
   13eb8:	8b8ff0ef          	jal	ra,12f70 <strlen@plt>
   13ebc:	00050493          	mv	s1,a0
   13ec0:	000a0863          	beqz	s4,13ed0 <sigprocmask@plt+0xe70>
   13ec4:	000a0513          	mv	a0,s4
   13ec8:	8a8ff0ef          	jal	ra,12f70 <strlen@plt>
   13ecc:	0005099b          	sext.w	s3,a0
   13ed0:	c701b503          	ld	a0,-912(gp)
   13ed4:	00248c1b          	addiw	s8,s1,2
   13ed8:	000c0493          	mv	s1,s8
   13edc:	894ff0ef          	jal	ra,12f70 <strlen@plt>
   13ee0:	05000593          	li	a1,80
   13ee4:	418585bb          	subw	a1,a1,s8
   13ee8:	00050a9b          	sext.w	s5,a0
   13eec:	c7018b93          	addi	s7,gp,-912
   13ef0:	02b05863          	blez	a1,13f20 <sigprocmask@plt+0xec0>
   13ef4:	02010d93          	addi	s11,sp,32
   13ef8:	000d0693          	mv	a3,s10
   13efc:	00090613          	mv	a2,s2
   13f00:	018d8533          	add	a0,s11,s8
   13f04:	badfe0ef          	jal	ra,12ab0 <vsnprintf@plt>
   13f08:	04d00793          	li	a5,77
   13f0c:	415787bb          	subw	a5,a5,s5
   13f10:	01b13c23          	sd	s11,24(sp)
   13f14:	00ac043b          	addw	s0,s8,a0
   13f18:	413787bb          	subw	a5,a5,s3
   13f1c:	0cf44663          	blt	s0,a5,13fe8 <sigprocmask@plt+0xf88>
   13f20:	000d0613          	mv	a2,s10
   13f24:	00090593          	mv	a1,s2
   13f28:	01810513          	addi	a0,sp,24
   13f2c:	884ff0ef          	jal	ra,12fb0 <vasprintf@plt>
   13f30:	06054863          	bltz	a0,13fa0 <sigprocmask@plt+0xf40>
   13f34:	00a4843b          	addw	s0,s1,a0
   13f38:	00a13423          	sd	a0,8(sp)
   13f3c:	013404bb          	addw	s1,s0,s3
   13f40:	01813503          	ld	a0,24(sp)
   13f44:	015485bb          	addw	a1,s1,s5
   13f48:	0035859b          	addiw	a1,a1,3
   13f4c:	d45fe0ef          	jal	ra,12c90 <realloc@plt>
   13f50:	00813603          	ld	a2,8(sp)
   13f54:	00050593          	mv	a1,a0
   13f58:	08051263          	bnez	a0,13fdc <sigprocmask@plt+0xf7c>
   13f5c:	01813503          	ld	a0,24(sp)
   13f60:	00a00793          	li	a5,10
   13f64:	0016041b          	addiw	s0,a2,1
   13f68:	00c50533          	add	a0,a0,a2
   13f6c:	00f50023          	sb	a5,0(a0)
   13f70:	000b2783          	lw	a5,0(s6)
   13f74:	0017f793          	andi	a5,a5,1
   13f78:	00078c63          	beqz	a5,13f90 <sigprocmask@plt+0xf30>
   13f7c:	73c000ef          	jal	ra,146b8 <sigprocmask@plt+0x1658>
   13f80:	01813583          	ld	a1,24(sp)
   13f84:	00040613          	mv	a2,s0
   13f88:	00200513          	li	a0,2
   13f8c:	01d000ef          	jal	ra,147a8 <sigprocmask@plt+0x1748>
   13f90:	01813503          	ld	a0,24(sp)
   13f94:	02010793          	addi	a5,sp,32
   13f98:	00f50463          	beq	a0,a5,13fa0 <sigprocmask@plt+0xf40>
   13f9c:	8b4ff0ef          	jal	ra,13050 <free@plt>
   13fa0:	0d813083          	ld	ra,216(sp)
   13fa4:	0d013403          	ld	s0,208(sp)
   13fa8:	0c813483          	ld	s1,200(sp)
   13fac:	0c013903          	ld	s2,192(sp)
   13fb0:	0b813983          	ld	s3,184(sp)
   13fb4:	0b013a03          	ld	s4,176(sp)
   13fb8:	0a813a83          	ld	s5,168(sp)
   13fbc:	0a013b03          	ld	s6,160(sp)
   13fc0:	09813b83          	ld	s7,152(sp)
   13fc4:	09013c03          	ld	s8,144(sp)
   13fc8:	08813c83          	ld	s9,136(sp)
   13fcc:	08013d03          	ld	s10,128(sp)
   13fd0:	07813d83          	ld	s11,120(sp)
   13fd4:	0e010113          	addi	sp,sp,224
   13fd8:	00008067          	ret
   13fdc:	00a13c23          	sd	a0,24(sp)
   13fe0:	01850533          	add	a0,a0,s8
   13fe4:	98dfe0ef          	jal	ra,12970 <memmove@plt>
   13fe8:	c901b583          	ld	a1,-880(gp)
   13fec:	01813503          	ld	a0,24(sp)
   13ff0:	8b1fe0ef          	jal	ra,128a0 <strcpy@plt>
   13ff4:	01813783          	ld	a5,24(sp)
   13ff8:	03a00613          	li	a2,58
   13ffc:	02000693          	li	a3,32
   14000:	018787b3          	add	a5,a5,s8
   14004:	fec78f23          	sb	a2,-2(a5)
   14008:	01813783          	ld	a5,24(sp)
   1400c:	01878c33          	add	s8,a5,s8
   14010:	fedc0fa3          	sb	a3,-1(s8)
   14014:	040a0063          	beqz	s4,14054 <sigprocmask@plt+0xff4>
   14018:	00094783          	lbu	a5,0(s2)
   1401c:	02078263          	beqz	a5,14040 <sigprocmask@plt+0xfe0>
   14020:	01813703          	ld	a4,24(sp)
   14024:	0014079b          	addiw	a5,s0,1
   14028:	00870733          	add	a4,a4,s0
   1402c:	00c70023          	sb	a2,0(a4) # 8000 <longjmp@plt-0xa880>
   14030:	01813703          	ld	a4,24(sp)
   14034:	0024041b          	addiw	s0,s0,2
   14038:	00f707b3          	add	a5,a4,a5
   1403c:	00d78023          	sb	a3,0(a5)
   14040:	01813503          	ld	a0,24(sp)
   14044:	000a0593          	mv	a1,s4
   14048:	00850533          	add	a0,a0,s0
   1404c:	855fe0ef          	jal	ra,128a0 <strcpy@plt>
   14050:	0134043b          	addw	s0,s0,s3
   14054:	01813503          	ld	a0,24(sp)
   14058:	000bb583          	ld	a1,0(s7)
   1405c:	00850533          	add	a0,a0,s0
   14060:	841fe0ef          	jal	ra,128a0 <strcpy@plt>
   14064:	0154043b          	addw	s0,s0,s5
   14068:	f09ff06f          	j	13f70 <sigprocmask@plt+0xf10>
   1406c:	fa010113          	addi	sp,sp,-96
   14070:	02b13423          	sd	a1,40(sp)
   14074:	02c13823          	sd	a2,48(sp)
   14078:	02810593          	addi	a1,sp,40
   1407c:	00000613          	li	a2,0
   14080:	00113c23          	sd	ra,24(sp)
   14084:	02d13c23          	sd	a3,56(sp)
   14088:	04e13023          	sd	a4,64(sp)
   1408c:	04f13423          	sd	a5,72(sp)
   14090:	05013823          	sd	a6,80(sp)
   14094:	05113c23          	sd	a7,88(sp)
   14098:	00b13423          	sd	a1,8(sp)
   1409c:	db9ff0ef          	jal	ra,13e54 <sigprocmask@plt+0xdf4>
   140a0:	0b4000ef          	jal	ra,14154 <sigprocmask@plt+0x10f4>
   140a4:	fa010113          	addi	sp,sp,-96
   140a8:	02b13423          	sd	a1,40(sp)
   140ac:	02c13823          	sd	a2,48(sp)
   140b0:	02810593          	addi	a1,sp,40
   140b4:	00000613          	li	a2,0
   140b8:	00113c23          	sd	ra,24(sp)
   140bc:	02d13c23          	sd	a3,56(sp)
   140c0:	04e13023          	sd	a4,64(sp)
   140c4:	04f13423          	sd	a5,72(sp)
   140c8:	05013823          	sd	a6,80(sp)
   140cc:	05113c23          	sd	a7,88(sp)
   140d0:	00b13423          	sd	a1,8(sp)
   140d4:	d81ff0ef          	jal	ra,13e54 <sigprocmask@plt+0xdf4>
   140d8:	01813083          	ld	ra,24(sp)
   140dc:	06010113          	addi	sp,sp,96
   140e0:	00008067          	ret
   140e4:	00050593          	mv	a1,a0
   140e8:	00024537          	lui	a0,0x24
   140ec:	ff010113          	addi	sp,sp,-16
   140f0:	c5050513          	addi	a0,a0,-944 # 23c50 <sigprocmask@plt+0x10bf0>
   140f4:	00113423          	sd	ra,8(sp)
   140f8:	f75ff0ef          	jal	ra,1406c <sigprocmask@plt+0x100c>
   140fc:	ff010113          	addi	sp,sp,-16
   14100:	00113423          	sd	ra,8(sp)
   14104:	00157793          	andi	a5,a0,1
   14108:	00078e63          	beqz	a5,14124 <sigprocmask@plt+0x10c4>
   1410c:	000255b7          	lui	a1,0x25
   14110:	9f058593          	addi	a1,a1,-1552 # 249f0 <sigprocmask@plt+0x11990>
   14114:	0015551b          	srliw	a0,a0,0x1
   14118:	ba9fe0ef          	jal	ra,12cc0 <fdopen@plt>
   1411c:	00051a63          	bnez	a0,14130 <sigprocmask@plt+0x10d0>
   14120:	3d8000ef          	jal	ra,144f8 <sigprocmask@plt+0x1498>
   14124:	000245b7          	lui	a1,0x24
   14128:	af858593          	addi	a1,a1,-1288 # 23af8 <sigprocmask@plt+0x10a98>
   1412c:	fe9ff06f          	j	14114 <sigprocmask@plt+0x10b4>
   14130:	00813083          	ld	ra,8(sp)
   14134:	01010113          	addi	sp,sp,16
   14138:	00008067          	ret
   1413c:	000245b7          	lui	a1,0x24
   14140:	af858593          	addi	a1,a1,-1288 # 23af8 <sigprocmask@plt+0x10a98>
   14144:	bedfe06f          	j	12d30 <fopen@plt>
   14148:	0015151b          	slliw	a0,a0,0x1
   1414c:	0015051b          	addiw	a0,a0,1
   14150:	fadff06f          	j	140fc <sigprocmask@plt+0x109c>
   14154:	ca81b783          	ld	a5,-856(gp)
   14158:	ff010113          	addi	sp,sp,-16
   1415c:	00113423          	sd	ra,8(sp)
   14160:	00078463          	beqz	a5,14168 <sigprocmask@plt+0x1108>
   14164:	000780e7          	jalr	a5
   14168:	c881c503          	lbu	a0,-888(gp)
   1416c:	d85fe0ef          	jal	ra,12ef0 <exit@plt>
   14170:	00050693          	mv	a3,a0
   14174:	00058513          	mv	a0,a1
   14178:	04060c63          	beqz	a2,141d0 <sigprocmask@plt+0x1170>
   1417c:	3b9ad7b7          	lui	a5,0x3b9ad
   14180:	00a00593          	li	a1,10
   14184:	00000813          	li	a6,0
   14188:	a0078793          	addi	a5,a5,-1536 # 3b9aca00 <optind+0x3b985430>
   1418c:	00100313          	li	t1,1
   14190:	00a00893          	li	a7,10
   14194:	0006871b          	sext.w	a4,a3
   14198:	02f6f6bb          	remuw	a3,a3,a5
   1419c:	00f77663          	bgeu	a4,a5,141a8 <sigprocmask@plt+0x1148>
   141a0:	00081463          	bnez	a6,141a8 <sigprocmask@plt+0x1148>
   141a4:	02679063          	bne	a5,t1,141c4 <sigprocmask@plt+0x1164>
   141a8:	fff6061b          	addiw	a2,a2,-1
   141ac:	02060263          	beqz	a2,141d0 <sigprocmask@plt+0x1170>
   141b0:	0018081b          	addiw	a6,a6,1
   141b4:	00150513          	addi	a0,a0,1
   141b8:	02f7573b          	divuw	a4,a4,a5
   141bc:	0307071b          	addiw	a4,a4,48
   141c0:	fee50fa3          	sb	a4,-1(a0)
   141c4:	fff5859b          	addiw	a1,a1,-1
   141c8:	0317d7bb          	divuw	a5,a5,a7
   141cc:	fc0594e3          	bnez	a1,14194 <sigprocmask@plt+0x1134>
   141d0:	00008067          	ret
   141d4:	02060063          	beqz	a2,141f4 <sigprocmask@plt+0x1194>
   141d8:	00055c63          	bgez	a0,141f0 <sigprocmask@plt+0x1190>
   141dc:	02d00793          	li	a5,45
   141e0:	00f58023          	sb	a5,0(a1)
   141e4:	40a0053b          	negw	a0,a0
   141e8:	fff6061b          	addiw	a2,a2,-1
   141ec:	00158593          	addi	a1,a1,1
   141f0:	f81ff06f          	j	14170 <sigprocmask@plt+0x1110>
   141f4:	00058513          	mv	a0,a1
   141f8:	00008067          	ret
   141fc:	ff010113          	addi	sp,sp,-16
   14200:	00813023          	sd	s0,0(sp)
   14204:	e1018593          	addi	a1,gp,-496
   14208:	00b00613          	li	a2,11
   1420c:	00113423          	sd	ra,8(sp)
   14210:	f61ff0ef          	jal	ra,14170 <sigprocmask@plt+0x1110>
   14214:	00050023          	sb	zero,0(a0)
   14218:	00813083          	ld	ra,8(sp)
   1421c:	e1018513          	addi	a0,gp,-496
   14220:	00013403          	ld	s0,0(sp)
   14224:	01010113          	addi	sp,sp,16
   14228:	00008067          	ret
   1422c:	ff010113          	addi	sp,sp,-16
   14230:	00813023          	sd	s0,0(sp)
   14234:	e1018593          	addi	a1,gp,-496
   14238:	00b00613          	li	a2,11
   1423c:	00113423          	sd	ra,8(sp)
   14240:	f95ff0ef          	jal	ra,141d4 <sigprocmask@plt+0x1174>
   14244:	00050023          	sb	zero,0(a0)
   14248:	00813083          	ld	ra,8(sp)
   1424c:	e1018513          	addi	a0,gp,-496
   14250:	00013403          	ld	s0,0(sp)
   14254:	01010113          	addi	sp,sp,16
   14258:	00008067          	ret
   1425c:	fe010113          	addi	sp,sp,-32
   14260:	00113c23          	sd	ra,24(sp)
   14264:	00a13423          	sd	a0,8(sp)
   14268:	d09fe0ef          	jal	ra,12f70 <strlen@plt>
   1426c:	00813583          	ld	a1,8(sp)
   14270:	01813083          	ld	ra,24(sp)
   14274:	00050613          	mv	a2,a0
   14278:	00200513          	li	a0,2
   1427c:	02010113          	addi	sp,sp,32
   14280:	5280006f          	j	147a8 <sigprocmask@plt+0x1748>
   14284:	fc010113          	addi	sp,sp,-64
   14288:	02913423          	sd	s1,40(sp)
   1428c:	01313c23          	sd	s3,24(sp)
   14290:	01413823          	sd	s4,16(sp)
   14294:	02113c23          	sd	ra,56(sp)
   14298:	02813823          	sd	s0,48(sp)
   1429c:	03213023          	sd	s2,32(sp)
   142a0:	fff00793          	li	a5,-1
   142a4:	00050493          	mv	s1,a0
   142a8:	00058993          	mv	s3,a1
   142ac:	00060a13          	mv	s4,a2
   142b0:	10f51463          	bne	a0,a5,143b8 <sigprocmask@plt+0x1358>
   142b4:	00100513          	li	a0,1
   142b8:	fd8fe0ef          	jal	ra,12a90 <isatty@plt>
   142bc:	00100413          	li	s0,1
   142c0:	02051a63          	bnez	a0,142f4 <sigprocmask@plt+0x1294>
   142c4:	00200513          	li	a0,2
   142c8:	fc8fe0ef          	jal	ra,12a90 <isatty@plt>
   142cc:	00050413          	mv	s0,a0
   142d0:	0e051a63          	bnez	a0,143c4 <sigprocmask@plt+0x1364>
   142d4:	fbcfe0ef          	jal	ra,12a90 <isatty@plt>
   142d8:	00051e63          	bnez	a0,142f4 <sigprocmask@plt+0x1294>
   142dc:	00024537          	lui	a0,0x24
   142e0:	00000593          	li	a1,0
   142e4:	b0050513          	addi	a0,a0,-1280 # 23b00 <sigprocmask@plt+0x10aa0>
   142e8:	c99fe0ef          	jal	ra,12f80 <open@plt>
   142ec:	00050413          	mv	s0,a0
   142f0:	00050493          	mv	s1,a0
   142f4:	000055b7          	lui	a1,0x5
   142f8:	00810613          	addi	a2,sp,8
   142fc:	41358593          	addi	a1,a1,1043 # 5413 <longjmp@plt-0xd46d>
   14300:	00040513          	mv	a0,s0
   14304:	00011423          	sh	zero,8(sp)
   14308:	00011523          	sh	zero,10(sp)
   1430c:	dd4fe0ef          	jal	ra,128e0 <ioctl@plt>
   14310:	00100913          	li	s2,1
   14314:	00051663          	bnez	a0,14320 <sigprocmask@plt+0x12c0>
   14318:	00815903          	lhu	s2,8(sp)
   1431c:	00193913          	seqz	s2,s2
   14320:	020a0a63          	beqz	s4,14354 <sigprocmask@plt+0x12f4>
   14324:	00024537          	lui	a0,0x24
   14328:	b1050513          	addi	a0,a0,-1264 # 23b10 <sigprocmask@plt+0x10ab0>
   1432c:	00815403          	lhu	s0,8(sp)
   14330:	e80fe0ef          	jal	ra,129b0 <getenv@plt>
   14334:	08051c63          	bnez	a0,143cc <sigprocmask@plt+0x136c>
   14338:	0004051b          	sext.w	a0,s0
   1433c:	000077b7          	lui	a5,0x7
   14340:	ffe5071b          	addiw	a4,a0,-2
   14344:	52d78793          	addi	a5,a5,1325 # 752d <longjmp@plt-0xb353>
   14348:	00e7f463          	bgeu	a5,a4,14350 <sigprocmask@plt+0x12f0>
   1434c:	01800513          	li	a0,24
   14350:	00aa2023          	sw	a0,0(s4)
   14354:	02098a63          	beqz	s3,14388 <sigprocmask@plt+0x1328>
   14358:	00024537          	lui	a0,0x24
   1435c:	b1850513          	addi	a0,a0,-1256 # 23b18 <sigprocmask@plt+0x10ab8>
   14360:	00a15403          	lhu	s0,10(sp)
   14364:	e4cfe0ef          	jal	ra,129b0 <getenv@plt>
   14368:	06051863          	bnez	a0,143d8 <sigprocmask@plt+0x1378>
   1436c:	0004051b          	sext.w	a0,s0
   14370:	000077b7          	lui	a5,0x7
   14374:	ffe5071b          	addiw	a4,a0,-2
   14378:	52d78793          	addi	a5,a5,1325 # 752d <longjmp@plt-0xb353>
   1437c:	00e7f463          	bgeu	a5,a4,14384 <sigprocmask@plt+0x1324>
   14380:	05000513          	li	a0,80
   14384:	00a9a023          	sw	a0,0(s3)
   14388:	0004c663          	bltz	s1,14394 <sigprocmask@plt+0x1334>
   1438c:	00048513          	mv	a0,s1
   14390:	c71fe0ef          	jal	ra,13000 <close@plt>
   14394:	03813083          	ld	ra,56(sp)
   14398:	03013403          	ld	s0,48(sp)
   1439c:	02813483          	ld	s1,40(sp)
   143a0:	01813983          	ld	s3,24(sp)
   143a4:	01013a03          	ld	s4,16(sp)
   143a8:	00090513          	mv	a0,s2
   143ac:	02013903          	ld	s2,32(sp)
   143b0:	04010113          	addi	sp,sp,64
   143b4:	00008067          	ret
   143b8:	00050413          	mv	s0,a0
   143bc:	fff00493          	li	s1,-1
   143c0:	f35ff06f          	j	142f4 <sigprocmask@plt+0x1294>
   143c4:	00200413          	li	s0,2
   143c8:	f2dff06f          	j	142f4 <sigprocmask@plt+0x1294>
   143cc:	b45fe0ef          	jal	ra,12f10 <atoi@plt>
   143d0:	00000913          	li	s2,0
   143d4:	f69ff06f          	j	1433c <sigprocmask@plt+0x12dc>
   143d8:	b39fe0ef          	jal	ra,12f10 <atoi@plt>
   143dc:	00000913          	li	s2,0
   143e0:	f91ff06f          	j	14370 <sigprocmask@plt+0x1310>
   143e4:	fe010113          	addi	sp,sp,-32
   143e8:	00c10593          	addi	a1,sp,12
   143ec:	00000613          	li	a2,0
   143f0:	00113c23          	sd	ra,24(sp)
   143f4:	e91ff0ef          	jal	ra,14284 <sigprocmask@plt+0x1224>
   143f8:	01813083          	ld	ra,24(sp)
   143fc:	00c12503          	lw	a0,12(sp)
   14400:	02010113          	addi	sp,sp,32
   14404:	00008067          	ret
   14408:	00050613          	mv	a2,a0
   1440c:	00000593          	li	a1,0
   14410:	00000513          	li	a0,0
   14414:	bddfe06f          	j	12ff0 <tcsetattr@plt>
   14418:	fd010113          	addi	sp,sp,-48
   1441c:	01213823          	sd	s2,16(sp)
   14420:	00060913          	mv	s2,a2
   14424:	02813023          	sd	s0,32(sp)
   14428:	03c00613          	li	a2,60
   1442c:	00058413          	mv	s0,a1
   14430:	01313423          	sd	s3,8(sp)
   14434:	00000593          	li	a1,0
   14438:	00050993          	mv	s3,a0
   1443c:	00090513          	mv	a0,s2
   14440:	02113423          	sd	ra,40(sp)
   14444:	00913c23          	sd	s1,24(sp)
   14448:	00068493          	mv	s1,a3
   1444c:	915fe0ef          	jal	ra,12d60 <memset@plt>
   14450:	00090593          	mv	a1,s2
   14454:	00098513          	mv	a0,s3
   14458:	959fe0ef          	jal	ra,12db0 <tcgetattr@plt>
   1445c:	00050993          	mv	s3,a0
   14460:	03c00613          	li	a2,60
   14464:	00090593          	mv	a1,s2
   14468:	00040513          	mv	a0,s0
   1446c:	da4fe0ef          	jal	ra,12a10 <memcpy@plt>
   14470:	0014f713          	andi	a4,s1,1
   14474:	00c42783          	lw	a5,12(s0)
   14478:	06071c63          	bnez	a4,144f0 <sigprocmask@plt+0x1490>
   1447c:	fb57f793          	andi	a5,a5,-75
   14480:	00f42623          	sw	a5,12(s0)
   14484:	10000793          	li	a5,256
   14488:	00f41b23          	sh	a5,22(s0)
   1448c:	0024f793          	andi	a5,s1,2
   14490:	00078863          	beqz	a5,144a0 <sigprocmask@plt+0x1440>
   14494:	00042783          	lw	a5,0(s0)
   14498:	aff7f793          	andi	a5,a5,-1281
   1449c:	00f42023          	sw	a5,0(s0)
   144a0:	0044f793          	andi	a5,s1,4
   144a4:	00078863          	beqz	a5,144b4 <sigprocmask@plt+0x1454>
   144a8:	00442783          	lw	a5,4(s0)
   144ac:	ffb7f793          	andi	a5,a5,-5
   144b0:	00f42223          	sw	a5,4(s0)
   144b4:	0084f493          	andi	s1,s1,8
   144b8:	00048c63          	beqz	s1,144d0 <sigprocmask@plt+0x1470>
   144bc:	00042783          	lw	a5,0(s0)
   144c0:	ffffc737          	lui	a4,0xffffc
   144c4:	0bd70713          	addi	a4,a4,189 # ffffffffffffc0bd <optind+0xfffffffffffd4aed>
   144c8:	00e7f7b3          	and	a5,a5,a4
   144cc:	00f42023          	sw	a5,0(s0)
   144d0:	02813083          	ld	ra,40(sp)
   144d4:	02013403          	ld	s0,32(sp)
   144d8:	01813483          	ld	s1,24(sp)
   144dc:	01013903          	ld	s2,16(sp)
   144e0:	00098513          	mv	a0,s3
   144e4:	00813983          	ld	s3,8(sp)
   144e8:	03010113          	addi	sp,sp,48
   144ec:	00008067          	ret
   144f0:	fb47f793          	andi	a5,a5,-76
   144f4:	f8dff06f          	j	14480 <sigprocmask@plt+0x1420>
   144f8:	00025537          	lui	a0,0x25
   144fc:	ff010113          	addi	sp,sp,-16
   14500:	f3650513          	addi	a0,a0,-202 # 24f36 <sigprocmask@plt+0x11ed6>
   14504:	00113423          	sd	ra,8(sp)
   14508:	bddff0ef          	jal	ra,140e4 <sigprocmask@plt+0x1084>
   1450c:	ff010113          	addi	sp,sp,-16
   14510:	00813023          	sd	s0,0(sp)
   14514:	00113423          	sd	ra,8(sp)
   14518:	00050413          	mv	s0,a0
   1451c:	d64fe0ef          	jal	ra,12a80 <malloc@plt>
   14520:	00051663          	bnez	a0,1452c <sigprocmask@plt+0x14cc>
   14524:	00040463          	beqz	s0,1452c <sigprocmask@plt+0x14cc>
   14528:	fd1ff0ef          	jal	ra,144f8 <sigprocmask@plt+0x1498>
   1452c:	00813083          	ld	ra,8(sp)
   14530:	00013403          	ld	s0,0(sp)
   14534:	01010113          	addi	sp,sp,16
   14538:	00008067          	ret
   1453c:	ff010113          	addi	sp,sp,-16
   14540:	00813023          	sd	s0,0(sp)
   14544:	00113423          	sd	ra,8(sp)
   14548:	00058413          	mv	s0,a1
   1454c:	f44fe0ef          	jal	ra,12c90 <realloc@plt>
   14550:	00051663          	bnez	a0,1455c <sigprocmask@plt+0x14fc>
   14554:	00040463          	beqz	s0,1455c <sigprocmask@plt+0x14fc>
   14558:	fa1ff0ef          	jal	ra,144f8 <sigprocmask@plt+0x1498>
   1455c:	00813083          	ld	ra,8(sp)
   14560:	00013403          	ld	s0,0(sp)
   14564:	01010113          	addi	sp,sp,16
   14568:	00008067          	ret
   1456c:	fe010113          	addi	sp,sp,-32
   14570:	00113c23          	sd	ra,24(sp)
   14574:	00813823          	sd	s0,16(sp)
   14578:	00a13423          	sd	a0,8(sp)
   1457c:	f91ff0ef          	jal	ra,1450c <sigprocmask@plt+0x14ac>
   14580:	00813603          	ld	a2,8(sp)
   14584:	00000593          	li	a1,0
   14588:	00050413          	mv	s0,a0
   1458c:	fd4fe0ef          	jal	ra,12d60 <memset@plt>
   14590:	01813083          	ld	ra,24(sp)
   14594:	00040513          	mv	a0,s0
   14598:	01013403          	ld	s0,16(sp)
   1459c:	02010113          	addi	sp,sp,32
   145a0:	00008067          	ret
   145a4:	00050c63          	beqz	a0,145bc <sigprocmask@plt+0x155c>
   145a8:	ff010113          	addi	sp,sp,-16
   145ac:	00113423          	sd	ra,8(sp)
   145b0:	f50fe0ef          	jal	ra,12d00 <strdup@plt>
   145b4:	00051663          	bnez	a0,145c0 <sigprocmask@plt+0x1560>
   145b8:	f41ff0ef          	jal	ra,144f8 <sigprocmask@plt+0x1498>
   145bc:	00008067          	ret
   145c0:	00813083          	ld	ra,8(sp)
   145c4:	01010113          	addi	sp,sp,16
   145c8:	00008067          	ret
   145cc:	ff010113          	addi	sp,sp,-16
   145d0:	00113423          	sd	ra,8(sp)
   145d4:	b8cfe0ef          	jal	ra,12960 <strndup@plt>
   145d8:	00051463          	bnez	a0,145e0 <sigprocmask@plt+0x1580>
   145dc:	f1dff0ef          	jal	ra,144f8 <sigprocmask@plt+0x1498>
   145e0:	00813083          	ld	ra,8(sp)
   145e4:	01010113          	addi	sp,sp,16
   145e8:	00008067          	ret
   145ec:	fe010113          	addi	sp,sp,-32
   145f0:	00813823          	sd	s0,16(sp)
   145f4:	00050413          	mv	s0,a0
   145f8:	00058513          	mv	a0,a1
   145fc:	00113c23          	sd	ra,24(sp)
   14600:	00b13423          	sd	a1,8(sp)
   14604:	f09ff0ef          	jal	ra,1450c <sigprocmask@plt+0x14ac>
   14608:	00040593          	mv	a1,s0
   1460c:	01013403          	ld	s0,16(sp)
   14610:	00813603          	ld	a2,8(sp)
   14614:	01813083          	ld	ra,24(sp)
   14618:	02010113          	addi	sp,sp,32
   1461c:	bf4fe06f          	j	12a10 <memcpy@plt>
   14620:	04060463          	beqz	a2,14668 <sigprocmask@plt+0x1608>
   14624:	ff010113          	addi	sp,sp,-16
   14628:	00813023          	sd	s0,0(sp)
   1462c:	00113423          	sd	ra,8(sp)
   14630:	00060413          	mv	s0,a2
   14634:	174000ef          	jal	ra,147a8 <sigprocmask@plt+0x1748>
   14638:	02a40063          	beq	s0,a0,14658 <sigprocmask@plt+0x15f8>
   1463c:	00055863          	bgez	a0,1464c <sigprocmask@plt+0x15ec>
   14640:	00024537          	lui	a0,0x24
   14644:	b3050513          	addi	a0,a0,-1232 # 23b30 <sigprocmask@plt+0x10ad0>
   14648:	fccff0ef          	jal	ra,13e14 <sigprocmask@plt+0xdb4>
   1464c:	00024537          	lui	a0,0x24
   14650:	b2050513          	addi	a0,a0,-1248 # 23b20 <sigprocmask@plt+0x10ac0>
   14654:	ff5ff06f          	j	14648 <sigprocmask@plt+0x15e8>
   14658:	00813083          	ld	ra,8(sp)
   1465c:	00013403          	ld	s0,0(sp)
   14660:	01010113          	addi	sp,sp,16
   14664:	00008067          	ret
   14668:	00008067          	ret
   1466c:	fe010113          	addi	sp,sp,-32
   14670:	00813823          	sd	s0,16(sp)
   14674:	00913423          	sd	s1,8(sp)
   14678:	00113c23          	sd	ra,24(sp)
   1467c:	00058413          	mv	s0,a1
   14680:	00060493          	mv	s1,a2
   14684:	c6cfe0ef          	jal	ra,12af0 <lseek@plt>
   14688:	fff00793          	li	a5,-1
   1468c:	00f51c63          	bne	a0,a5,146a4 <sigprocmask@plt+0x1644>
   14690:	00024537          	lui	a0,0x24
   14694:	00048613          	mv	a2,s1
   14698:	00040593          	mv	a1,s0
   1469c:	b4050513          	addi	a0,a0,-1216 # 23b40 <sigprocmask@plt+0x10ae0>
   146a0:	f08ff0ef          	jal	ra,13da8 <sigprocmask@plt+0xd48>
   146a4:	01813083          	ld	ra,24(sp)
   146a8:	01013403          	ld	s0,16(sp)
   146ac:	00813483          	ld	s1,8(sp)
   146b0:	02010113          	addi	sp,sp,32
   146b4:	00008067          	ret
   146b8:	00000513          	li	a0,0
   146bc:	c24fe06f          	j	12ae0 <fflush@plt>
   146c0:	fb0fe06f          	j	12e70 <putchar_unlocked@plt>
   146c4:	fa010113          	addi	sp,sp,-96
   146c8:	02b13423          	sd	a1,40(sp)
   146cc:	02c13823          	sd	a2,48(sp)
   146d0:	00050593          	mv	a1,a0
   146d4:	02810613          	addi	a2,sp,40
   146d8:	00810513          	addi	a0,sp,8
   146dc:	00113c23          	sd	ra,24(sp)
   146e0:	02d13c23          	sd	a3,56(sp)
   146e4:	04e13023          	sd	a4,64(sp)
   146e8:	04f13423          	sd	a5,72(sp)
   146ec:	05013823          	sd	a6,80(sp)
   146f0:	05113c23          	sd	a7,88(sp)
   146f4:	00c13023          	sd	a2,0(sp)
   146f8:	8b9fe0ef          	jal	ra,12fb0 <vasprintf@plt>
   146fc:	00055463          	bgez	a0,14704 <sigprocmask@plt+0x16a4>
   14700:	df9ff0ef          	jal	ra,144f8 <sigprocmask@plt+0x1498>
   14704:	01813083          	ld	ra,24(sp)
   14708:	00813503          	ld	a0,8(sp)
   1470c:	06010113          	addi	sp,sp,96
   14710:	00008067          	ret
   14714:	fd010113          	addi	sp,sp,-48
   14718:	02813023          	sd	s0,32(sp)
   1471c:	00913c23          	sd	s1,24(sp)
   14720:	01213823          	sd	s2,16(sp)
   14724:	01313423          	sd	s3,8(sp)
   14728:	02113423          	sd	ra,40(sp)
   1472c:	00050913          	mv	s2,a0
   14730:	05000493          	li	s1,80
   14734:	00000413          	li	s0,0
   14738:	fff00993          	li	s3,-1
   1473c:	00048593          	mv	a1,s1
   14740:	00040513          	mv	a0,s0
   14744:	df9ff0ef          	jal	ra,1453c <sigprocmask@plt+0x14dc>
   14748:	00050593          	mv	a1,a0
   1474c:	00050413          	mv	s0,a0
   14750:	00048613          	mv	a2,s1
   14754:	00090513          	mv	a0,s2
   14758:	ad8fe0ef          	jal	ra,12a30 <readlink@plt>
   1475c:	0005079b          	sext.w	a5,a0
   14760:	03379863          	bne	a5,s3,14790 <sigprocmask@plt+0x1730>
   14764:	00040513          	mv	a0,s0
   14768:	8e9fe0ef          	jal	ra,13050 <free@plt>
   1476c:	00000413          	li	s0,0
   14770:	02813083          	ld	ra,40(sp)
   14774:	00040513          	mv	a0,s0
   14778:	02013403          	ld	s0,32(sp)
   1477c:	01813483          	ld	s1,24(sp)
   14780:	01013903          	ld	s2,16(sp)
   14784:	00813983          	ld	s3,8(sp)
   14788:	03010113          	addi	sp,sp,48
   1478c:	00008067          	ret
   14790:	05048493          	addi	s1,s1,80
   14794:	fb04871b          	addiw	a4,s1,-80
   14798:	fae7d2e3          	bge	a5,a4,1473c <sigprocmask@plt+0x16dc>
   1479c:	00f407b3          	add	a5,s0,a5
   147a0:	00078023          	sb	zero,0(a5)
   147a4:	fcdff06f          	j	14770 <sigprocmask@plt+0x1710>
   147a8:	fd010113          	addi	sp,sp,-48
   147ac:	02813023          	sd	s0,32(sp)
   147b0:	00913c23          	sd	s1,24(sp)
   147b4:	01213823          	sd	s2,16(sp)
   147b8:	01313423          	sd	s3,8(sp)
   147bc:	02113423          	sd	ra,40(sp)
   147c0:	00050993          	mv	s3,a0
   147c4:	00058913          	mv	s2,a1
   147c8:	00060413          	mv	s0,a2
   147cc:	00000493          	li	s1,0
   147d0:	02040063          	beqz	s0,147f0 <sigprocmask@plt+0x1790>
   147d4:	00040613          	mv	a2,s0
   147d8:	00090593          	mv	a1,s2
   147dc:	00098513          	mv	a0,s3
   147e0:	0b4000ef          	jal	ra,14894 <sigprocmask@plt+0x1834>
   147e4:	02055663          	bgez	a0,14810 <sigprocmask@plt+0x17b0>
   147e8:	00049463          	bnez	s1,147f0 <sigprocmask@plt+0x1790>
   147ec:	00050493          	mv	s1,a0
   147f0:	02813083          	ld	ra,40(sp)
   147f4:	02013403          	ld	s0,32(sp)
   147f8:	01013903          	ld	s2,16(sp)
   147fc:	00813983          	ld	s3,8(sp)
   14800:	00048513          	mv	a0,s1
   14804:	01813483          	ld	s1,24(sp)
   14808:	03010113          	addi	sp,sp,48
   1480c:	00008067          	ret
   14810:	00a484b3          	add	s1,s1,a0
   14814:	00a90933          	add	s2,s2,a0
   14818:	40a40433          	sub	s0,s0,a0
   1481c:	fb5ff06f          	j	147d0 <sigprocmask@plt+0x1770>
   14820:	fd010113          	addi	sp,sp,-48
   14824:	01313423          	sd	s3,8(sp)
   14828:	ca01b983          	ld	s3,-864(gp)
   1482c:	02813023          	sd	s0,32(sp)
   14830:	00913c23          	sd	s1,24(sp)
   14834:	01213823          	sd	s2,16(sp)
   14838:	01413023          	sd	s4,0(sp)
   1483c:	02113423          	sd	ra,40(sp)
   14840:	00050413          	mv	s0,a0
   14844:	00058493          	mv	s1,a1
   14848:	00060913          	mv	s2,a2
   1484c:	00400a13          	li	s4,4
   14850:	00090613          	mv	a2,s2
   14854:	00048593          	mv	a1,s1
   14858:	00040513          	mv	a0,s0
   1485c:	bf4fe0ef          	jal	ra,12c50 <read@plt>
   14860:	00055a63          	bgez	a0,14874 <sigprocmask@plt+0x1814>
   14864:	0009a783          	lw	a5,0(s3)
   14868:	01479663          	bne	a5,s4,14874 <sigprocmask@plt+0x1814>
   1486c:	0009a023          	sw	zero,0(s3)
   14870:	fe1ff06f          	j	14850 <sigprocmask@plt+0x17f0>
   14874:	02813083          	ld	ra,40(sp)
   14878:	02013403          	ld	s0,32(sp)
   1487c:	01813483          	ld	s1,24(sp)
   14880:	01013903          	ld	s2,16(sp)
   14884:	00813983          	ld	s3,8(sp)
   14888:	00013a03          	ld	s4,0(sp)
   1488c:	03010113          	addi	sp,sp,48
   14890:	00008067          	ret
   14894:	fd010113          	addi	sp,sp,-48
   14898:	01313423          	sd	s3,8(sp)
   1489c:	ca01b983          	ld	s3,-864(gp)
   148a0:	02813023          	sd	s0,32(sp)
   148a4:	00913c23          	sd	s1,24(sp)
   148a8:	01213823          	sd	s2,16(sp)
   148ac:	01413023          	sd	s4,0(sp)
   148b0:	02113423          	sd	ra,40(sp)
   148b4:	00050413          	mv	s0,a0
   148b8:	00058493          	mv	s1,a1
   148bc:	00060913          	mv	s2,a2
   148c0:	00400a13          	li	s4,4
   148c4:	00090613          	mv	a2,s2
   148c8:	00048593          	mv	a1,s1
   148cc:	00040513          	mv	a0,s0
   148d0:	aa0fe0ef          	jal	ra,12b70 <write@plt>
   148d4:	00055a63          	bgez	a0,148e8 <sigprocmask@plt+0x1888>
   148d8:	0009a783          	lw	a5,0(s3)
   148dc:	01479663          	bne	a5,s4,148e8 <sigprocmask@plt+0x1888>
   148e0:	0009a023          	sw	zero,0(s3)
   148e4:	fe1ff06f          	j	148c4 <sigprocmask@plt+0x1864>
   148e8:	02813083          	ld	ra,40(sp)
   148ec:	02013403          	ld	s0,32(sp)
   148f0:	01813483          	ld	s1,24(sp)
   148f4:	01013903          	ld	s2,16(sp)
   148f8:	00813983          	ld	s3,8(sp)
   148fc:	00013a03          	ld	s4,0(sp)
   14900:	03010113          	addi	sp,sp,48
   14904:	00008067          	ret
   14908:	00000613          	li	a2,0
   1490c:	be4fe06f          	j	12cf0 <sigaction@plt>
   14910:	f7010113          	addi	sp,sp,-144
   14914:	08813023          	sd	s0,128(sp)
   14918:	00050413          	mv	s0,a0
   1491c:	00010513          	mv	a0,sp
   14920:	08113423          	sd	ra,136(sp)
   14924:	b7cfe0ef          	jal	ra,12ca0 <sigfillset@plt>
   14928:	00010593          	mv	a1,sp
   1492c:	00040513          	mv	a0,s0
   14930:	00000613          	li	a2,0
   14934:	f2cfe0ef          	jal	ra,13060 <sigprocmask@plt>
   14938:	08813083          	ld	ra,136(sp)
   1493c:	08013403          	ld	s0,128(sp)
   14940:	09010113          	addi	sp,sp,144
   14944:	00008067          	ret
   14948:	00058613          	mv	a2,a1
   1494c:	f14fe06f          	j	13060 <sigprocmask@plt>
   14950:	ff010113          	addi	sp,sp,-16
   14954:	00050593          	mv	a1,a0
   14958:	00100513          	li	a0,1
   1495c:	00113423          	sd	ra,8(sp)
   14960:	f31fd0ef          	jal	ra,12890 <clock_gettime@plt>
   14964:	00050863          	beqz	a0,14974 <sigprocmask@plt+0x1914>
   14968:	00024537          	lui	a0,0x24
   1496c:	b5050513          	addi	a0,a0,-1200 # 23b50 <sigprocmask@plt+0x10af0>
   14970:	f74ff0ef          	jal	ra,140e4 <sigprocmask@plt+0x1084>
   14974:	00813083          	ld	ra,8(sp)
   14978:	01010113          	addi	sp,sp,16
   1497c:	00008067          	ret
   14980:	fd010113          	addi	sp,sp,-48
   14984:	02813023          	sd	s0,32(sp)
   14988:	00913c23          	sd	s1,24(sp)
   1498c:	02113423          	sd	ra,40(sp)
   14990:	00050413          	mv	s0,a0
   14994:	00058493          	mv	s1,a1
   14998:	00060513          	mv	a0,a2
   1499c:	00061863          	bnez	a2,149ac <sigprocmask@plt+0x194c>
   149a0:	00810513          	addi	a0,sp,8
   149a4:	c1cfe0ef          	jal	ra,12dc0 <time@plt>
   149a8:	00810513          	addi	a0,sp,8
   149ac:	ba4fe0ef          	jal	ra,12d50 <localtime@plt>
   149b0:	02049593          	slli	a1,s1,0x20
   149b4:	00024637          	lui	a2,0x24
   149b8:	00050693          	mv	a3,a0
   149bc:	b7060613          	addi	a2,a2,-1168 # 23b70 <sigprocmask@plt+0x10b10>
   149c0:	00040513          	mv	a0,s0
   149c4:	0205d593          	srli	a1,a1,0x20
   149c8:	ce8fe0ef          	jal	ra,12eb0 <strftime@plt>
   149cc:	02813083          	ld	ra,40(sp)
   149d0:	00a40533          	add	a0,s0,a0
   149d4:	02013403          	ld	s0,32(sp)
   149d8:	01813483          	ld	s1,24(sp)
   149dc:	03010113          	addi	sp,sp,48
   149e0:	00008067          	ret
   149e4:	fe010113          	addi	sp,sp,-32
   149e8:	00010513          	mv	a0,sp
   149ec:	00113c23          	sd	ra,24(sp)
   149f0:	f61ff0ef          	jal	ra,14950 <sigprocmask@plt+0x18f0>
   149f4:	00013783          	ld	a5,0(sp)
   149f8:	3e800513          	li	a0,1000
   149fc:	000f4737          	lui	a4,0xf4
   14a00:	02f50533          	mul	a0,a0,a5
   14a04:	00813783          	ld	a5,8(sp)
   14a08:	24070713          	addi	a4,a4,576 # f4240 <optind+0xccc70>
   14a0c:	01813083          	ld	ra,24(sp)
   14a10:	02010113          	addi	sp,sp,32
   14a14:	02e7c7b3          	div	a5,a5,a4
   14a18:	00f50533          	add	a0,a0,a5
   14a1c:	00008067          	ret
   14a20:	ca01b783          	ld	a5,-864(gp)
   14a24:	fc010113          	addi	sp,sp,-64
   14a28:	02813823          	sd	s0,48(sp)
   14a2c:	02913423          	sd	s1,40(sp)
   14a30:	03213023          	sd	s2,32(sp)
   14a34:	01313c23          	sd	s3,24(sp)
   14a38:	02113c23          	sd	ra,56(sp)
   14a3c:	00050413          	mv	s0,a0
   14a40:	08000493          	li	s1,128
   14a44:	00078993          	mv	s3,a5
   14a48:	02200913          	li	s2,34
   14a4c:	0404859b          	addiw	a1,s1,64
   14a50:	0005849b          	sext.w	s1,a1
   14a54:	02059593          	slli	a1,a1,0x20
   14a58:	0205d593          	srli	a1,a1,0x20
   14a5c:	00040513          	mv	a0,s0
   14a60:	00b13423          	sd	a1,8(sp)
   14a64:	ad9ff0ef          	jal	ra,1453c <sigprocmask@plt+0x14dc>
   14a68:	00813583          	ld	a1,8(sp)
   14a6c:	00050413          	mv	s0,a0
   14a70:	ba0fe0ef          	jal	ra,12e10 <getcwd@plt>
   14a74:	04051063          	bnez	a0,14ab4 <sigprocmask@plt+0x1a54>
   14a78:	0009a783          	lw	a5,0(s3)
   14a7c:	fd2788e3          	beq	a5,s2,14a4c <sigprocmask@plt+0x19ec>
   14a80:	00040513          	mv	a0,s0
   14a84:	dccfe0ef          	jal	ra,13050 <free@plt>
   14a88:	00024537          	lui	a0,0x24
   14a8c:	b8050513          	addi	a0,a0,-1152 # 23b80 <sigprocmask@plt+0x10b20>
   14a90:	b74ff0ef          	jal	ra,13e04 <sigprocmask@plt+0xda4>
   14a94:	03813083          	ld	ra,56(sp)
   14a98:	03013403          	ld	s0,48(sp)
   14a9c:	02813483          	ld	s1,40(sp)
   14aa0:	02013903          	ld	s2,32(sp)
   14aa4:	01813983          	ld	s3,24(sp)
   14aa8:	00000513          	li	a0,0
   14aac:	04010113          	addi	sp,sp,64
   14ab0:	00008067          	ret
   14ab4:	00040513          	mv	a0,s0
   14ab8:	cb8fe0ef          	jal	ra,12f70 <strlen@plt>
   14abc:	00150593          	addi	a1,a0,1
   14ac0:	00040513          	mv	a0,s0
   14ac4:	03013403          	ld	s0,48(sp)
   14ac8:	03813083          	ld	ra,56(sp)
   14acc:	02813483          	ld	s1,40(sp)
   14ad0:	02013903          	ld	s2,32(sp)
   14ad4:	01813983          	ld	s3,24(sp)
   14ad8:	04010113          	addi	sp,sp,64
   14adc:	a61ff06f          	j	1453c <sigprocmask@plt+0x14dc>
   14ae0:	0005c783          	lbu	a5,0(a1)
   14ae4:	04078663          	beqz	a5,14b30 <sigprocmask@plt+0x1ad0>
   14ae8:	fd07869b          	addiw	a3,a5,-48
   14aec:	0ff6f693          	andi	a3,a3,255
   14af0:	00900613          	li	a2,9
   14af4:	ca01b703          	ld	a4,-864(gp)
   14af8:	02d67063          	bgeu	a2,a3,14b18 <sigprocmask@plt+0x1ab8>
   14afc:	0207e793          	ori	a5,a5,32
   14b00:	f9f7879b          	addiw	a5,a5,-97
   14b04:	0ff7f793          	andi	a5,a5,255
   14b08:	01900693          	li	a3,25
   14b0c:	00f6f663          	bgeu	a3,a5,14b18 <sigprocmask@plt+0x1ab8>
   14b10:	00072783          	lw	a5,0(a4)
   14b14:	00078a63          	beqz	a5,14b28 <sigprocmask@plt+0x1ac8>
   14b18:	02200793          	li	a5,34
   14b1c:	00f72023          	sw	a5,0(a4)
   14b20:	fff00513          	li	a0,-1
   14b24:	00008067          	ret
   14b28:	01600793          	li	a5,22
   14b2c:	00f72023          	sw	a5,0(a4)
   14b30:	00008067          	ret
   14b34:	fe010113          	addi	sp,sp,-32
   14b38:	00813823          	sd	s0,16(sp)
   14b3c:	00113c23          	sd	ra,24(sp)
   14b40:	00810413          	addi	s0,sp,8
   14b44:	00058463          	beqz	a1,14b4c <sigprocmask@plt+0x1aec>
   14b48:	00058413          	mv	s0,a1
   14b4c:	00a43023          	sd	a0,0(s0)
   14b50:	00054783          	lbu	a5,0(a0)
   14b54:	ca01b683          	ld	a3,-864(gp)
   14b58:	fd07871b          	addiw	a4,a5,-48
   14b5c:	0ff77713          	andi	a4,a4,255
   14b60:	00900593          	li	a1,9
   14b64:	02e5fa63          	bgeu	a1,a4,14b98 <sigprocmask@plt+0x1b38>
   14b68:	0207e793          	ori	a5,a5,32
   14b6c:	f9f7879b          	addiw	a5,a5,-97
   14b70:	0ff7f793          	andi	a5,a5,255
   14b74:	01900713          	li	a4,25
   14b78:	02f77063          	bgeu	a4,a5,14b98 <sigprocmask@plt+0x1b38>
   14b7c:	02200793          	li	a5,34
   14b80:	00f6a023          	sw	a5,0(a3)
   14b84:	fff00513          	li	a0,-1
   14b88:	01813083          	ld	ra,24(sp)
   14b8c:	01013403          	ld	s0,16(sp)
   14b90:	02010113          	addi	sp,sp,32
   14b94:	00008067          	ret
   14b98:	00040593          	mv	a1,s0
   14b9c:	0006a023          	sw	zero,0(a3)
   14ba0:	970fe0ef          	jal	ra,12d10 <strtoull@plt>
   14ba4:	00043583          	ld	a1,0(s0)
   14ba8:	f39ff0ef          	jal	ra,14ae0 <sigprocmask@plt+0x1a80>
   14bac:	fddff06f          	j	14b88 <sigprocmask@plt+0x1b28>
   14bb0:	fd010113          	addi	sp,sp,-48
   14bb4:	02813023          	sd	s0,32(sp)
   14bb8:	02113423          	sd	ra,40(sp)
   14bbc:	00913c23          	sd	s1,24(sp)
   14bc0:	00810413          	addi	s0,sp,8
   14bc4:	00058463          	beqz	a1,14bcc <sigprocmask@plt+0x1b6c>
   14bc8:	00058413          	mv	s0,a1
   14bcc:	00a43023          	sd	a0,0(s0)
   14bd0:	00054783          	lbu	a5,0(a0)
   14bd4:	ca01b483          	ld	s1,-864(gp)
   14bd8:	fd07871b          	addiw	a4,a5,-48
   14bdc:	0ff77713          	andi	a4,a4,255
   14be0:	00900693          	li	a3,9
   14be4:	02e6fc63          	bgeu	a3,a4,14c1c <sigprocmask@plt+0x1bbc>
   14be8:	0207e793          	ori	a5,a5,32
   14bec:	f9f7879b          	addiw	a5,a5,-97
   14bf0:	0ff7f793          	andi	a5,a5,255
   14bf4:	01900713          	li	a4,25
   14bf8:	02f77263          	bgeu	a4,a5,14c1c <sigprocmask@plt+0x1bbc>
   14bfc:	02200793          	li	a5,34
   14c00:	00f4a023          	sw	a5,0(s1)
   14c04:	fff00513          	li	a0,-1
   14c08:	02813083          	ld	ra,40(sp)
   14c0c:	02013403          	ld	s0,32(sp)
   14c10:	01813483          	ld	s1,24(sp)
   14c14:	03010113          	addi	sp,sp,48
   14c18:	00008067          	ret
   14c1c:	0004a023          	sw	zero,0(s1)
   14c20:	00040593          	mv	a1,s0
   14c24:	e9dfd0ef          	jal	ra,12ac0 <strtoul@plt>
   14c28:	fff00793          	li	a5,-1
   14c2c:	0207d793          	srli	a5,a5,0x20
   14c30:	fca7e6e3          	bltu	a5,a0,14bfc <sigprocmask@plt+0x1b9c>
   14c34:	00043583          	ld	a1,0(s0)
   14c38:	ea9ff0ef          	jal	ra,14ae0 <sigprocmask@plt+0x1a80>
   14c3c:	0005051b          	sext.w	a0,a0
   14c40:	fc9ff06f          	j	14c08 <sigprocmask@plt+0x1ba8>
   14c44:	fc010113          	addi	sp,sp,-64
   14c48:	02813823          	sd	s0,48(sp)
   14c4c:	02913423          	sd	s1,40(sp)
   14c50:	03213023          	sd	s2,32(sp)
   14c54:	01313c23          	sd	s3,24(sp)
   14c58:	02113c23          	sd	ra,56(sp)
   14c5c:	01413823          	sd	s4,16(sp)
   14c60:	01513423          	sd	s5,8(sp)
   14c64:	04010413          	addi	s0,sp,64
   14c68:	00058993          	mv	s3,a1
   14c6c:	00050913          	mv	s2,a0
   14c70:	03a00593          	li	a1,58
   14c74:	00098513          	mv	a0,s3
   14c78:	b18fe0ef          	jal	ra,12f90 <strchr@plt>
   14c7c:	00050493          	mv	s1,a0
   14c80:	02050663          	beqz	a0,14cac <sigprocmask@plt+0x1c4c>
   14c84:	00150493          	addi	s1,a0,1
   14c88:	4134863b          	subw	a2,s1,s3
   14c8c:	00f60793          	addi	a5,a2,15
   14c90:	ff07f793          	andi	a5,a5,-16
   14c94:	40f10133          	sub	sp,sp,a5
   14c98:	00010a13          	mv	s4,sp
   14c9c:	00098593          	mv	a1,s3
   14ca0:	000a0513          	mv	a0,s4
   14ca4:	1100e0ef          	jal	ra,22db4 <sigprocmask@plt+0xfd54>
   14ca8:	000a0993          	mv	s3,s4
   14cac:	00a00613          	li	a2,10
   14cb0:	00000593          	li	a1,0
   14cb4:	00098513          	mv	a0,s3
   14cb8:	ef9ff0ef          	jal	ra,14bb0 <sigprocmask@plt+0x1b50>
   14cbc:	ca01ba83          	ld	s5,-864(gp)
   14cc0:	00050a1b          	sext.w	s4,a0
   14cc4:	000aa783          	lw	a5,0(s5)
   14cc8:	04079463          	bnez	a5,14d10 <sigprocmask@plt+0x1cb0>
   14ccc:	01492023          	sw	s4,0(s2)
   14cd0:	000a0513          	mv	a0,s4
   14cd4:	92cfe0ef          	jal	ra,12e00 <getpwuid@plt>
   14cd8:	00050463          	beqz	a0,14ce0 <sigprocmask@plt+0x1c80>
   14cdc:	01452a03          	lw	s4,20(a0)
   14ce0:	01492223          	sw	s4,4(s2)
   14ce4:	00100993          	li	s3,1
   14ce8:	02048c63          	beqz	s1,14d20 <sigprocmask@plt+0x1cc0>
   14cec:	00a00613          	li	a2,10
   14cf0:	00000593          	li	a1,0
   14cf4:	00048513          	mv	a0,s1
   14cf8:	eb9ff0ef          	jal	ra,14bb0 <sigprocmask@plt+0x1b50>
   14cfc:	000aa783          	lw	a5,0(s5)
   14d00:	0005051b          	sext.w	a0,a0
   14d04:	04079e63          	bnez	a5,14d60 <sigprocmask@plt+0x1d00>
   14d08:	00a92223          	sw	a0,4(s2)
   14d0c:	0140006f          	j	14d20 <sigprocmask@plt+0x1cc0>
   14d10:	00098513          	mv	a0,s3
   14d14:	91cfe0ef          	jal	ra,12e30 <getpwnam@plt>
   14d18:	02051a63          	bnez	a0,14d4c <sigprocmask@plt+0x1cec>
   14d1c:	00000993          	li	s3,0
   14d20:	fc040113          	addi	sp,s0,-64
   14d24:	03813083          	ld	ra,56(sp)
   14d28:	00098513          	mv	a0,s3
   14d2c:	03013403          	ld	s0,48(sp)
   14d30:	02813483          	ld	s1,40(sp)
   14d34:	02013903          	ld	s2,32(sp)
   14d38:	01813983          	ld	s3,24(sp)
   14d3c:	01013a03          	ld	s4,16(sp)
   14d40:	00813a83          	ld	s5,8(sp)
   14d44:	04010113          	addi	sp,sp,64
   14d48:	00008067          	ret
   14d4c:	01052783          	lw	a5,16(a0)
   14d50:	00f92023          	sw	a5,0(s2)
   14d54:	01452783          	lw	a5,20(a0)
   14d58:	00f92223          	sw	a5,4(s2)
   14d5c:	f89ff06f          	j	14ce4 <sigprocmask@plt+0x1c84>
   14d60:	00048513          	mv	a0,s1
   14d64:	99cfe0ef          	jal	ra,12f00 <getgrnam@plt>
   14d68:	fa050ae3          	beqz	a0,14d1c <sigprocmask@plt+0x1cbc>
   14d6c:	01052783          	lw	a5,16(a0)
   14d70:	00f92223          	sw	a5,4(s2)
   14d74:	fadff06f          	j	14d20 <sigprocmask@plt+0x1cc0>
   14d78:	0005c783          	lbu	a5,0(a1)
   14d7c:	00079463          	bnez	a5,14d84 <sigprocmask@plt+0x1d24>
   14d80:	00008067          	ret
   14d84:	00054703          	lbu	a4,0(a0)
   14d88:	00150513          	addi	a0,a0,1
   14d8c:	00158593          	addi	a1,a1,1
   14d90:	fef704e3          	beq	a4,a5,14d78 <sigprocmask@plt+0x1d18>
   14d94:	00000513          	li	a0,0
   14d98:	00008067          	ret
   14d9c:	00900713          	li	a4,9
   14da0:	00054783          	lbu	a5,0(a0)
   14da4:	fd07879b          	addiw	a5,a5,-48
   14da8:	0ff7f793          	andi	a5,a5,255
   14dac:	00f76c63          	bltu	a4,a5,14dc4 <sigprocmask@plt+0x1d64>
   14db0:	00154783          	lbu	a5,1(a0)
   14db4:	00150513          	addi	a0,a0,1
   14db8:	fe0794e3          	bnez	a5,14da0 <sigprocmask@plt+0x1d40>
   14dbc:	00100513          	li	a0,1
   14dc0:	00008067          	ret
   14dc4:	00000513          	li	a0,0
   14dc8:	00008067          	ret
   14dcc:	03d00693          	li	a3,61
   14dd0:	00054783          	lbu	a5,0(a0)
   14dd4:	0005c703          	lbu	a4,0(a1)
   14dd8:	02e78263          	beq	a5,a4,14dfc <sigprocmask@plt+0x1d9c>
   14ddc:	03d00693          	li	a3,61
   14de0:	00d79463          	bne	a5,a3,14de8 <sigprocmask@plt+0x1d88>
   14de4:	00000793          	li	a5,0
   14de8:	03d00693          	li	a3,61
   14dec:	00d71463          	bne	a4,a3,14df4 <sigprocmask@plt+0x1d94>
   14df0:	00000713          	li	a4,0
   14df4:	40e7853b          	subw	a0,a5,a4
   14df8:	00008067          	ret
   14dfc:	fe078ce3          	beqz	a5,14df4 <sigprocmask@plt+0x1d94>
   14e00:	fed78ae3          	beq	a5,a3,14df4 <sigprocmask@plt+0x1d94>
   14e04:	00150513          	addi	a0,a0,1
   14e08:	00158593          	addi	a1,a1,1
   14e0c:	fc5ff06f          	j	14dd0 <sigprocmask@plt+0x1d70>
   14e10:	00054783          	lbu	a5,0(a0)
   14e14:	03d00693          	li	a3,61
   14e18:	0047979b          	slliw	a5,a5,0x4
   14e1c:	00054703          	lbu	a4,0(a0)
   14e20:	00070463          	beqz	a4,14e28 <sigprocmask@plt+0x1dc8>
   14e24:	02d71263          	bne	a4,a3,14e48 <sigprocmask@plt+0x1de8>
   14e28:	02700513          	li	a0,39
   14e2c:	02a7f53b          	remuw	a0,a5,a0
   14e30:	d701b783          	ld	a5,-656(gp)
   14e34:	0045051b          	addiw	a0,a0,4
   14e38:	02051513          	slli	a0,a0,0x20
   14e3c:	01d55513          	srli	a0,a0,0x1d
   14e40:	00a78533          	add	a0,a5,a0
   14e44:	00008067          	ret
   14e48:	00150513          	addi	a0,a0,1
   14e4c:	00f707bb          	addw	a5,a4,a5
   14e50:	fcdff06f          	j	14e1c <sigprocmask@plt+0x1dbc>
   14e54:	0005b583          	ld	a1,0(a1)
   14e58:	00053503          	ld	a0,0(a0)
   14e5c:	f71ff06f          	j	14dcc <sigprocmask@plt+0x1d6c>
   14e60:	fe010113          	addi	sp,sp,-32
   14e64:	00813823          	sd	s0,16(sp)
   14e68:	01213023          	sd	s2,0(sp)
   14e6c:	00113c23          	sd	ra,24(sp)
   14e70:	00913423          	sd	s1,8(sp)
   14e74:	00058913          	mv	s2,a1
   14e78:	00050413          	mv	s0,a0
   14e7c:	00043483          	ld	s1,0(s0)
   14e80:	02049063          	bnez	s1,14ea0 <sigprocmask@plt+0x1e40>
   14e84:	01813083          	ld	ra,24(sp)
   14e88:	00040513          	mv	a0,s0
   14e8c:	01013403          	ld	s0,16(sp)
   14e90:	00813483          	ld	s1,8(sp)
   14e94:	00013903          	ld	s2,0(sp)
   14e98:	02010113          	addi	sp,sp,32
   14e9c:	00008067          	ret
   14ea0:	0104b503          	ld	a0,16(s1)
   14ea4:	00090593          	mv	a1,s2
   14ea8:	f25ff0ef          	jal	ra,14dcc <sigprocmask@plt+0x1d6c>
   14eac:	fc050ce3          	beqz	a0,14e84 <sigprocmask@plt+0x1e24>
   14eb0:	00048413          	mv	s0,s1
   14eb4:	fc9ff06f          	j	14e7c <sigprocmask@plt+0x1e1c>
   14eb8:	02050a63          	beqz	a0,14eec <sigprocmask@plt+0x1e8c>
   14ebc:	da01a223          	sw	zero,-604(gp)
   14ec0:	00100793          	li	a5,1
   14ec4:	00f58c63          	beq	a1,a5,14edc <sigprocmask@plt+0x1e7c>
   14ec8:	00200793          	li	a5,2
   14ecc:	02f58263          	beq	a1,a5,14ef0 <sigprocmask@plt+0x1e90>
   14ed0:	d681b783          	ld	a5,-664(gp)
   14ed4:	05478793          	addi	a5,a5,84
   14ed8:	0100006f          	j	14ee8 <sigprocmask@plt+0x1e88>
   14edc:	d701b783          	ld	a5,-656(gp)
   14ee0:	1a87b783          	ld	a5,424(a5)
   14ee4:	00478793          	addi	a5,a5,4
   14ee8:	ccf1b423          	sd	a5,-824(gp)
   14eec:	00008067          	ret
   14ef0:	d701b783          	ld	a5,-656(gp)
   14ef4:	1c87b783          	ld	a5,456(a5)
   14ef8:	fedff06f          	j	14ee4 <sigprocmask@plt+0x1e84>
   14efc:	01856703          	lwu	a4,24(a0)
   14f00:	01053783          	ld	a5,16(a0)
   14f04:	00471713          	slli	a4,a4,0x4
   14f08:	00e787b3          	add	a5,a5,a4
   14f0c:	ff47a783          	lw	a5,-12(a5)
   14f10:	07f7f513          	andi	a0,a5,127
   14f14:	00051863          	bnez	a0,14f24 <sigprocmask@plt+0x1ec4>
   14f18:	4087d51b          	sraiw	a0,a5,0x8
   14f1c:	0ff57513          	andi	a0,a0,255
   14f20:	00008067          	ret
   14f24:	08056513          	ori	a0,a0,128
   14f28:	00008067          	ret
   14f2c:	d9018793          	addi	a5,gp,-624
   14f30:	0007a503          	lw	a0,0(a5)
   14f34:	00100713          	li	a4,1
   14f38:	fff5069b          	addiw	a3,a0,-1
   14f3c:	02d76263          	bltu	a4,a3,14f60 <sigprocmask@plt+0x1f00>
   14f40:	db018713          	addi	a4,gp,-592
   14f44:	00072683          	lw	a3,0(a4)
   14f48:	fff6861b          	addiw	a2,a3,-1
   14f4c:	00c72023          	sw	a2,0(a4)
   14f50:	00c04663          	bgtz	a2,14f5c <sigprocmask@plt+0x1efc>
   14f54:	0007a023          	sw	zero,0(a5)
   14f58:	00008067          	ret
   14f5c:	00100513          	li	a0,1
   14f60:	00008067          	ret
   14f64:	00100513          	li	a0,1
   14f68:	00008067          	ret
   14f6c:	00000513          	li	a0,0
   14f70:	00008067          	ret
   14f74:	01b00793          	li	a5,27
   14f78:	02a7e063          	bltu	a5,a0,14f98 <sigprocmask@plt+0x1f38>
   14f7c:	000247b7          	lui	a5,0x24
   14f80:	49078793          	addi	a5,a5,1168 # 24490 <sigprocmask@plt+0x11430>
   14f84:	00451513          	slli	a0,a0,0x4
   14f88:	00a78533          	add	a0,a5,a0
   14f8c:	00053503          	ld	a0,0(a0)
   14f90:	00150513          	addi	a0,a0,1
   14f94:	00008067          	ret
   14f98:	00000513          	li	a0,0
   14f9c:	00008067          	ret
   14fa0:	d681b783          	ld	a5,-664(gp)
   14fa4:	0017c503          	lbu	a0,1(a5)
   14fa8:	00008067          	ret
   14fac:	c781b703          	ld	a4,-904(gp)
   14fb0:	00200593          	li	a1,2
   14fb4:	00872783          	lw	a5,8(a4)
   14fb8:	0017879b          	addiw	a5,a5,1
   14fbc:	00f72423          	sw	a5,8(a4)
   14fc0:	d8c1a503          	lw	a0,-628(gp)
   14fc4:	ef5ff06f          	j	14eb8 <sigprocmask@plt+0x1e58>
   14fc8:	c781b703          	ld	a4,-904(gp)
   14fcc:	00872783          	lw	a5,8(a4)
   14fd0:	0017879b          	addiw	a5,a5,1
   14fd4:	00f72423          	sw	a5,8(a4)
   14fd8:	d8c1a703          	lw	a4,-628(gp)
   14fdc:	dae1a223          	sw	a4,-604(gp)
   14fe0:	00008067          	ret
   14fe4:	c781b703          	ld	a4,-904(gp)
   14fe8:	06872783          	lw	a5,104(a4)
   14fec:	0017879b          	addiw	a5,a5,1
   14ff0:	06f72423          	sw	a5,104(a4)
   14ff4:	00008067          	ret
   14ff8:	ff010113          	addi	sp,sp,-16
   14ffc:	07000513          	li	a0,112
   15000:	00113423          	sd	ra,8(sp)
   15004:	d68ff0ef          	jal	ra,1456c <sigprocmask@plt+0x150c>
   15008:	c7818793          	addi	a5,gp,-904
   1500c:	0007b703          	ld	a4,0(a5)
   15010:	00813083          	ld	ra,8(sp)
   15014:	00a7b023          	sd	a0,0(a5)
   15018:	00e53023          	sd	a4,0(a0)
   1501c:	fff00713          	li	a4,-1
   15020:	00e52623          	sw	a4,12(a0)
   15024:	01010113          	addi	sp,sp,16
   15028:	00008067          	ret
   1502c:	fe010113          	addi	sp,sp,-32
   15030:	01213023          	sd	s2,0(sp)
   15034:	00113c23          	sd	ra,24(sp)
   15038:	00813823          	sd	s0,16(sp)
   1503c:	00913423          	sd	s1,8(sp)
   15040:	d701b903          	ld	s2,-656(gp)
   15044:	02051063          	bnez	a0,15064 <sigprocmask@plt+0x2004>
   15048:	01093503          	ld	a0,16(s2)
   1504c:	01813083          	ld	ra,24(sp)
   15050:	01013403          	ld	s0,16(sp)
   15054:	00813483          	ld	s1,8(sp)
   15058:	00013903          	ld	s2,0(sp)
   1505c:	02010113          	addi	sp,sp,32
   15060:	00008067          	ret
   15064:	00000493          	li	s1,0
   15068:	00853503          	ld	a0,8(a0)
   1506c:	0014849b          	addiw	s1,s1,1
   15070:	fe051ce3          	bnez	a0,15068 <sigprocmask@plt+0x2008>
   15074:	00248413          	addi	s0,s1,2
   15078:	00341413          	slli	s0,s0,0x3
   1507c:	00040513          	mv	a0,s0
   15080:	cecff0ef          	jal	ra,1456c <sigprocmask@plt+0x150c>
   15084:	ff040793          	addi	a5,s0,-16
   15088:	00050713          	mv	a4,a0
   1508c:	00952423          	sw	s1,8(a0)
   15090:	00f507b3          	add	a5,a0,a5
   15094:	fff00613          	li	a2,-1
   15098:	ffe00693          	li	a3,-2
   1509c:	fff4849b          	addiw	s1,s1,-1
   150a0:	ff878793          	addi	a5,a5,-8
   150a4:	00c49a63          	bne	s1,a2,150b8 <sigprocmask@plt+0x2058>
   150a8:	01093503          	ld	a0,16(s2)
   150ac:	00a73023          	sd	a0,0(a4)
   150b0:	00e93823          	sd	a4,16(s2)
   150b4:	f99ff06f          	j	1504c <sigprocmask@plt+0x1fec>
   150b8:	00d7a823          	sw	a3,16(a5)
   150bc:	00d7a623          	sw	a3,12(a5)
   150c0:	fddff06f          	j	1509c <sigprocmask@plt+0x203c>
   150c4:	00050e63          	beqz	a0,150e0 <sigprocmask@plt+0x2080>
   150c8:	00052703          	lw	a4,0(a0)
   150cc:	fff7069b          	addiw	a3,a4,-1
   150d0:	0006c663          	bltz	a3,150dc <sigprocmask@plt+0x207c>
   150d4:	00d52023          	sw	a3,0(a0)
   150d8:	00008067          	ret
   150dc:	f75fd06f          	j	13050 <free@plt>
   150e0:	00008067          	ret
   150e4:	00454783          	lbu	a5,4(a0)
   150e8:	0ff7f793          	andi	a5,a5,255
   150ec:	04078463          	beqz	a5,15134 <sigprocmask@plt+0x20d4>
   150f0:	fe010113          	addi	sp,sp,-32
   150f4:	00913423          	sd	s1,8(sp)
   150f8:	00853483          	ld	s1,8(a0)
   150fc:	00813823          	sd	s0,16(sp)
   15100:	00113c23          	sd	ra,24(sp)
   15104:	00048413          	mv	s0,s1
   15108:	00043503          	ld	a0,0(s0)
   1510c:	00051e63          	bnez	a0,15128 <sigprocmask@plt+0x20c8>
   15110:	01013403          	ld	s0,16(sp)
   15114:	01813083          	ld	ra,24(sp)
   15118:	00048513          	mv	a0,s1
   1511c:	00813483          	ld	s1,8(sp)
   15120:	02010113          	addi	sp,sp,32
   15124:	f2dfd06f          	j	13050 <free@plt>
   15128:	00840413          	addi	s0,s0,8
   1512c:	f25fd0ef          	jal	ra,13050 <free@plt>
   15130:	fd9ff06f          	j	15108 <sigprocmask@plt+0x20a8>
   15134:	00008067          	ret
   15138:	0005b583          	ld	a1,0(a1)
   1513c:	cb5fd06f          	j	12df0 <strcmp@plt>
   15140:	0005b583          	ld	a1,0(a1)
   15144:	00158593          	addi	a1,a1,1
   15148:	ca9fd06f          	j	12df0 <strcmp@plt>
   1514c:	d681b783          	ld	a5,-664(gp)
   15150:	ff010113          	addi	sp,sp,-16
   15154:	00113423          	sd	ra,8(sp)
   15158:	0407a703          	lw	a4,64(a5)
   1515c:	0017071b          	addiw	a4,a4,1
   15160:	04e7a023          	sw	a4,64(a5)
   15164:	04a7a823          	sw	a0,80(a5)
   15168:	0387b503          	ld	a0,56(a5)
   1516c:	00100593          	li	a1,1
   15170:	f10fd0ef          	jal	ra,12880 <longjmp@plt>
   15174:	fd010113          	addi	sp,sp,-48
   15178:	00913c23          	sd	s1,24(sp)
   1517c:	01313423          	sd	s3,8(sp)
   15180:	02113423          	sd	ra,40(sp)
   15184:	02813023          	sd	s0,32(sp)
   15188:	01213823          	sd	s2,16(sp)
   1518c:	00054783          	lbu	a5,0(a0)
   15190:	00050493          	mv	s1,a0
   15194:	00058993          	mv	s3,a1
   15198:	0047979b          	slliw	a5,a5,0x4
   1519c:	00050713          	mv	a4,a0
   151a0:	00074683          	lbu	a3,0(a4)
   151a4:	08069063          	bnez	a3,15224 <sigprocmask@plt+0x21c4>
   151a8:	03179793          	slli	a5,a5,0x31
   151ac:	01f00713          	li	a4,31
   151b0:	0317d793          	srli	a5,a5,0x31
   151b4:	02e7f7bb          	remuw	a5,a5,a4
   151b8:	cd01b903          	ld	s2,-816(gp)
   151bc:	02079793          	slli	a5,a5,0x20
   151c0:	01d7d793          	srli	a5,a5,0x1d
   151c4:	00f90933          	add	s2,s2,a5
   151c8:	00093403          	ld	s0,0(s2)
   151cc:	06041263          	bnez	s0,15230 <sigprocmask@plt+0x21d0>
   151d0:	02098863          	beqz	s3,15200 <sigprocmask@plt+0x21a0>
   151d4:	00048513          	mv	a0,s1
   151d8:	d99fd0ef          	jal	ra,12f70 <strlen@plt>
   151dc:	01850513          	addi	a0,a0,24
   151e0:	b8cff0ef          	jal	ra,1456c <sigprocmask@plt+0x150c>
   151e4:	00a93023          	sd	a0,0(s2)
   151e8:	fff00793          	li	a5,-1
   151ec:	00050413          	mv	s0,a0
   151f0:	00f52823          	sw	a5,16(a0)
   151f4:	00048593          	mv	a1,s1
   151f8:	01550513          	addi	a0,a0,21
   151fc:	ea4fd0ef          	jal	ra,128a0 <strcpy@plt>
   15200:	02813083          	ld	ra,40(sp)
   15204:	00040513          	mv	a0,s0
   15208:	02013403          	ld	s0,32(sp)
   1520c:	d321b023          	sd	s2,-736(gp)
   15210:	01813483          	ld	s1,24(sp)
   15214:	01013903          	ld	s2,16(sp)
   15218:	00813983          	ld	s3,8(sp)
   1521c:	03010113          	addi	sp,sp,48
   15220:	00008067          	ret
   15224:	00170713          	addi	a4,a4,1
   15228:	00f687bb          	addw	a5,a3,a5
   1522c:	f75ff06f          	j	151a0 <sigprocmask@plt+0x2140>
   15230:	00048593          	mv	a1,s1
   15234:	01540513          	addi	a0,s0,21
   15238:	bb9fd0ef          	jal	ra,12df0 <strcmp@plt>
   1523c:	fc0502e3          	beqz	a0,15200 <sigprocmask@plt+0x21a0>
   15240:	00040913          	mv	s2,s0
   15244:	00043403          	ld	s0,0(s0)
   15248:	f85ff06f          	j	151cc <sigprocmask@plt+0x216c>
   1524c:	fe010113          	addi	sp,sp,-32
   15250:	00113c23          	sd	ra,24(sp)
   15254:	00a13423          	sd	a0,8(sp)
   15258:	d19fd0ef          	jal	ra,12f70 <strlen@plt>
   1525c:	cf818713          	addi	a4,gp,-776
   15260:	00850793          	addi	a5,a0,8
   15264:	00073503          	ld	a0,0(a4)
   15268:	ff87f793          	andi	a5,a5,-8
   1526c:	00813583          	ld	a1,8(sp)
   15270:	01813083          	ld	ra,24(sp)
   15274:	40f50533          	sub	a0,a0,a5
   15278:	00a73023          	sd	a0,0(a4)
   1527c:	02010113          	addi	sp,sp,32
   15280:	e20fd06f          	j	128a0 <strcpy@plt>
   15284:	fe010113          	addi	sp,sp,-32
   15288:	00813823          	sd	s0,16(sp)
   1528c:	00113c23          	sd	ra,24(sp)
   15290:	00913423          	sd	s1,8(sp)
   15294:	00050413          	mv	s0,a0
   15298:	08050663          	beqz	a0,15324 <sigprocmask@plt+0x22c4>
   1529c:	00052783          	lw	a5,0(a0)
   152a0:	00025737          	lui	a4,0x25
   152a4:	f6670713          	addi	a4,a4,-154 # 24f66 <sigprocmask@plt+0x11f06>
   152a8:	cf018693          	addi	a3,gp,-784
   152ac:	00f70733          	add	a4,a4,a5
   152b0:	0006b483          	ld	s1,0(a3)
   152b4:	00074703          	lbu	a4,0(a4)
   152b8:	00e48733          	add	a4,s1,a4
   152bc:	00e6b023          	sd	a4,0(a3)
   152c0:	01a00713          	li	a4,26
   152c4:	04f76a63          	bltu	a4,a5,15318 <sigprocmask@plt+0x22b8>
   152c8:	00025737          	lui	a4,0x25
   152cc:	00279793          	slli	a5,a5,0x2
   152d0:	a4870713          	addi	a4,a4,-1464 # 24a48 <sigprocmask@plt+0x119e8>
   152d4:	00e787b3          	add	a5,a5,a4
   152d8:	0007a783          	lw	a5,0(a5)
   152dc:	00078067          	jr	a5
   152e0:	01853503          	ld	a0,24(a0)
   152e4:	fa1ff0ef          	jal	ra,15284 <sigprocmask@plt+0x2224>
   152e8:	00a4bc23          	sd	a0,24(s1)
   152ec:	01043503          	ld	a0,16(s0)
   152f0:	f95ff0ef          	jal	ra,15284 <sigprocmask@plt+0x2224>
   152f4:	00a4b823          	sd	a0,16(s1)
   152f8:	00843503          	ld	a0,8(s0)
   152fc:	f89ff0ef          	jal	ra,15284 <sigprocmask@plt+0x2224>
   15300:	00c0006f          	j	1530c <sigprocmask@plt+0x22ac>
   15304:	00853503          	ld	a0,8(a0)
   15308:	0c8000ef          	jal	ra,153d0 <sigprocmask@plt+0x2370>
   1530c:	00a4b423          	sd	a0,8(s1)
   15310:	00442783          	lw	a5,4(s0)
   15314:	00f4a223          	sw	a5,4(s1)
   15318:	00042783          	lw	a5,0(s0)
   1531c:	00048413          	mv	s0,s1
   15320:	00f4a023          	sw	a5,0(s1)
   15324:	01813083          	ld	ra,24(sp)
   15328:	00040513          	mv	a0,s0
   1532c:	01013403          	ld	s0,16(sp)
   15330:	00813483          	ld	s1,8(sp)
   15334:	02010113          	addi	sp,sp,32
   15338:	00008067          	ret
   1533c:	01853503          	ld	a0,24(a0)
   15340:	f45ff0ef          	jal	ra,15284 <sigprocmask@plt+0x2224>
   15344:	00a4bc23          	sd	a0,24(s1)
   15348:	01043503          	ld	a0,16(s0)
   1534c:	f39ff0ef          	jal	ra,15284 <sigprocmask@plt+0x2224>
   15350:	00a4b823          	sd	a0,16(s1)
   15354:	00843503          	ld	a0,8(s0)
   15358:	f2dff0ef          	jal	ra,15284 <sigprocmask@plt+0x2224>
   1535c:	00a4b423          	sd	a0,8(s1)
   15360:	fb9ff06f          	j	15318 <sigprocmask@plt+0x22b8>
   15364:	01853503          	ld	a0,24(a0)
   15368:	ee5ff0ef          	jal	ra,1524c <sigprocmask@plt+0x21ec>
   1536c:	f7dff06f          	j	152e8 <sigprocmask@plt+0x2288>
   15370:	01053503          	ld	a0,16(a0)
   15374:	f11ff0ef          	jal	ra,15284 <sigprocmask@plt+0x2224>
   15378:	00a4b823          	sd	a0,16(s1)
   1537c:	00843503          	ld	a0,8(s0)
   15380:	ecdff0ef          	jal	ra,1524c <sigprocmask@plt+0x21ec>
   15384:	f89ff06f          	j	1530c <sigprocmask@plt+0x22ac>
   15388:	01853503          	ld	a0,24(a0)
   1538c:	044000ef          	jal	ra,153d0 <sigprocmask@plt+0x2370>
   15390:	00a4bc23          	sd	a0,24(s1)
   15394:	01043503          	ld	a0,16(s0)
   15398:	eb5ff0ef          	jal	ra,1524c <sigprocmask@plt+0x21ec>
   1539c:	fb5ff06f          	j	15350 <sigprocmask@plt+0x22f0>
   153a0:	01853503          	ld	a0,24(a0)
   153a4:	ee1ff0ef          	jal	ra,15284 <sigprocmask@plt+0x2224>
   153a8:	01442783          	lw	a5,20(s0)
   153ac:	00a4bc23          	sd	a0,24(s1)
   153b0:	00f4aa23          	sw	a5,20(s1)
   153b4:	01042783          	lw	a5,16(s0)
   153b8:	00f4a823          	sw	a5,16(s1)
   153bc:	f99ff06f          	j	15354 <sigprocmask@plt+0x22f4>
   153c0:	01853503          	ld	a0,24(a0)
   153c4:	ec1ff0ef          	jal	ra,15284 <sigprocmask@plt+0x2224>
   153c8:	00a4bc23          	sd	a0,24(s1)
   153cc:	fe9ff06f          	j	153b4 <sigprocmask@plt+0x2354>
   153d0:	fc010113          	addi	sp,sp,-64
   153d4:	02813823          	sd	s0,48(sp)
   153d8:	02913423          	sd	s1,40(sp)
   153dc:	01313c23          	sd	s3,24(sp)
   153e0:	02113c23          	sd	ra,56(sp)
   153e4:	03213023          	sd	s2,32(sp)
   153e8:	00050413          	mv	s0,a0
   153ec:	00810493          	addi	s1,sp,8
   153f0:	02041463          	bnez	s0,15418 <sigprocmask@plt+0x23b8>
   153f4:	03813083          	ld	ra,56(sp)
   153f8:	03013403          	ld	s0,48(sp)
   153fc:	0004b023          	sd	zero,0(s1)
   15400:	00813503          	ld	a0,8(sp)
   15404:	02813483          	ld	s1,40(sp)
   15408:	02013903          	ld	s2,32(sp)
   1540c:	01813983          	ld	s3,24(sp)
   15410:	04010113          	addi	sp,sp,64
   15414:	00008067          	ret
   15418:	cf018793          	addi	a5,gp,-784
   1541c:	0007b903          	ld	s2,0(a5)
   15420:	00843503          	ld	a0,8(s0)
   15424:	0124b023          	sd	s2,0(s1)
   15428:	01090713          	addi	a4,s2,16
   1542c:	00e7b023          	sd	a4,0(a5)
   15430:	e55ff0ef          	jal	ra,15284 <sigprocmask@plt+0x2224>
   15434:	00a93423          	sd	a0,8(s2)
   15438:	00043403          	ld	s0,0(s0)
   1543c:	0004b483          	ld	s1,0(s1)
   15440:	fb1ff06f          	j	153f0 <sigprocmask@plt+0x2390>
   15444:	00058513          	mv	a0,a1
   15448:	51c0a06f          	j	1f964 <sigprocmask@plt+0xc904>
   1544c:	00015737          	lui	a4,0x15
   15450:	000245b7          	lui	a1,0x24
   15454:	13870713          	addi	a4,a4,312 # 15138 <sigprocmask@plt+0x20d8>
   15458:	00800693          	li	a3,8
   1545c:	01000613          	li	a2,16
   15460:	74058593          	addi	a1,a1,1856 # 24740 <sigprocmask@plt+0x116e0>
   15464:	d5cfd06f          	j	129c0 <bsearch@plt>
   15468:	fd010113          	addi	sp,sp,-48
   1546c:	02813023          	sd	s0,32(sp)
   15470:	00050793          	mv	a5,a0
   15474:	00050413          	mv	s0,a0
   15478:	02113423          	sd	ra,40(sp)
   1547c:	00913c23          	sd	s1,24(sp)
   15480:	01213823          	sd	s2,16(sp)
   15484:	01313423          	sd	s3,8(sp)
   15488:	00000513          	li	a0,0
   1548c:	0007b703          	ld	a4,0(a5)
   15490:	00050993          	mv	s3,a0
   15494:	00878793          	addi	a5,a5,8
   15498:	0015051b          	addiw	a0,a0,1
   1549c:	fe0718e3          	bnez	a4,1548c <sigprocmask@plt+0x242c>
   154a0:	00351513          	slli	a0,a0,0x3
   154a4:	868ff0ef          	jal	ra,1450c <sigprocmask@plt+0x14ac>
   154a8:	00050493          	mv	s1,a0
   154ac:	00050913          	mv	s2,a0
   154b0:	00043503          	ld	a0,0(s0)
   154b4:	04051063          	bnez	a0,154f4 <sigprocmask@plt+0x2494>
   154b8:	d701b403          	ld	s0,-656(gp)
   154bc:	00093023          	sd	zero,0(s2)
   154c0:	00040513          	mv	a0,s0
   154c4:	c21ff0ef          	jal	ra,150e4 <sigprocmask@plt+0x2084>
   154c8:	00100793          	li	a5,1
   154cc:	00f40223          	sb	a5,4(s0)
   154d0:	01342023          	sw	s3,0(s0)
   154d4:	00943423          	sd	s1,8(s0)
   154d8:	02813083          	ld	ra,40(sp)
   154dc:	02013403          	ld	s0,32(sp)
   154e0:	01813483          	ld	s1,24(sp)
   154e4:	01013903          	ld	s2,16(sp)
   154e8:	00813983          	ld	s3,8(sp)
   154ec:	03010113          	addi	sp,sp,48
   154f0:	00008067          	ret
   154f4:	00890913          	addi	s2,s2,8
   154f8:	8acff0ef          	jal	ra,145a4 <sigprocmask@plt+0x1544>
   154fc:	00840413          	addi	s0,s0,8
   15500:	fea93c23          	sd	a0,-8(s2)
   15504:	fadff06f          	j	154b0 <sigprocmask@plt+0x2450>
   15508:	ca01b783          	ld	a5,-864(gp)
   1550c:	fd010113          	addi	sp,sp,-48
   15510:	02813023          	sd	s0,32(sp)
   15514:	00913c23          	sd	s1,24(sp)
   15518:	01213823          	sd	s2,16(sp)
   1551c:	01313423          	sd	s3,8(sp)
   15520:	01413023          	sd	s4,0(sp)
   15524:	02113423          	sd	ra,40(sp)
   15528:	00050413          	mv	s0,a0
   1552c:	0015849b          	addiw	s1,a1,1
   15530:	00078a13          	mv	s4,a5
   15534:	01000993          	li	s3,16
   15538:	00400913          	li	s2,4
   1553c:	00048613          	mv	a2,s1
   15540:	40600593          	li	a1,1030
   15544:	00040513          	mv	a0,s0
   15548:	a89fd0ef          	jal	ra,12fd0 <fcntl@plt>
   1554c:	00055863          	bgez	a0,1555c <sigprocmask@plt+0x24fc>
   15550:	000a2783          	lw	a5,0(s4)
   15554:	ff3784e3          	beq	a5,s3,1553c <sigprocmask@plt+0x24dc>
   15558:	ff2782e3          	beq	a5,s2,1553c <sigprocmask@plt+0x24dc>
   1555c:	02813083          	ld	ra,40(sp)
   15560:	02013403          	ld	s0,32(sp)
   15564:	01813483          	ld	s1,24(sp)
   15568:	01013903          	ld	s2,16(sp)
   1556c:	00813983          	ld	s3,8(sp)
   15570:	00013a03          	ld	s4,0(sp)
   15574:	03010113          	addi	sp,sp,48
   15578:	00008067          	ret
   1557c:	00200713          	li	a4,2
   15580:	00e50863          	beq	a0,a4,15590 <sigprocmask@plt+0x2530>
   15584:	01400713          	li	a4,20
   15588:	00e50463          	beq	a0,a4,15590 <sigprocmask@plt+0x2530>
   1558c:	bb4fd06f          	j	12940 <strerror@plt>
   15590:	00058513          	mv	a0,a1
   15594:	00008067          	ret
   15598:	d281b503          	ld	a0,-728(gp)
   1559c:	ff010113          	addi	sp,sp,-16
   155a0:	00113423          	sd	ra,8(sp)
   155a4:	5500c0ef          	jal	ra,21af4 <sigprocmask@plt+0xea94>
   155a8:	00813083          	ld	ra,8(sp)
   155ac:	00000513          	li	a0,0
   155b0:	01010113          	addi	sp,sp,16
   155b4:	00008067          	ret
   155b8:	ca01b783          	ld	a5,-864(gp)
   155bc:	fc010113          	addi	sp,sp,-64
   155c0:	03213023          	sd	s2,32(sp)
   155c4:	01313c23          	sd	s3,24(sp)
   155c8:	00025937          	lui	s2,0x25
   155cc:	000249b7          	lui	s3,0x24
   155d0:	02813823          	sd	s0,48(sp)
   155d4:	02913423          	sd	s1,40(sp)
   155d8:	01413823          	sd	s4,16(sp)
   155dc:	01513423          	sd	s5,8(sp)
   155e0:	01613023          	sd	s6,0(sp)
   155e4:	02113c23          	sd	ra,56(sp)
   155e8:	00050493          	mv	s1,a0
   155ec:	00058413          	mv	s0,a1
   155f0:	00060a13          	mv	s4,a2
   155f4:	f2790913          	addi	s2,s2,-217 # 24f27 <sigprocmask@plt+0x11ec7>
   155f8:	00078b13          	mv	s6,a5
   155fc:	00800a93          	li	s5,8
   15600:	b8898993          	addi	s3,s3,-1144 # 23b88 <sigprocmask@plt+0x10b28>
   15604:	000a0613          	mv	a2,s4
   15608:	00040593          	mv	a1,s0
   1560c:	00048513          	mv	a0,s1
   15610:	bc0fd0ef          	jal	ra,129d0 <execve@plt>
   15614:	03248063          	beq	s1,s2,15634 <sigprocmask@plt+0x25d4>
   15618:	000b2783          	lw	a5,0(s6)
   1561c:	01579c63          	bne	a5,s5,15634 <sigprocmask@plt+0x25d4>
   15620:	00943023          	sd	s1,0(s0)
   15624:	ff343c23          	sd	s3,-8(s0)
   15628:	ff840413          	addi	s0,s0,-8
   1562c:	00090493          	mv	s1,s2
   15630:	fd5ff06f          	j	15604 <sigprocmask@plt+0x25a4>
   15634:	03813083          	ld	ra,56(sp)
   15638:	03013403          	ld	s0,48(sp)
   1563c:	02813483          	ld	s1,40(sp)
   15640:	02013903          	ld	s2,32(sp)
   15644:	01813983          	ld	s3,24(sp)
   15648:	01013a03          	ld	s4,16(sp)
   1564c:	00813a83          	ld	s5,8(sp)
   15650:	00013b03          	ld	s6,0(sp)
   15654:	04010113          	addi	sp,sp,64
   15658:	00008067          	ret
   1565c:	f3010113          	addi	sp,sp,-208
   15660:	0b213823          	sd	s2,176(sp)
   15664:	d681b903          	ld	s2,-664(gp)
   15668:	01c50793          	addi	a5,a0,28
   1566c:	00379793          	slli	a5,a5,0x3
   15670:	00f907b3          	add	a5,s2,a5
   15674:	0087b783          	ld	a5,8(a5)
   15678:	0c813023          	sd	s0,192(sp)
   1567c:	0a913c23          	sd	s1,184(sp)
   15680:	0c113423          	sd	ra,200(sp)
   15684:	0b313423          	sd	s3,168(sp)
   15688:	00050493          	mv	s1,a0
   1568c:	00100413          	li	s0,1
   15690:	00078863          	beqz	a5,156a0 <sigprocmask@plt+0x2640>
   15694:	0007c403          	lbu	s0,0(a5)
   15698:	00143413          	seqz	s0,s0
   1569c:	00240413          	addi	s0,s0,2
   156a0:	01092783          	lw	a5,16(s2)
   156a4:	0a079c63          	bnez	a5,1575c <sigprocmask@plt+0x26fc>
   156a8:	00100793          	li	a5,1
   156ac:	0af41863          	bne	s0,a5,1575c <sigprocmask@plt+0x26fc>
   156b0:	00f00793          	li	a5,15
   156b4:	08f48c63          	beq	s1,a5,1574c <sigprocmask@plt+0x26ec>
   156b8:	0a97c263          	blt	a5,s1,1575c <sigprocmask@plt+0x26fc>
   156bc:	00200793          	li	a5,2
   156c0:	06f48663          	beq	s1,a5,1572c <sigprocmask@plt+0x26cc>
   156c4:	00300793          	li	a5,3
   156c8:	08f48663          	beq	s1,a5,15754 <sigprocmask@plt+0x26f4>
   156cc:	fff4899b          	addiw	s3,s1,-1
   156d0:	013909b3          	add	s3,s2,s3
   156d4:	0649c783          	lbu	a5,100(s3)
   156d8:	08079c63          	bnez	a5,15770 <sigprocmask@plt+0x2710>
   156dc:	00810613          	addi	a2,sp,8
   156e0:	00000593          	li	a1,0
   156e4:	00048513          	mv	a0,s1
   156e8:	e08fd0ef          	jal	ra,12cf0 <sigaction@plt>
   156ec:	02051263          	bnez	a0,15710 <sigprocmask@plt+0x26b0>
   156f0:	00813783          	ld	a5,8(sp)
   156f4:	00100713          	li	a4,1
   156f8:	0ae79463          	bne	a5,a4,157a0 <sigprocmask@plt+0x2740>
   156fc:	05994783          	lbu	a5,89(s2)
   15700:	00078863          	beqz	a5,15710 <sigprocmask@plt+0x26b0>
   15704:	fec4879b          	addiw	a5,s1,-20
   15708:	00200713          	li	a4,2
   1570c:	06f77a63          	bgeu	a4,a5,15780 <sigprocmask@plt+0x2720>
   15710:	0c813083          	ld	ra,200(sp)
   15714:	0c013403          	ld	s0,192(sp)
   15718:	0b813483          	ld	s1,184(sp)
   1571c:	0b013903          	ld	s2,176(sp)
   15720:	0a813983          	ld	s3,168(sp)
   15724:	0d010113          	addi	sp,sp,208
   15728:	00008067          	ret
   1572c:	05894783          	lbu	a5,88(s2)
   15730:	00079a63          	bnez	a5,15744 <sigprocmask@plt+0x26e4>
   15734:	01893783          	ld	a5,24(s2)
   15738:	00079663          	bnez	a5,15744 <sigprocmask@plt+0x26e4>
   1573c:	05b94783          	lbu	a5,91(s2)
   15740:	f80796e3          	bnez	a5,156cc <sigprocmask@plt+0x266c>
   15744:	00200413          	li	s0,2
   15748:	f85ff06f          	j	156cc <sigprocmask@plt+0x266c>
   1574c:	05894783          	lbu	a5,88(s2)
   15750:	f6078ee3          	beqz	a5,156cc <sigprocmask@plt+0x266c>
   15754:	00300413          	li	s0,3
   15758:	f75ff06f          	j	156cc <sigprocmask@plt+0x266c>
   1575c:	01100793          	li	a5,17
   15760:	f6f496e3          	bne	s1,a5,156cc <sigprocmask@plt+0x266c>
   15764:	fe1ff06f          	j	15744 <sigprocmask@plt+0x26e4>
   15768:	06898223          	sb	s0,100(s3)
   1576c:	fa5ff06f          	j	15710 <sigprocmask@plt+0x26b0>
   15770:	00400713          	li	a4,4
   15774:	f8e78ee3          	beq	a5,a4,15710 <sigprocmask@plt+0x26b0>
   15778:	f8f40ce3          	beq	s0,a5,15710 <sigprocmask@plt+0x26b0>
   1577c:	02c0006f          	j	157a8 <sigprocmask@plt+0x2748>
   15780:	00300793          	li	a5,3
   15784:	ff5ff06f          	j	15778 <sigprocmask@plt+0x2718>
   15788:	000167b7          	lui	a5,0x16
   1578c:	87878793          	addi	a5,a5,-1928 # 15878 <sigprocmask@plt+0x2818>
   15790:	00f13423          	sd	a5,8(sp)
   15794:	02c0006f          	j	157c0 <sigprocmask@plt+0x2760>
   15798:	00100793          	li	a5,1
   1579c:	ff5ff06f          	j	15790 <sigprocmask@plt+0x2730>
   157a0:	00079463          	bnez	a5,157a8 <sigprocmask@plt+0x2748>
   157a4:	fce402e3          	beq	s0,a4,15768 <sigprocmask@plt+0x2708>
   157a8:	06898223          	sb	s0,100(s3)
   157ac:	00200793          	li	a5,2
   157b0:	fcf40ce3          	beq	s0,a5,15788 <sigprocmask@plt+0x2728>
   157b4:	00300793          	li	a5,3
   157b8:	fef400e3          	beq	s0,a5,15798 <sigprocmask@plt+0x2738>
   157bc:	00013423          	sd	zero,8(sp)
   157c0:	01010513          	addi	a0,sp,16
   157c4:	08012823          	sw	zero,144(sp)
   157c8:	cd8fd0ef          	jal	ra,12ca0 <sigfillset@plt>
   157cc:	00810593          	addi	a1,sp,8
   157d0:	00048513          	mv	a0,s1
   157d4:	934ff0ef          	jal	ra,14908 <sigprocmask@plt+0x18a8>
   157d8:	f39ff06f          	j	15710 <sigprocmask@plt+0x26b0>
   157dc:	ff010113          	addi	sp,sp,-16
   157e0:	00813023          	sd	s0,0(sp)
   157e4:	d681b403          	ld	s0,-664(gp)
   157e8:	fff5079b          	addiw	a5,a0,-1
   157ec:	00113423          	sd	ra,8(sp)
   157f0:	00f40433          	add	s0,s0,a5
   157f4:	06444783          	lbu	a5,100(s0)
   157f8:	00100713          	li	a4,1
   157fc:	ffd7879b          	addiw	a5,a5,-3
   15800:	0ff7f793          	andi	a5,a5,255
   15804:	00f77663          	bgeu	a4,a5,15810 <sigprocmask@plt+0x27b0>
   15808:	00100593          	li	a1,1
   1580c:	c34fd0ef          	jal	ra,12c40 <signal@plt>
   15810:	00400793          	li	a5,4
   15814:	06f40223          	sb	a5,100(s0)
   15818:	00813083          	ld	ra,8(sp)
   1581c:	00013403          	ld	s0,0(sp)
   15820:	01010113          	addi	sp,sp,16
   15824:	00008067          	ret
   15828:	ff010113          	addi	sp,sp,-16
   1582c:	00813023          	sd	s0,0(sp)
   15830:	d681b403          	ld	s0,-664(gp)
   15834:	00113423          	sd	ra,8(sp)
   15838:	00100513          	li	a0,1
   1583c:	04042223          	sw	zero,68(s0)
   15840:	8d0ff0ef          	jal	ra,14910 <sigprocmask@plt+0x18b0>
   15844:	01042783          	lw	a5,16(s0)
   15848:	00079663          	bnez	a5,15854 <sigprocmask@plt+0x27f4>
   1584c:	05844783          	lbu	a5,88(s0)
   15850:	00079c63          	bnez	a5,15868 <sigprocmask@plt+0x2808>
   15854:	00000593          	li	a1,0
   15858:	00200513          	li	a0,2
   1585c:	be4fd0ef          	jal	ra,12c40 <signal@plt>
   15860:	00200513          	li	a0,2
   15864:	fdcfd0ef          	jal	ra,13040 <raise@plt>
   15868:	f8200793          	li	a5,-126
   1586c:	00f40023          	sb	a5,0(s0)
   15870:	00000513          	li	a0,0
   15874:	8d9ff0ef          	jal	ra,1514c <sigprocmask@plt+0x20ec>
   15878:	01100713          	li	a4,17
   1587c:	d681b783          	ld	a5,-664(gp)
   15880:	02e50263          	beq	a0,a4,158a4 <sigprocmask@plt+0x2844>
   15884:	fff5071b          	addiw	a4,a0,-1
   15888:	00e78733          	add	a4,a5,a4
   1588c:	00100693          	li	a3,1
   15890:	0ad70223          	sb	a3,164(a4)
   15894:	04a7a623          	sw	a0,76(a5)
   15898:	00200713          	li	a4,2
   1589c:	00e50e63          	beq	a0,a4,158b8 <sigprocmask@plt+0x2858>
   158a0:	00008067          	ret
   158a4:	00100713          	li	a4,1
   158a8:	04e7a423          	sw	a4,72(a5)
   158ac:	1707b703          	ld	a4,368(a5)
   158b0:	fc071ae3          	bnez	a4,15884 <sigprocmask@plt+0x2824>
   158b4:	00008067          	ret
   158b8:	0f87b703          	ld	a4,248(a5)
   158bc:	02071263          	bnez	a4,158e0 <sigprocmask@plt+0x2880>
   158c0:	0407a703          	lw	a4,64(a5)
   158c4:	0007071b          	sext.w	a4,a4
   158c8:	00071a63          	bnez	a4,158dc <sigprocmask@plt+0x287c>
   158cc:	ff010113          	addi	sp,sp,-16
   158d0:	00113423          	sd	ra,8(sp)
   158d4:	0407a623          	sw	zero,76(a5)
   158d8:	f51ff0ef          	jal	ra,15828 <sigprocmask@plt+0x27c8>
   158dc:	04d7a223          	sw	a3,68(a5)
   158e0:	00008067          	ret
   158e4:	d681b783          	ld	a5,-664(gp)
   158e8:	0407a023          	sw	zero,64(a5)
   158ec:	0447a783          	lw	a5,68(a5)
   158f0:	0007879b          	sext.w	a5,a5
   158f4:	00078863          	beqz	a5,15904 <sigprocmask@plt+0x28a4>
   158f8:	ff010113          	addi	sp,sp,-16
   158fc:	00113423          	sd	ra,8(sp)
   15900:	f29ff0ef          	jal	ra,15828 <sigprocmask@plt+0x27c8>
   15904:	00008067          	ret
   15908:	d681b703          	ld	a4,-664(gp)
   1590c:	04072783          	lw	a5,64(a4)
   15910:	fff7869b          	addiw	a3,a5,-1
   15914:	04d72023          	sw	a3,64(a4)
   15918:	00069e63          	bnez	a3,15934 <sigprocmask@plt+0x28d4>
   1591c:	04472783          	lw	a5,68(a4)
   15920:	0007879b          	sext.w	a5,a5
   15924:	00078863          	beqz	a5,15934 <sigprocmask@plt+0x28d4>
   15928:	ff010113          	addi	sp,sp,-16
   1592c:	00113423          	sd	ra,8(sp)
   15930:	ef9ff0ef          	jal	ra,15828 <sigprocmask@plt+0x27c8>
   15934:	00008067          	ret
   15938:	d681b703          	ld	a4,-664(gp)
   1593c:	fd010113          	addi	sp,sp,-48
   15940:	02113423          	sd	ra,40(sp)
   15944:	04072783          	lw	a5,64(a4)
   15948:	02813023          	sd	s0,32(sp)
   1594c:	00913c23          	sd	s1,24(sp)
   15950:	01213823          	sd	s2,16(sp)
   15954:	01313423          	sd	s3,8(sp)
   15958:	01413023          	sd	s4,0(sp)
   1595c:	0017879b          	addiw	a5,a5,1
   15960:	04f72023          	sw	a5,64(a4)
   15964:	cd01b403          	ld	s0,-816(gp)
   15968:	00200993          	li	s3,2
   1596c:	0f840913          	addi	s2,s0,248
   15970:	07241863          	bne	s0,s2,159e0 <sigprocmask@plt+0x2980>
   15974:	02013403          	ld	s0,32(sp)
   15978:	02813083          	ld	ra,40(sp)
   1597c:	01813483          	ld	s1,24(sp)
   15980:	01013903          	ld	s2,16(sp)
   15984:	00813983          	ld	s3,8(sp)
   15988:	00013a03          	ld	s4,0(sp)
   1598c:	03010113          	addi	sp,sp,48
   15990:	f79ff06f          	j	15908 <sigprocmask@plt+0x28a8>
   15994:	01052783          	lw	a5,16(a0)
   15998:	02078263          	beqz	a5,159bc <sigprocmask@plt+0x295c>
   1599c:	03379e63          	bne	a5,s3,159d8 <sigprocmask@plt+0x2978>
   159a0:	00853783          	ld	a5,8(a0)
   159a4:	0007b783          	ld	a5,0(a5)
   159a8:	0007c783          	lbu	a5,0(a5)
   159ac:	0027f793          	andi	a5,a5,2
   159b0:	02079463          	bnez	a5,159d8 <sigprocmask@plt+0x2978>
   159b4:	c841a783          	lw	a5,-892(gp)
   159b8:	02f05063          	blez	a5,159d8 <sigprocmask@plt+0x2978>
   159bc:	00053783          	ld	a5,0(a0)
   159c0:	00f4b023          	sd	a5,0(s1)
   159c4:	e8cfd0ef          	jal	ra,13050 <free@plt>
   159c8:	0004b503          	ld	a0,0(s1)
   159cc:	fc0514e3          	bnez	a0,15994 <sigprocmask@plt+0x2934>
   159d0:	00840413          	addi	s0,s0,8
   159d4:	f9dff06f          	j	15970 <sigprocmask@plt+0x2910>
   159d8:	00050493          	mv	s1,a0
   159dc:	fedff06f          	j	159c8 <sigprocmask@plt+0x2968>
   159e0:	00040493          	mv	s1,s0
   159e4:	fe5ff06f          	j	159c8 <sigprocmask@plt+0x2968>
   159e8:	fd010113          	addi	sp,sp,-48
   159ec:	02813023          	sd	s0,32(sp)
   159f0:	00913c23          	sd	s1,24(sp)
   159f4:	01213823          	sd	s2,16(sp)
   159f8:	01313423          	sd	s3,8(sp)
   159fc:	02113423          	sd	ra,40(sp)
   15a00:	00050413          	mv	s0,a0
   15a04:	00000493          	li	s1,0
   15a08:	02500913          	li	s2,37
   15a0c:	000249b7          	lui	s3,0x24
   15a10:	00044783          	lbu	a5,0(s0)
   15a14:	01279a63          	bne	a5,s2,15a28 <sigprocmask@plt+0x29c8>
   15a18:	b9098593          	addi	a1,s3,-1136 # 23b90 <sigprocmask@plt+0x10b30>
   15a1c:	00140513          	addi	a0,s0,1
   15a20:	b58ff0ef          	jal	ra,14d78 <sigprocmask@plt+0x1d18>
   15a24:	02051263          	bnez	a0,15a48 <sigprocmask@plt+0x29e8>
   15a28:	03a00593          	li	a1,58
   15a2c:	00040513          	mv	a0,s0
   15a30:	d60fd0ef          	jal	ra,12f90 <strchr@plt>
   15a34:	00050863          	beqz	a0,15a44 <sigprocmask@plt+0x29e4>
   15a38:	0014849b          	addiw	s1,s1,1
   15a3c:	00150413          	addi	s0,a0,1
   15a40:	fd1ff06f          	j	15a10 <sigprocmask@plt+0x29b0>
   15a44:	fff00493          	li	s1,-1
   15a48:	02013403          	ld	s0,32(sp)
   15a4c:	02813083          	ld	ra,40(sp)
   15a50:	01013903          	ld	s2,16(sp)
   15a54:	00813983          	ld	s3,8(sp)
   15a58:	c891a223          	sw	s1,-892(gp)
   15a5c:	01813483          	ld	s1,24(sp)
   15a60:	03010113          	addi	sp,sp,48
   15a64:	ed5ff06f          	j	15938 <sigprocmask@plt+0x28d8>
   15a68:	fe010113          	addi	sp,sp,-32
   15a6c:	00813823          	sd	s0,16(sp)
   15a70:	ea01b403          	ld	s0,-352(gp)
   15a74:	00113c23          	sd	ra,24(sp)
   15a78:	00913423          	sd	s1,8(sp)
   15a7c:	02040863          	beqz	s0,15aac <sigprocmask@plt+0x2a4c>
   15a80:	ea018493          	addi	s1,gp,-352
   15a84:	d681b703          	ld	a4,-664(gp)
   15a88:	04072783          	lw	a5,64(a4)
   15a8c:	0017879b          	addiw	a5,a5,1
   15a90:	04f72023          	sw	a5,64(a4)
   15a94:	00040513          	mv	a0,s0
   15a98:	00043403          	ld	s0,0(s0)
   15a9c:	db4fd0ef          	jal	ra,13050 <free@plt>
   15aa0:	fe041ae3          	bnez	s0,15a94 <sigprocmask@plt+0x2a34>
   15aa4:	0004b023          	sd	zero,0(s1)
   15aa8:	e61ff0ef          	jal	ra,15908 <sigprocmask@plt+0x28a8>
   15aac:	01813083          	ld	ra,24(sp)
   15ab0:	01013403          	ld	s0,16(sp)
   15ab4:	d001b823          	sd	zero,-752(gp)
   15ab8:	00813483          	ld	s1,8(sp)
   15abc:	02010113          	addi	sp,sp,32
   15ac0:	00008067          	ret
   15ac4:	d681b703          	ld	a4,-664(gp)
   15ac8:	ff010113          	addi	sp,sp,-16
   15acc:	00113423          	sd	ra,8(sp)
   15ad0:	04072783          	lw	a5,64(a4)
   15ad4:	0017879b          	addiw	a5,a5,1
   15ad8:	04f72023          	sw	a5,64(a4)
   15adc:	bddfe0ef          	jal	ra,146b8 <sigprocmask@plt+0x1658>
   15ae0:	00813083          	ld	ra,8(sp)
   15ae4:	01010113          	addi	sp,sp,16
   15ae8:	e21ff06f          	j	15908 <sigprocmask@plt+0x28a8>
   15aec:	c7818793          	addi	a5,gp,-904
   15af0:	0007b703          	ld	a4,0(a5)
   15af4:	fe010113          	addi	sp,sp,-32
   15af8:	00913423          	sd	s1,8(sp)
   15afc:	02873483          	ld	s1,40(a4)
   15b00:	d681b683          	ld	a3,-664(gp)
   15b04:	00113c23          	sd	ra,24(sp)
   15b08:	00813823          	sd	s0,16(sp)
   15b0c:	0406a703          	lw	a4,64(a3)
   15b10:	0017071b          	addiw	a4,a4,1
   15b14:	04e6a023          	sw	a4,64(a3)
   15b18:	0007b403          	ld	s0,0(a5)
   15b1c:	0084b783          	ld	a5,8(s1)
   15b20:	00800613          	li	a2,8
   15b24:	06040513          	addi	a0,s0,96
   15b28:	00f43c23          	sd	a5,24(s0)
   15b2c:	0104a783          	lw	a5,16(s1)
   15b30:	02048593          	addi	a1,s1,32
   15b34:	03040413          	addi	s0,s0,48
   15b38:	fef42023          	sw	a5,-32(s0)
   15b3c:	0284a783          	lw	a5,40(s1)
   15b40:	02f42c23          	sw	a5,56(s0)
   15b44:	ecdfc0ef          	jal	ra,12a10 <memcpy@plt>
   15b48:	0004b783          	ld	a5,0(s1)
   15b4c:	fef43c23          	sd	a5,-8(s0)
   15b50:	00848663          	beq	s1,s0,15b5c <sigprocmask@plt+0x2afc>
   15b54:	00048513          	mv	a0,s1
   15b58:	cf8fd0ef          	jal	ra,13050 <free@plt>
   15b5c:	01013403          	ld	s0,16(sp)
   15b60:	01813083          	ld	ra,24(sp)
   15b64:	00813483          	ld	s1,8(sp)
   15b68:	02010113          	addi	sp,sp,32
   15b6c:	d9dff06f          	j	15908 <sigprocmask@plt+0x28a8>
   15b70:	fe010113          	addi	sp,sp,-32
   15b74:	00813823          	sd	s0,16(sp)
   15b78:	c781b403          	ld	s0,-904(gp)
   15b7c:	00113c23          	sd	ra,24(sp)
   15b80:	00913423          	sd	s1,8(sp)
   15b84:	e2018713          	addi	a4,gp,-480
   15b88:	06e40063          	beq	s0,a4,15be8 <sigprocmask@plt+0x2b88>
   15b8c:	c7818493          	addi	s1,gp,-904
   15b90:	d681b703          	ld	a4,-664(gp)
   15b94:	04072783          	lw	a5,64(a4)
   15b98:	0017879b          	addiw	a5,a5,1
   15b9c:	04f72023          	sw	a5,64(a4)
   15ba0:	00c42503          	lw	a0,12(s0)
   15ba4:	00054463          	bltz	a0,15bac <sigprocmask@plt+0x2b4c>
   15ba8:	c58fd0ef          	jal	ra,13000 <close@plt>
   15bac:	02043503          	ld	a0,32(s0)
   15bb0:	ca0fd0ef          	jal	ra,13050 <free@plt>
   15bb4:	02843783          	ld	a5,40(s0)
   15bb8:	02079463          	bnez	a5,15be0 <sigprocmask@plt+0x2b80>
   15bbc:	00043783          	ld	a5,0(s0)
   15bc0:	00040513          	mv	a0,s0
   15bc4:	00f4b023          	sd	a5,0(s1)
   15bc8:	c88fd0ef          	jal	ra,13050 <free@plt>
   15bcc:	01013403          	ld	s0,16(sp)
   15bd0:	01813083          	ld	ra,24(sp)
   15bd4:	00813483          	ld	s1,8(sp)
   15bd8:	02010113          	addi	sp,sp,32
   15bdc:	d2dff06f          	j	15908 <sigprocmask@plt+0x28a8>
   15be0:	f0dff0ef          	jal	ra,15aec <sigprocmask@plt+0x2a8c>
   15be4:	fd1ff06f          	j	15bb4 <sigprocmask@plt+0x2b54>
   15be8:	01813083          	ld	ra,24(sp)
   15bec:	01013403          	ld	s0,16(sp)
   15bf0:	00813483          	ld	s1,8(sp)
   15bf4:	02010113          	addi	sp,sp,32
   15bf8:	00008067          	ret
   15bfc:	fe010113          	addi	sp,sp,-32
   15c00:	00813823          	sd	s0,16(sp)
   15c04:	00913423          	sd	s1,8(sp)
   15c08:	00113c23          	sd	ra,24(sp)
   15c0c:	00050413          	mv	s0,a0
   15c10:	c781b783          	ld	a5,-904(gp)
   15c14:	00879c63          	bne	a5,s0,15c2c <sigprocmask@plt+0x2bcc>
   15c18:	01813083          	ld	ra,24(sp)
   15c1c:	01013403          	ld	s0,16(sp)
   15c20:	00813483          	ld	s1,8(sp)
   15c24:	02010113          	addi	sp,sp,32
   15c28:	00008067          	ret
   15c2c:	f45ff0ef          	jal	ra,15b70 <sigprocmask@plt+0x2b10>
   15c30:	fe1ff06f          	j	15c10 <sigprocmask@plt+0x2bb0>
   15c34:	fa010113          	addi	sp,sp,-96
   15c38:	04f13423          	sd	a5,72(sp)
   15c3c:	04e13023          	sd	a4,64(sp)
   15c40:	d681b703          	ld	a4,-664(gp)
   15c44:	02d13c23          	sd	a3,56(sp)
   15c48:	05013823          	sd	a6,80(sp)
   15c4c:	05113c23          	sd	a7,88(sp)
   15c50:	04072783          	lw	a5,64(a4)
   15c54:	02813023          	sd	s0,32(sp)
   15c58:	02113423          	sd	ra,40(sp)
   15c5c:	00913c23          	sd	s1,24(sp)
   15c60:	0017879b          	addiw	a5,a5,1
   15c64:	00058413          	mv	s0,a1
   15c68:	04f72023          	sw	a5,64(a4)
   15c6c:	03810693          	addi	a3,sp,56
   15c70:	00d13423          	sd	a3,8(sp)
   15c74:	e3dfc0ef          	jal	ra,12ab0 <vsnprintf@plt>
   15c78:	00050493          	mv	s1,a0
   15c7c:	c8dff0ef          	jal	ra,15908 <sigprocmask@plt+0x28a8>
   15c80:	0004051b          	sext.w	a0,s0
   15c84:	0004041b          	sext.w	s0,s0
   15c88:	0084d463          	bge	s1,s0,15c90 <sigprocmask@plt+0x2c30>
   15c8c:	0004851b          	sext.w	a0,s1
   15c90:	02813083          	ld	ra,40(sp)
   15c94:	02013403          	ld	s0,32(sp)
   15c98:	01813483          	ld	s1,24(sp)
   15c9c:	06010113          	addi	sp,sp,96
   15ca0:	00008067          	ret
   15ca4:	fe010113          	addi	sp,sp,-32
   15ca8:	00113c23          	sd	ra,24(sp)
   15cac:	00813823          	sd	s0,16(sp)
   15cb0:	00a13423          	sd	a0,8(sp)
   15cb4:	95cff0ef          	jal	ra,14e10 <sigprocmask@plt+0x1db0>
   15cb8:	00813583          	ld	a1,8(sp)
   15cbc:	9a4ff0ef          	jal	ra,14e60 <sigprocmask@plt+0x1e00>
   15cc0:	00053403          	ld	s0,0(a0)
   15cc4:	04040c63          	beqz	s0,15d1c <sigprocmask@plt+0x2cbc>
   15cc8:	00842783          	lw	a5,8(s0)
   15ccc:	0207f793          	andi	a5,a5,32
   15cd0:	06079063          	bnez	a5,15d30 <sigprocmask@plt+0x2cd0>
   15cd4:	d701b503          	ld	a0,-656(gp)
   15cd8:	1f850793          	addi	a5,a0,504
   15cdc:	02f41463          	bne	s0,a5,15d04 <sigprocmask@plt+0x2ca4>
   15ce0:	01043703          	ld	a4,16(s0)
   15ce4:	23c50793          	addi	a5,a0,572
   15ce8:	00f71e63          	bne	a4,a5,15d04 <sigprocmask@plt+0x2ca4>
   15cec:	23852683          	lw	a3,568(a0)
   15cf0:	00024637          	lui	a2,0x24
   15cf4:	b9860613          	addi	a2,a2,-1128 # 23b98 <sigprocmask@plt+0x10b38>
   15cf8:	00d00593          	li	a1,13
   15cfc:	24350513          	addi	a0,a0,579
   15d00:	f35ff0ef          	jal	ra,15c34 <sigprocmask@plt+0x2bd4>
   15d04:	01043403          	ld	s0,16(s0)
   15d08:	03d00713          	li	a4,61
   15d0c:	00044783          	lbu	a5,0(s0)
   15d10:	00078663          	beqz	a5,15d1c <sigprocmask@plt+0x2cbc>
   15d14:	00140413          	addi	s0,s0,1
   15d18:	fee79ae3          	bne	a5,a4,15d0c <sigprocmask@plt+0x2cac>
   15d1c:	01813083          	ld	ra,24(sp)
   15d20:	00040513          	mv	a0,s0
   15d24:	01013403          	ld	s0,16(sp)
   15d28:	02010113          	addi	sp,sp,32
   15d2c:	00008067          	ret
   15d30:	00000413          	li	s0,0
   15d34:	fe9ff06f          	j	15d1c <sigprocmask@plt+0x2cbc>
   15d38:	000277b7          	lui	a5,0x27
   15d3c:	e487b583          	ld	a1,-440(a5) # 26e48 <stderr>
   15d40:	d681b703          	ld	a4,-664(gp)
   15d44:	ff010113          	addi	sp,sp,-16
   15d48:	00113423          	sd	ra,8(sp)
   15d4c:	04072783          	lw	a5,64(a4)
   15d50:	0017879b          	addiw	a5,a5,1
   15d54:	04f72023          	sw	a5,64(a4)
   15d58:	e49fc0ef          	jal	ra,12ba0 <fputs_unlocked@plt>
   15d5c:	badff0ef          	jal	ra,15908 <sigprocmask@plt+0x28a8>
   15d60:	00813083          	ld	ra,8(sp)
   15d64:	01010113          	addi	sp,sp,16
   15d68:	d5dff06f          	j	15ac4 <sigprocmask@plt+0x2a64>
   15d6c:	ff010113          	addi	sp,sp,-16
   15d70:	00813023          	sd	s0,0(sp)
   15d74:	d681b403          	ld	s0,-664(gp)
   15d78:	00113423          	sd	ra,8(sp)
   15d7c:	00442503          	lw	a0,4(s0)
   15d80:	04051063          	bnez	a0,15dc0 <sigprocmask@plt+0x2d60>
   15d84:	ce01b783          	ld	a5,-800(gp)
   15d88:	02078463          	beqz	a5,15db0 <sigprocmask@plt+0x2d50>
   15d8c:	01c7c703          	lbu	a4,28(a5)
   15d90:	00100793          	li	a5,1
   15d94:	00f71e63          	bne	a4,a5,15db0 <sigprocmask@plt+0x2d50>
   15d98:	00024537          	lui	a0,0x24
   15d9c:	ba050513          	addi	a0,a0,-1120 # 23ba0 <sigprocmask@plt+0x10b40>
   15da0:	f99ff0ef          	jal	ra,15d38 <sigprocmask@plt+0x2cd8>
   15da4:	00200793          	li	a5,2
   15da8:	00f42223          	sw	a5,4(s0)
   15dac:	00100513          	li	a0,1
   15db0:	00813083          	ld	ra,8(sp)
   15db4:	00013403          	ld	s0,0(sp)
   15db8:	01010113          	addi	sp,sp,16
   15dbc:	00008067          	ret
   15dc0:	00000513          	li	a0,0
   15dc4:	fedff06f          	j	15db0 <sigprocmask@plt+0x2d50>
   15dc8:	d681b703          	ld	a4,-664(gp)
   15dcc:	ff010113          	addi	sp,sp,-16
   15dd0:	00113423          	sd	ra,8(sp)
   15dd4:	04072783          	lw	a5,64(a4)
   15dd8:	00813023          	sd	s0,0(sp)
   15ddc:	0017879b          	addiw	a5,a5,1
   15de0:	04f72023          	sw	a5,64(a4)
   15de4:	d201b783          	ld	a5,-736(gp)
   15de8:	0007b403          	ld	s0,0(a5)
   15dec:	00043703          	ld	a4,0(s0)
   15df0:	00e7b023          	sd	a4,0(a5)
   15df4:	01042703          	lw	a4,16(s0)
   15df8:	00100793          	li	a5,1
   15dfc:	00f71663          	bne	a4,a5,15e08 <sigprocmask@plt+0x2da8>
   15e00:	00843503          	ld	a0,8(s0)
   15e04:	ac0ff0ef          	jal	ra,150c4 <sigprocmask@plt+0x2064>
   15e08:	00040513          	mv	a0,s0
   15e0c:	a44fd0ef          	jal	ra,13050 <free@plt>
   15e10:	00013403          	ld	s0,0(sp)
   15e14:	00813083          	ld	ra,8(sp)
   15e18:	01010113          	addi	sp,sp,16
   15e1c:	aedff06f          	j	15908 <sigprocmask@plt+0x28a8>
   15e20:	d681b703          	ld	a4,-664(gp)
   15e24:	fe010113          	addi	sp,sp,-32
   15e28:	00113c23          	sd	ra,24(sp)
   15e2c:	04072783          	lw	a5,64(a4)
   15e30:	00813823          	sd	s0,16(sp)
   15e34:	00a13423          	sd	a0,8(sp)
   15e38:	0017879b          	addiw	a5,a5,1
   15e3c:	04f72023          	sw	a5,64(a4)
   15e40:	9b8ff0ef          	jal	ra,14ff8 <sigprocmask@plt+0x1f98>
   15e44:	c7818413          	addi	s0,gp,-904
   15e48:	00043783          	ld	a5,0(s0)
   15e4c:	00813503          	ld	a0,8(sp)
   15e50:	00a7bc23          	sd	a0,24(a5)
   15e54:	91cfd0ef          	jal	ra,12f70 <strlen@plt>
   15e58:	00043783          	ld	a5,0(s0)
   15e5c:	01013403          	ld	s0,16(sp)
   15e60:	01813083          	ld	ra,24(sp)
   15e64:	00100713          	li	a4,1
   15e68:	00a7a823          	sw	a0,16(a5)
   15e6c:	0207b023          	sd	zero,32(a5)
   15e70:	00e7a423          	sw	a4,8(a5)
   15e74:	02010113          	addi	sp,sp,32
   15e78:	a91ff06f          	j	15908 <sigprocmask@plt+0x28a8>
   15e7c:	fd010113          	addi	sp,sp,-48
   15e80:	00913c23          	sd	s1,24(sp)
   15e84:	d101b783          	ld	a5,-752(gp)
   15e88:	01213823          	sd	s2,16(sp)
   15e8c:	01313423          	sd	s3,8(sp)
   15e90:	01413023          	sd	s4,0(sp)
   15e94:	02113423          	sd	ra,40(sp)
   15e98:	02813023          	sd	s0,32(sp)
   15e9c:	00050a13          	mv	s4,a0
   15ea0:	00058993          	mv	s3,a1
   15ea4:	00060913          	mv	s2,a2
   15ea8:	d1018493          	addi	s1,gp,-752
   15eac:	04078e63          	beqz	a5,15f08 <sigprocmask@plt+0x2ea8>
   15eb0:	d681b703          	ld	a4,-664(gp)
   15eb4:	04072783          	lw	a5,64(a4)
   15eb8:	0017879b          	addiw	a5,a5,1
   15ebc:	04f72023          	sw	a5,64(a4)
   15ec0:	01800513          	li	a0,24
   15ec4:	ea8fe0ef          	jal	ra,1456c <sigprocmask@plt+0x150c>
   15ec8:	0004b783          	ld	a5,0(s1)
   15ecc:	00050413          	mv	s0,a0
   15ed0:	00a7b023          	sd	a0,0(a5)
   15ed4:	a35ff0ef          	jal	ra,15908 <sigprocmask@plt+0x28a8>
   15ed8:	0084b023          	sd	s0,0(s1)
   15edc:	01442423          	sw	s4,8(s0)
   15ee0:	01342623          	sw	s3,12(s0)
   15ee4:	01242823          	sw	s2,16(s0)
   15ee8:	02813083          	ld	ra,40(sp)
   15eec:	02013403          	ld	s0,32(sp)
   15ef0:	01813483          	ld	s1,24(sp)
   15ef4:	01013903          	ld	s2,16(sp)
   15ef8:	00813983          	ld	s3,8(sp)
   15efc:	00013a03          	ld	s4,0(sp)
   15f00:	03010113          	addi	sp,sp,48
   15f04:	00008067          	ret
   15f08:	ea018413          	addi	s0,gp,-352
   15f0c:	fcdff06f          	j	15ed8 <sigprocmask@plt+0x2e78>
   15f10:	00053783          	ld	a5,0(a0)
   15f14:	06078a63          	beqz	a5,15f88 <sigprocmask@plt+0x2f28>
   15f18:	d681b703          	ld	a4,-664(gp)
   15f1c:	fe010113          	addi	sp,sp,-32
   15f20:	00813823          	sd	s0,16(sp)
   15f24:	04072783          	lw	a5,64(a4)
   15f28:	00113c23          	sd	ra,24(sp)
   15f2c:	00913423          	sd	s1,8(sp)
   15f30:	0017879b          	addiw	a5,a5,1
   15f34:	00050413          	mv	s0,a0
   15f38:	04f72023          	sw	a5,64(a4)
   15f3c:	d601b483          	ld	s1,-672(gp)
   15f40:	0004b503          	ld	a0,0(s1)
   15f44:	00043783          	ld	a5,0(s0)
   15f48:	02f51863          	bne	a0,a5,15f78 <sigprocmask@plt+0x2f18>
   15f4c:	00843783          	ld	a5,8(s0)
   15f50:	01043703          	ld	a4,16(s0)
   15f54:	01013403          	ld	s0,16(sp)
   15f58:	00f4b423          	sd	a5,8(s1)
   15f5c:	00e787b3          	add	a5,a5,a4
   15f60:	01813083          	ld	ra,24(sp)
   15f64:	00e4bc23          	sd	a4,24(s1)
   15f68:	00f4b823          	sd	a5,16(s1)
   15f6c:	00813483          	ld	s1,8(sp)
   15f70:	02010113          	addi	sp,sp,32
   15f74:	995ff06f          	j	15908 <sigprocmask@plt+0x28a8>
   15f78:	00053783          	ld	a5,0(a0)
   15f7c:	00f4b023          	sd	a5,0(s1)
   15f80:	8d0fd0ef          	jal	ra,13050 <free@plt>
   15f84:	fbdff06f          	j	15f40 <sigprocmask@plt+0x2ee0>
   15f88:	00008067          	ret
   15f8c:	f9010113          	addi	sp,sp,-112
   15f90:	04f13c23          	sd	a5,88(sp)
   15f94:	04e13823          	sd	a4,80(sp)
   15f98:	d681b703          	ld	a4,-664(gp)
   15f9c:	02b13c23          	sd	a1,56(sp)
   15fa0:	04c13023          	sd	a2,64(sp)
   15fa4:	04d13423          	sd	a3,72(sp)
   15fa8:	07013023          	sd	a6,96(sp)
   15fac:	07113423          	sd	a7,104(sp)
   15fb0:	04072783          	lw	a5,64(a4)
   15fb4:	02113423          	sd	ra,40(sp)
   15fb8:	0017879b          	addiw	a5,a5,1
   15fbc:	04f72023          	sw	a5,64(a4)
   15fc0:	03810593          	addi	a1,sp,56
   15fc4:	00b13c23          	sd	a1,24(sp)
   15fc8:	c09fc0ef          	jal	ra,12bd0 <vprintf@plt>
   15fcc:	00a13423          	sd	a0,8(sp)
   15fd0:	939ff0ef          	jal	ra,15908 <sigprocmask@plt+0x28a8>
   15fd4:	02813083          	ld	ra,40(sp)
   15fd8:	00813503          	ld	a0,8(sp)
   15fdc:	07010113          	addi	sp,sp,112
   15fe0:	00008067          	ret
   15fe4:	fe010113          	addi	sp,sp,-32
   15fe8:	00913423          	sd	s1,8(sp)
   15fec:	d681b483          	ld	s1,-664(gp)
   15ff0:	00813823          	sd	s0,16(sp)
   15ff4:	00113c23          	sd	ra,24(sp)
   15ff8:	01213023          	sd	s2,0(sp)
   15ffc:	0584c783          	lbu	a5,88(s1)
   16000:	d9818413          	addi	s0,gp,-616
   16004:	00042683          	lw	a3,0(s0)
   16008:	0017871b          	addiw	a4,a5,1
   1600c:	06e68e63          	beq	a3,a4,16088 <sigprocmask@plt+0x3028>
   16010:	00200513          	li	a0,2
   16014:	00e42023          	sw	a4,0(s0)
   16018:	e44ff0ef          	jal	ra,1565c <sigprocmask@plt+0x25fc>
   1601c:	00300513          	li	a0,3
   16020:	e3cff0ef          	jal	ra,1565c <sigprocmask@plt+0x25fc>
   16024:	00f00513          	li	a0,15
   16028:	e34ff0ef          	jal	ra,1565c <sigprocmask@plt+0x25fc>
   1602c:	00042783          	lw	a5,0(s0)
   16030:	00100913          	li	s2,1
   16034:	04f95a63          	bge	s2,a5,16088 <sigprocmask@plt+0x3028>
   16038:	d8818413          	addi	s0,gp,-632
   1603c:	00042783          	lw	a5,0(s0)
   16040:	02079263          	bnez	a5,16064 <sigprocmask@plt+0x3004>
   16044:	00024637          	lui	a2,0x24
   16048:	000255b7          	lui	a1,0x25
   1604c:	00024537          	lui	a0,0x24
   16050:	bb860613          	addi	a2,a2,-1096 # 23bb8 <sigprocmask@plt+0x10b58>
   16054:	efd58593          	addi	a1,a1,-259 # 24efd <sigprocmask@plt+0x11e9d>
   16058:	bd050513          	addi	a0,a0,-1072 # 23bd0 <sigprocmask@plt+0x10b70>
   1605c:	f31ff0ef          	jal	ra,15f8c <sigprocmask@plt+0x2f2c>
   16060:	01242023          	sw	s2,0(s0)
   16064:	d2818413          	addi	s0,gp,-728
   16068:	00043783          	ld	a5,0(s0)
   1606c:	00079e63          	bnez	a5,16088 <sigprocmask@plt+0x3028>
   16070:	01700513          	li	a0,23
   16074:	2410b0ef          	jal	ra,21ab4 <sigprocmask@plt+0xea54>
   16078:	000157b7          	lui	a5,0x15
   1607c:	f7478793          	addi	a5,a5,-140 # 14f74 <sigprocmask@plt+0x1f14>
   16080:	00a43023          	sd	a0,0(s0)
   16084:	00f53823          	sd	a5,16(a0)
   16088:	060481a3          	sb	zero,99(s1)
   1608c:	01813083          	ld	ra,24(sp)
   16090:	01013403          	ld	s0,16(sp)
   16094:	00813483          	ld	s1,8(sp)
   16098:	00013903          	ld	s2,0(sp)
   1609c:	02010113          	addi	sp,sp,32
   160a0:	00008067          	ret
   160a4:	fa010113          	addi	sp,sp,-96
   160a8:	04113c23          	sd	ra,88(sp)
   160ac:	04813823          	sd	s0,80(sp)
   160b0:	04913423          	sd	s1,72(sp)
   160b4:	05213023          	sd	s2,64(sp)
   160b8:	03313c23          	sd	s3,56(sp)
   160bc:	03413823          	sd	s4,48(sp)
   160c0:	03513423          	sd	s5,40(sp)
   160c4:	5290c0ef          	jal	ra,22dec <sigprocmask@plt+0xfd8c>
   160c8:	0005049b          	sext.w	s1,a0
   160cc:	00025437          	lui	s0,0x25
   160d0:	00010513          	mv	a0,sp
   160d4:	02049993          	slli	s3,s1,0x20
   160d8:	8c9fc0ef          	jal	ra,129a0 <times@plt>
   160dc:	08240413          	addi	s0,s0,130 # 25082 <sigprocmask@plt+0x12022>
   160e0:	0209d993          	srli	s3,s3,0x20
   160e4:	3e800a93          	li	s5,1000
   160e8:	03c00913          	li	s2,60
   160ec:	00024a37          	lui	s4,0x24
   160f0:	00144783          	lbu	a5,1(s0)
   160f4:	02010713          	addi	a4,sp,32
   160f8:	be0a0513          	addi	a0,s4,-1056 # 23be0 <sigprocmask@plt+0x10b80>
   160fc:	00f707b3          	add	a5,a4,a5
   16100:	fe07b683          	ld	a3,-32(a5)
   16104:	00044703          	lbu	a4,0(s0)
   16108:	00240413          	addi	s0,s0,2
   1610c:	0336d5b3          	divu	a1,a3,s3
   16110:	0336f6b3          	remu	a3,a3,s3
   16114:	02da86bb          	mulw	a3,s5,a3
   16118:	0325f63b          	remuw	a2,a1,s2
   1611c:	0296d6bb          	divuw	a3,a3,s1
   16120:	0325d5bb          	divuw	a1,a1,s2
   16124:	e69ff0ef          	jal	ra,15f8c <sigprocmask@plt+0x2f2c>
   16128:	00044783          	lbu	a5,0(s0)
   1612c:	fc0792e3          	bnez	a5,160f0 <sigprocmask@plt+0x3090>
   16130:	05813083          	ld	ra,88(sp)
   16134:	05013403          	ld	s0,80(sp)
   16138:	04813483          	ld	s1,72(sp)
   1613c:	04013903          	ld	s2,64(sp)
   16140:	03813983          	ld	s3,56(sp)
   16144:	03013a03          	ld	s4,48(sp)
   16148:	02813a83          	ld	s5,40(sp)
   1614c:	00000513          	li	a0,0
   16150:	06010113          	addi	sp,sp,96
   16154:	00008067          	ret
   16158:	d681b703          	ld	a4,-664(gp)
   1615c:	ff010113          	addi	sp,sp,-16
   16160:	00813023          	sd	s0,0(sp)
   16164:	04072783          	lw	a5,64(a4)
   16168:	00113423          	sd	ra,8(sp)
   1616c:	00050413          	mv	s0,a0
   16170:	0017879b          	addiw	a5,a5,1
   16174:	04f72023          	sw	a5,64(a4)
   16178:	00050593          	mv	a1,a0
   1617c:	00a00513          	li	a0,10
   16180:	fb0fc0ef          	jal	ra,12930 <putc_unlocked@plt>
   16184:	00040513          	mv	a0,s0
   16188:	959fc0ef          	jal	ra,12ae0 <fflush@plt>
   1618c:	00013403          	ld	s0,0(sp)
   16190:	00813083          	ld	ra,8(sp)
   16194:	01010113          	addi	sp,sp,16
   16198:	f70ff06f          	j	15908 <sigprocmask@plt+0x28a8>
   1619c:	000277b7          	lui	a5,0x27
   161a0:	e487b783          	ld	a5,-440(a5) # 26e48 <stderr>
   161a4:	fc010113          	addi	sp,sp,-64
   161a8:	02813823          	sd	s0,48(sp)
   161ac:	00f13023          	sd	a5,0(sp)
   161b0:	d681b403          	ld	s0,-664(gp)
   161b4:	02913423          	sd	s1,40(sp)
   161b8:	00050493          	mv	s1,a0
   161bc:	03043603          	ld	a2,48(s0)
   161c0:	00013503          	ld	a0,0(sp)
   161c4:	01313c23          	sd	s3,24(sp)
   161c8:	000249b7          	lui	s3,0x24
   161cc:	03213023          	sd	s2,32(sp)
   161d0:	00058913          	mv	s2,a1
   161d4:	bf098593          	addi	a1,s3,-1040 # 23bf0 <sigprocmask@plt+0x10b90>
   161d8:	02113c23          	sd	ra,56(sp)
   161dc:	9b5fc0ef          	jal	ra,12b90 <fprintf@plt>
   161e0:	cd81b603          	ld	a2,-808(gp)
   161e4:	04060863          	beqz	a2,16234 <sigprocmask@plt+0x31d4>
   161e8:	03043503          	ld	a0,48(s0)
   161ec:	00060593          	mv	a1,a2
   161f0:	00c13423          	sd	a2,8(sp)
   161f4:	bfdfc0ef          	jal	ra,12df0 <strcmp@plt>
   161f8:	00050a63          	beqz	a0,1620c <sigprocmask@plt+0x31ac>
   161fc:	00813603          	ld	a2,8(sp)
   16200:	00013503          	ld	a0,0(sp)
   16204:	bf098593          	addi	a1,s3,-1040
   16208:	989fc0ef          	jal	ra,12b90 <fprintf@plt>
   1620c:	05844783          	lbu	a5,88(s0)
   16210:	00078863          	beqz	a5,16220 <sigprocmask@plt+0x31c0>
   16214:	c781b783          	ld	a5,-904(gp)
   16218:	00c7a783          	lw	a5,12(a5)
   1621c:	00f05c63          	blez	a5,16234 <sigprocmask@plt+0x31d4>
   16220:	01442603          	lw	a2,20(s0)
   16224:	00013503          	ld	a0,0(sp)
   16228:	000245b7          	lui	a1,0x24
   1622c:	bf858593          	addi	a1,a1,-1032 # 23bf8 <sigprocmask@plt+0x10b98>
   16230:	961fc0ef          	jal	ra,12b90 <fprintf@plt>
   16234:	00013503          	ld	a0,0(sp)
   16238:	00090613          	mv	a2,s2
   1623c:	00048593          	mv	a1,s1
   16240:	dd1fc0ef          	jal	ra,13010 <vfprintf@plt>
   16244:	03013403          	ld	s0,48(sp)
   16248:	00013503          	ld	a0,0(sp)
   1624c:	03813083          	ld	ra,56(sp)
   16250:	02813483          	ld	s1,40(sp)
   16254:	02013903          	ld	s2,32(sp)
   16258:	01813983          	ld	s3,24(sp)
   1625c:	04010113          	addi	sp,sp,64
   16260:	ef9ff06f          	j	16158 <sigprocmask@plt+0x30f8>
   16264:	fa010113          	addi	sp,sp,-96
   16268:	04f13423          	sd	a5,72(sp)
   1626c:	d681b783          	ld	a5,-664(gp)
   16270:	00113c23          	sd	ra,24(sp)
   16274:	02b13423          	sd	a1,40(sp)
   16278:	02c13823          	sd	a2,48(sp)
   1627c:	02d13c23          	sd	a3,56(sp)
   16280:	04e13023          	sd	a4,64(sp)
   16284:	05013823          	sd	a6,80(sp)
   16288:	05113c23          	sd	a7,88(sp)
   1628c:	00200713          	li	a4,2
   16290:	02810593          	addi	a1,sp,40
   16294:	00e78023          	sb	a4,0(a5)
   16298:	00b13423          	sd	a1,8(sp)
   1629c:	f01ff0ef          	jal	ra,1619c <sigprocmask@plt+0x313c>
   162a0:	825ff0ef          	jal	ra,15ac4 <sigprocmask@plt+0x2a64>
   162a4:	00100513          	li	a0,1
   162a8:	ea5fe0ef          	jal	ra,1514c <sigprocmask@plt+0x20ec>
   162ac:	d401b703          	ld	a4,-704(gp)
   162b0:	00050793          	mv	a5,a0
   162b4:	d4018893          	addi	a7,gp,-704
   162b8:	00070663          	beqz	a4,162c4 <sigprocmask@plt+0x3264>
   162bc:	00074683          	lbu	a3,0(a4)
   162c0:	04069663          	bnez	a3,1630c <sigprocmask@plt+0x32ac>
   162c4:	cb818613          	addi	a2,gp,-840
   162c8:	00063583          	ld	a1,0(a2)
   162cc:	0005b683          	ld	a3,0(a1)
   162d0:	00069863          	bnez	a3,162e0 <sigprocmask@plt+0x3280>
   162d4:	00000593          	li	a1,0
   162d8:	00058513          	mv	a0,a1
   162dc:	00008067          	ret
   162e0:	0006c503          	lbu	a0,0(a3)
   162e4:	02d00713          	li	a4,45
   162e8:	fee516e3          	bne	a0,a4,162d4 <sigprocmask@plt+0x3274>
   162ec:	0016c803          	lbu	a6,1(a3)
   162f0:	00168713          	addi	a4,a3,1
   162f4:	fe0800e3          	beqz	a6,162d4 <sigprocmask@plt+0x3274>
   162f8:	00858593          	addi	a1,a1,8
   162fc:	00b63023          	sd	a1,0(a2)
   16300:	00a81663          	bne	a6,a0,1630c <sigprocmask@plt+0x32ac>
   16304:	0026c683          	lbu	a3,2(a3)
   16308:	fc0686e3          	beqz	a3,162d4 <sigprocmask@plt+0x3274>
   1630c:	ff010113          	addi	sp,sp,-16
   16310:	00113423          	sd	ra,8(sp)
   16314:	00074583          	lbu	a1,0(a4)
   16318:	03a00613          	li	a2,58
   1631c:	0007c683          	lbu	a3,0(a5)
   16320:	04b69263          	bne	a3,a1,16364 <sigprocmask@plt+0x3304>
   16324:	0017c603          	lbu	a2,1(a5)
   16328:	03a00793          	li	a5,58
   1632c:	00170693          	addi	a3,a4,1
   16330:	0005859b          	sext.w	a1,a1
   16334:	06f61063          	bne	a2,a5,16394 <sigprocmask@plt+0x3334>
   16338:	00174783          	lbu	a5,1(a4)
   1633c:	04079863          	bnez	a5,1638c <sigprocmask@plt+0x332c>
   16340:	cb818793          	addi	a5,gp,-840
   16344:	0007b703          	ld	a4,0(a5)
   16348:	00870693          	addi	a3,a4,8
   1634c:	00d7b023          	sd	a3,0(a5)
   16350:	00073683          	ld	a3,0(a4)
   16354:	02069c63          	bnez	a3,1638c <sigprocmask@plt+0x332c>
   16358:	00024537          	lui	a0,0x24
   1635c:	c2050513          	addi	a0,a0,-992 # 23c20 <sigprocmask@plt+0x10bc0>
   16360:	f05ff0ef          	jal	ra,16264 <sigprocmask@plt+0x3204>
   16364:	00069863          	bnez	a3,16374 <sigprocmask@plt+0x3314>
   16368:	00024537          	lui	a0,0x24
   1636c:	c0850513          	addi	a0,a0,-1016 # 23c08 <sigprocmask@plt+0x10ba8>
   16370:	ef5ff0ef          	jal	ra,16264 <sigprocmask@plt+0x3204>
   16374:	0017c503          	lbu	a0,1(a5)
   16378:	00178693          	addi	a3,a5,1
   1637c:	00278793          	addi	a5,a5,2
   16380:	f8c50ee3          	beq	a0,a2,1631c <sigprocmask@plt+0x32bc>
   16384:	00068793          	mv	a5,a3
   16388:	f95ff06f          	j	1631c <sigprocmask@plt+0x32bc>
   1638c:	d2d1bc23          	sd	a3,-712(gp)
   16390:	00000693          	li	a3,0
   16394:	00813083          	ld	ra,8(sp)
   16398:	00d8b023          	sd	a3,0(a7)
   1639c:	00058513          	mv	a0,a1
   163a0:	01010113          	addi	sp,sp,16
   163a4:	00008067          	ret
   163a8:	fe010113          	addi	sp,sp,-32
   163ac:	00813823          	sd	s0,16(sp)
   163b0:	00913423          	sd	s1,8(sp)
   163b4:	01213023          	sd	s2,0(sp)
   163b8:	00113c23          	sd	ra,24(sp)
   163bc:	04c00493          	li	s1,76
   163c0:	00000413          	li	s0,0
   163c4:	00024937          	lui	s2,0x24
   163c8:	c3890513          	addi	a0,s2,-968 # 23c38 <sigprocmask@plt+0x10bd8>
   163cc:	ee1ff0ef          	jal	ra,162ac <sigprocmask@plt+0x324c>
   163d0:	02051063          	bnez	a0,163f0 <sigprocmask@plt+0x3390>
   163d4:	01813083          	ld	ra,24(sp)
   163d8:	00040513          	mv	a0,s0
   163dc:	01013403          	ld	s0,16(sp)
   163e0:	00813483          	ld	s1,8(sp)
   163e4:	00013903          	ld	s2,0(sp)
   163e8:	02010113          	addi	sp,sp,32
   163ec:	00008067          	ret
   163f0:	00a48463          	beq	s1,a0,163f8 <sigprocmask@plt+0x3398>
   163f4:	00144413          	xori	s0,s0,1
   163f8:	00050493          	mv	s1,a0
   163fc:	fcdff06f          	j	163c8 <sigprocmask@plt+0x3368>
   16400:	fe010113          	addi	sp,sp,-32
   16404:	00113c23          	sd	ra,24(sp)
   16408:	00a13423          	sd	a0,8(sp)
   1640c:	991fe0ef          	jal	ra,14d9c <sigprocmask@plt+0x1d3c>
   16410:	00813583          	ld	a1,8(sp)
   16414:	00051863          	bnez	a0,16424 <sigprocmask@plt+0x33c4>
   16418:	00024537          	lui	a0,0x24
   1641c:	c4050513          	addi	a0,a0,-960 # 23c40 <sigprocmask@plt+0x10be0>
   16420:	e45ff0ef          	jal	ra,16264 <sigprocmask@plt+0x3204>
   16424:	01813083          	ld	ra,24(sp)
   16428:	00058513          	mv	a0,a1
   1642c:	02010113          	addi	sp,sp,32
   16430:	ae1fc06f          	j	12f10 <atoi@plt>
   16434:	0085b503          	ld	a0,8(a1)
   16438:	fd010113          	addi	sp,sp,-48
   1643c:	02813023          	sd	s0,32(sp)
   16440:	02113423          	sd	ra,40(sp)
   16444:	00913c23          	sd	s1,24(sp)
   16448:	01213823          	sd	s2,16(sp)
   1644c:	01313423          	sd	s3,8(sp)
   16450:	01413023          	sd	s4,0(sp)
   16454:	00100413          	li	s0,1
   16458:	00050663          	beqz	a0,16464 <sigprocmask@plt+0x3404>
   1645c:	fa5ff0ef          	jal	ra,16400 <sigprocmask@plt+0x33a0>
   16460:	00050413          	mv	s0,a0
   16464:	d701b903          	ld	s2,-656(gp)
   16468:	00100513          	li	a0,1
   1646c:	00092783          	lw	a5,0(s2)
   16470:	0687c463          	blt	a5,s0,164d8 <sigprocmask@plt+0x3478>
   16474:	d681b703          	ld	a4,-664(gp)
   16478:	04072783          	lw	a5,64(a4)
   1647c:	0017879b          	addiw	a5,a5,1
   16480:	04f72023          	sw	a5,64(a4)
   16484:	00092783          	lw	a5,0(s2)
   16488:	00893483          	ld	s1,8(s2)
   1648c:	00040993          	mv	s3,s0
   16490:	408787bb          	subw	a5,a5,s0
   16494:	00f92023          	sw	a5,0(s2)
   16498:	00048a13          	mv	s4,s1
   1649c:	fff9899b          	addiw	s3,s3,-1
   164a0:	0409dc63          	bgez	s3,164f8 <sigprocmask@plt+0x3498>
   164a4:	0004079b          	sext.w	a5,s0
   164a8:	00045463          	bgez	s0,164b0 <sigprocmask@plt+0x3450>
   164ac:	00000793          	li	a5,0
   164b0:	00893703          	ld	a4,8(s2)
   164b4:	00379793          	slli	a5,a5,0x3
   164b8:	00f487b3          	add	a5,s1,a5
   164bc:	0007b683          	ld	a3,0(a5)
   164c0:	00878793          	addi	a5,a5,8
   164c4:	00870713          	addi	a4,a4,8
   164c8:	fed73c23          	sd	a3,-8(a4)
   164cc:	fe0698e3          	bnez	a3,164bc <sigprocmask@plt+0x345c>
   164d0:	c38ff0ef          	jal	ra,15908 <sigprocmask@plt+0x28a8>
   164d4:	00000513          	li	a0,0
   164d8:	02813083          	ld	ra,40(sp)
   164dc:	02013403          	ld	s0,32(sp)
   164e0:	01813483          	ld	s1,24(sp)
   164e4:	01013903          	ld	s2,16(sp)
   164e8:	00813983          	ld	s3,8(sp)
   164ec:	00013a03          	ld	s4,0(sp)
   164f0:	03010113          	addi	sp,sp,48
   164f4:	00008067          	ret
   164f8:	00494783          	lbu	a5,4(s2)
   164fc:	00078663          	beqz	a5,16508 <sigprocmask@plt+0x34a8>
   16500:	000a3503          	ld	a0,0(s4)
   16504:	b4dfc0ef          	jal	ra,13050 <free@plt>
   16508:	008a0a13          	addi	s4,s4,8
   1650c:	f91ff06f          	j	1649c <sigprocmask@plt+0x343c>
   16510:	0085b503          	ld	a0,8(a1)
   16514:	02050263          	beqz	a0,16538 <sigprocmask@plt+0x34d8>
   16518:	ff010113          	addi	sp,sp,-16
   1651c:	00113423          	sd	ra,8(sp)
   16520:	ee1ff0ef          	jal	ra,16400 <sigprocmask@plt+0x33a0>
   16524:	00813083          	ld	ra,8(sp)
   16528:	00400793          	li	a5,4
   1652c:	d8f1a823          	sw	a5,-624(gp)
   16530:	01010113          	addi	sp,sp,16
   16534:	00008067          	ret
   16538:	d681b783          	ld	a5,-664(gp)
   1653c:	0007c503          	lbu	a0,0(a5)
   16540:	00800793          	li	a5,8
   16544:	d8f1a823          	sw	a5,-624(gp)
   16548:	00008067          	ret
   1654c:	ff010113          	addi	sp,sp,-16
   16550:	00813023          	sd	s0,0(sp)
   16554:	00113423          	sd	ra,8(sp)
   16558:	00058413          	mv	s0,a1
   1655c:	811ff0ef          	jal	ra,15d6c <sigprocmask@plt+0x2d0c>
   16560:	02051063          	bnez	a0,16580 <sigprocmask@plt+0x3520>
   16564:	00843503          	ld	a0,8(s0)
   16568:	00050863          	beqz	a0,16578 <sigprocmask@plt+0x3518>
   1656c:	e95ff0ef          	jal	ra,16400 <sigprocmask@plt+0x33a0>
   16570:	d681b783          	ld	a5,-664(gp)
   16574:	00a7a423          	sw	a0,8(a5)
   16578:	00400513          	li	a0,4
   1657c:	bd1fe0ef          	jal	ra,1514c <sigprocmask@plt+0x20ec>
   16580:	00813083          	ld	ra,8(sp)
   16584:	00013403          	ld	s0,0(sp)
   16588:	00000513          	li	a0,0
   1658c:	01010113          	addi	sp,sp,16
   16590:	00008067          	ret
   16594:	fb010113          	addi	sp,sp,-80
   16598:	04813023          	sd	s0,64(sp)
   1659c:	02913c23          	sd	s1,56(sp)
   165a0:	04113423          	sd	ra,72(sp)
   165a4:	00000493          	li	s1,0
   165a8:	00024437          	lui	s0,0x24
   165ac:	c5840513          	addi	a0,s0,-936 # 23c58 <sigprocmask@plt+0x10bf8>
   165b0:	cfdff0ef          	jal	ra,162ac <sigprocmask@plt+0x324c>
   165b4:	0c051a63          	bnez	a0,16688 <sigprocmask@plt+0x3628>
   165b8:	d681b703          	ld	a4,-664(gp)
   165bc:	04072783          	lw	a5,64(a4)
   165c0:	0017879b          	addiw	a5,a5,1
   165c4:	04f72023          	sw	a5,64(a4)
   165c8:	e28fc0ef          	jal	ra,12bf0 <umask@plt>
   165cc:	0005059b          	sext.w	a1,a0
   165d0:	00058513          	mv	a0,a1
   165d4:	00b13423          	sd	a1,8(sp)
   165d8:	e18fc0ef          	jal	ra,12bf0 <umask@plt>
   165dc:	b2cff0ef          	jal	ra,15908 <sigprocmask@plt+0x28a8>
   165e0:	cb81b783          	ld	a5,-840(gp)
   165e4:	00813583          	ld	a1,8(sp)
   165e8:	0007b403          	ld	s0,0(a5)
   165ec:	0c041063          	bnez	s0,166ac <sigprocmask@plt+0x364c>
   165f0:	0a048663          	beqz	s1,1669c <sigprocmask@plt+0x363c>
   165f4:	00200713          	li	a4,2
   165f8:	01810793          	addi	a5,sp,24
   165fc:	02c00513          	li	a0,44
   16600:	c3a18693          	addi	a3,gp,-966
   16604:	03d00813          	li	a6,61
   16608:	07200893          	li	a7,114
   1660c:	07700313          	li	t1,119
   16610:	07800e13          	li	t3,120
   16614:	fff00613          	li	a2,-1
   16618:	00e68eb3          	add	t4,a3,a4
   1661c:	000ece83          	lbu	t4,0(t4)
   16620:	00a78023          	sb	a0,0(a5)
   16624:	01078123          	sb	a6,2(a5)
   16628:	01d780a3          	sb	t4,1(a5)
   1662c:	1005fe93          	andi	t4,a1,256
   16630:	060e8063          	beqz	t4,16690 <sigprocmask@plt+0x3630>
   16634:	00378793          	addi	a5,a5,3
   16638:	0805fe93          	andi	t4,a1,128
   1663c:	000e9663          	bnez	t4,16648 <sigprocmask@plt+0x35e8>
   16640:	00678023          	sb	t1,0(a5)
   16644:	00178793          	addi	a5,a5,1
   16648:	0405fe93          	andi	t4,a1,64
   1664c:	000e9663          	bnez	t4,16658 <sigprocmask@plt+0x35f8>
   16650:	01c78023          	sb	t3,0(a5)
   16654:	00178793          	addi	a5,a5,1
   16658:	fff70713          	addi	a4,a4,-1
   1665c:	0035959b          	slliw	a1,a1,0x3
   16660:	fac71ce3          	bne	a4,a2,16618 <sigprocmask@plt+0x35b8>
   16664:	00078023          	sb	zero,0(a5)
   16668:	01910513          	addi	a0,sp,25
   1666c:	bd4fc0ef          	jal	ra,12a40 <puts@plt>
   16670:	04813083          	ld	ra,72(sp)
   16674:	04013403          	ld	s0,64(sp)
   16678:	03813483          	ld	s1,56(sp)
   1667c:	00000513          	li	a0,0
   16680:	05010113          	addi	sp,sp,80
   16684:	00008067          	ret
   16688:	00100493          	li	s1,1
   1668c:	f21ff06f          	j	165ac <sigprocmask@plt+0x354c>
   16690:	011781a3          	sb	a7,3(a5)
   16694:	00478793          	addi	a5,a5,4
   16698:	fa1ff06f          	j	16638 <sigprocmask@plt+0x35d8>
   1669c:	00024537          	lui	a0,0x24
   166a0:	c6050513          	addi	a0,a0,-928 # 23c60 <sigprocmask@plt+0x10c00>
   166a4:	8e9ff0ef          	jal	ra,15f8c <sigprocmask@plt+0x2f2c>
   166a8:	fc9ff06f          	j	16670 <sigprocmask@plt+0x3610>
   166ac:	00044783          	lbu	a5,0(s0)
   166b0:	00900713          	li	a4,9
   166b4:	fd07879b          	addiw	a5,a5,-48
   166b8:	0ff7f793          	andi	a5,a5,255
   166bc:	00f77463          	bgeu	a4,a5,166c4 <sigprocmask@plt+0x3664>
   166c0:	1ff5c593          	xori	a1,a1,511
   166c4:	00040513          	mv	a0,s0
   166c8:	74d0b0ef          	jal	ra,22614 <sigprocmask@plt+0xf5b4>
   166cc:	0005051b          	sext.w	a0,a0
   166d0:	1ff00793          	li	a5,511
   166d4:	00a7fa63          	bgeu	a5,a0,166e8 <sigprocmask@plt+0x3688>
   166d8:	00024537          	lui	a0,0x24
   166dc:	00040593          	mv	a1,s0
   166e0:	c6850513          	addi	a0,a0,-920 # 23c68 <sigprocmask@plt+0x10c08>
   166e4:	b81ff0ef          	jal	ra,16264 <sigprocmask@plt+0x3204>
   166e8:	00044783          	lbu	a5,0(s0)
   166ec:	00900713          	li	a4,9
   166f0:	fd07879b          	addiw	a5,a5,-48
   166f4:	0ff7f793          	andi	a5,a5,255
   166f8:	00f77463          	bgeu	a4,a5,16700 <sigprocmask@plt+0x36a0>
   166fc:	1ff54513          	xori	a0,a0,511
   16700:	cf0fc0ef          	jal	ra,12bf0 <umask@plt>
   16704:	f6dff06f          	j	16670 <sigprocmask@plt+0x3610>
   16708:	fe010113          	addi	sp,sp,-32
   1670c:	00913423          	sd	s1,8(sp)
   16710:	d601b783          	ld	a5,-672(gp)
   16714:	00813823          	sd	s0,16(sp)
   16718:	00750413          	addi	s0,a0,7
   1671c:	0187b783          	ld	a5,24(a5)
   16720:	00113c23          	sd	ra,24(sp)
   16724:	01213023          	sd	s2,0(sp)
   16728:	ff847413          	andi	s0,s0,-8
   1672c:	0487fa63          	bgeu	a5,s0,16780 <sigprocmask@plt+0x3720>
   16730:	1f800793          	li	a5,504
   16734:	00040913          	mv	s2,s0
   16738:	06f47e63          	bgeu	s0,a5,167b4 <sigprocmask@plt+0x3754>
   1673c:	1f800913          	li	s2,504
   16740:	20000513          	li	a0,512
   16744:	d681b703          	ld	a4,-664(gp)
   16748:	04072783          	lw	a5,64(a4)
   1674c:	0017879b          	addiw	a5,a5,1
   16750:	04f72023          	sw	a5,64(a4)
   16754:	db9fd0ef          	jal	ra,1450c <sigprocmask@plt+0x14ac>
   16758:	d601b783          	ld	a5,-672(gp)
   1675c:	0007b703          	ld	a4,0(a5)
   16760:	00e53023          	sd	a4,0(a0)
   16764:	00850713          	addi	a4,a0,8
   16768:	00e7b423          	sd	a4,8(a5)
   1676c:	01270733          	add	a4,a4,s2
   16770:	0127bc23          	sd	s2,24(a5)
   16774:	00e7b823          	sd	a4,16(a5)
   16778:	00a7b023          	sd	a0,0(a5)
   1677c:	98cff0ef          	jal	ra,15908 <sigprocmask@plt+0x28a8>
   16780:	d601b783          	ld	a5,-672(gp)
   16784:	01813083          	ld	ra,24(sp)
   16788:	00813483          	ld	s1,8(sp)
   1678c:	0087b503          	ld	a0,8(a5)
   16790:	00013903          	ld	s2,0(sp)
   16794:	00850733          	add	a4,a0,s0
   16798:	00e7b423          	sd	a4,8(a5)
   1679c:	0187b703          	ld	a4,24(a5)
   167a0:	40870433          	sub	s0,a4,s0
   167a4:	0087bc23          	sd	s0,24(a5)
   167a8:	01013403          	ld	s0,16(sp)
   167ac:	02010113          	addi	sp,sp,32
   167b0:	00008067          	ret
   167b4:	00840513          	addi	a0,s0,8
   167b8:	f88576e3          	bgeu	a0,s0,16744 <sigprocmask@plt+0x36e4>
   167bc:	00025537          	lui	a0,0x25
   167c0:	f3650513          	addi	a0,a0,-202 # 24f36 <sigprocmask@plt+0x11ed6>
   167c4:	aa1ff0ef          	jal	ra,16264 <sigprocmask@plt+0x3204>
   167c8:	d601b683          	ld	a3,-672(gp)
   167cc:	00050713          	mv	a4,a0
   167d0:	00000513          	li	a0,0
   167d4:	0006b603          	ld	a2,0(a3)
   167d8:	0086b583          	ld	a1,8(a3)
   167dc:	00860793          	addi	a5,a2,8
   167e0:	00f59863          	bne	a1,a5,167f0 <sigprocmask@plt+0x3790>
   167e4:	02068793          	addi	a5,a3,32
   167e8:	40f607b3          	sub	a5,a2,a5
   167ec:	00f03533          	snez	a0,a5
   167f0:	0186b783          	ld	a5,24(a3)
   167f4:	00c73023          	sd	a2,0(a4)
   167f8:	00b73423          	sd	a1,8(a4)
   167fc:	00f73823          	sd	a5,16(a4)
   16800:	f09ff06f          	j	16708 <sigprocmask@plt+0x36a8>
   16804:	fe010113          	addi	sp,sp,-32
   16808:	00113c23          	sd	ra,24(sp)
   1680c:	00a13423          	sd	a0,8(sp)
   16810:	f60fc0ef          	jal	ra,12f70 <strlen@plt>
   16814:	00150613          	addi	a2,a0,1
   16818:	00060513          	mv	a0,a2
   1681c:	00c13023          	sd	a2,0(sp)
   16820:	ee9ff0ef          	jal	ra,16708 <sigprocmask@plt+0x36a8>
   16824:	00013603          	ld	a2,0(sp)
   16828:	00813583          	ld	a1,8(sp)
   1682c:	01813083          	ld	ra,24(sp)
   16830:	02010113          	addi	sp,sp,32
   16834:	9dcfc06f          	j	12a10 <memcpy@plt>
   16838:	fe010113          	addi	sp,sp,-32
   1683c:	00113c23          	sd	ra,24(sp)
   16840:	00a13423          	sd	a0,8(sp)
   16844:	ec5ff0ef          	jal	ra,16708 <sigprocmask@plt+0x36a8>
   16848:	00813603          	ld	a2,8(sp)
   1684c:	01813083          	ld	ra,24(sp)
   16850:	00000593          	li	a1,0
   16854:	02010113          	addi	sp,sp,32
   16858:	d08fc06f          	j	12d60 <memset@plt>
   1685c:	ff010113          	addi	sp,sp,-16
   16860:	02000513          	li	a0,32
   16864:	00113423          	sd	ra,8(sp)
   16868:	fd1ff0ef          	jal	ra,16838 <sigprocmask@plt+0x37d8>
   1686c:	00f00713          	li	a4,15
   16870:	00e52023          	sw	a4,0(a0)
   16874:	d581b703          	ld	a4,-680(gp)
   16878:	00813083          	ld	ra,8(sp)
   1687c:	00e53823          	sd	a4,16(a0)
   16880:	cc01b703          	ld	a4,-832(gp)
   16884:	00e53c23          	sd	a4,24(a0)
   16888:	01010113          	addi	sp,sp,16
   1688c:	00008067          	ret
   16890:	fd010113          	addi	sp,sp,-48
   16894:	01413023          	sd	s4,0(sp)
   16898:	d681ba03          	ld	s4,-664(gp)
   1689c:	00913c23          	sd	s1,24(sp)
   168a0:	01313423          	sd	s3,8(sp)
   168a4:	040a2783          	lw	a5,64(s4)
   168a8:	02113423          	sd	ra,40(sp)
   168ac:	02813023          	sd	s0,32(sp)
   168b0:	01213823          	sd	s2,16(sp)
   168b4:	0017879b          	addiw	a5,a5,1
   168b8:	00050993          	mv	s3,a0
   168bc:	00058493          	mv	s1,a1
   168c0:	04fa2023          	sw	a5,64(s4)
   168c4:	000805b7          	lui	a1,0x80
   168c8:	eb8fc0ef          	jal	ra,12f80 <open@plt>
   168cc:	02055463          	bgez	a0,168f4 <sigprocmask@plt+0x3894>
   168d0:	0024f493          	andi	s1,s1,2
   168d4:	00050413          	mv	s0,a0
   168d8:	0a049463          	bnez	s1,16980 <sigprocmask@plt+0x3920>
   168dc:	07f00793          	li	a5,127
   168e0:	00024537          	lui	a0,0x24
   168e4:	00fa0023          	sb	a5,0(s4)
   168e8:	00098593          	mv	a1,s3
   168ec:	c8050513          	addi	a0,a0,-896 # 23c80 <sigprocmask@plt+0x10c20>
   168f0:	975ff0ef          	jal	ra,16264 <sigprocmask@plt+0x3204>
   168f4:	00900993          	li	s3,9
   168f8:	00050913          	mv	s2,a0
   168fc:	0aa9c663          	blt	s3,a0,169a8 <sigprocmask@plt+0x3948>
   16900:	00a00613          	li	a2,10
   16904:	40600593          	li	a1,1030
   16908:	ec8fc0ef          	jal	ra,12fd0 <fcntl@plt>
   1690c:	00050413          	mv	s0,a0
   16910:	02055263          	bgez	a0,16934 <sigprocmask@plt+0x38d4>
   16914:	ca01b783          	ld	a5,-864(gp)
   16918:	0007a783          	lw	a5,0(a5)
   1691c:	03378063          	beq	a5,s3,1693c <sigprocmask@plt+0x38dc>
   16920:	00078a63          	beqz	a5,16934 <sigprocmask@plt+0x38d4>
   16924:	00024537          	lui	a0,0x24
   16928:	00090593          	mv	a1,s2
   1692c:	c9850513          	addi	a0,a0,-872 # 23c98 <sigprocmask@plt+0x10c38>
   16930:	935ff0ef          	jal	ra,16264 <sigprocmask@plt+0x3204>
   16934:	00090513          	mv	a0,s2
   16938:	ec8fc0ef          	jal	ra,13000 <close@plt>
   1693c:	0014f493          	andi	s1,s1,1
   16940:	c7818913          	addi	s2,gp,-904
   16944:	00048863          	beqz	s1,16954 <sigprocmask@plt+0x38f4>
   16948:	eb0fe0ef          	jal	ra,14ff8 <sigprocmask@plt+0x1f98>
   1694c:	00093783          	ld	a5,0(s2)
   16950:	0207b023          	sd	zero,32(a5)
   16954:	00093483          	ld	s1,0(s2)
   16958:	0204b783          	ld	a5,32(s1)
   1695c:	0084a623          	sw	s0,12(s1)
   16960:	00079863          	bnez	a5,16970 <sigprocmask@plt+0x3910>
   16964:	40000513          	li	a0,1024
   16968:	ba5fd0ef          	jal	ra,1450c <sigprocmask@plt+0x14ac>
   1696c:	02a4b023          	sd	a0,32(s1)
   16970:	00093783          	ld	a5,0(s2)
   16974:	00100713          	li	a4,1
   16978:	0007b823          	sd	zero,16(a5)
   1697c:	00e7a423          	sw	a4,8(a5)
   16980:	f89fe0ef          	jal	ra,15908 <sigprocmask@plt+0x28a8>
   16984:	02813083          	ld	ra,40(sp)
   16988:	00040513          	mv	a0,s0
   1698c:	02013403          	ld	s0,32(sp)
   16990:	01813483          	ld	s1,24(sp)
   16994:	01013903          	ld	s2,16(sp)
   16998:	00813983          	ld	s3,8(sp)
   1699c:	00013a03          	ld	s4,0(sp)
   169a0:	03010113          	addi	sp,sp,48
   169a4:	00008067          	ret
   169a8:	00050413          	mv	s0,a0
   169ac:	f91ff06f          	j	1693c <sigprocmask@plt+0x38dc>
   169b0:	fd010113          	addi	sp,sp,-48
   169b4:	00913c23          	sd	s1,24(sp)
   169b8:	d601b483          	ld	s1,-672(gp)
   169bc:	02813023          	sd	s0,32(sp)
   169c0:	02113423          	sd	ra,40(sp)
   169c4:	0184b603          	ld	a2,24(s1)
   169c8:	01213823          	sd	s2,16(sp)
   169cc:	00161413          	slli	s0,a2,0x1
   169d0:	00c47863          	bgeu	s0,a2,169e0 <sigprocmask@plt+0x3980>
   169d4:	00025537          	lui	a0,0x25
   169d8:	f3650513          	addi	a0,a0,-202 # 24f36 <sigprocmask@plt+0x11ed6>
   169dc:	889ff0ef          	jal	ra,16264 <sigprocmask@plt+0x3204>
   169e0:	00078713          	mv	a4,a5
   169e4:	08056793          	ori	a5,a0,128
   169e8:	00778793          	addi	a5,a5,7
   169ec:	ff87f793          	andi	a5,a5,-8
   169f0:	00f47463          	bgeu	s0,a5,169f8 <sigprocmask@plt+0x3998>
   169f4:	00f40433          	add	s0,s0,a5
   169f8:	0004b783          	ld	a5,0(s1)
   169fc:	0084b583          	ld	a1,8(s1)
   16a00:	00878693          	addi	a3,a5,8
   16a04:	06d59263          	bne	a1,a3,16a68 <sigprocmask@plt+0x3a08>
   16a08:	02048693          	addi	a3,s1,32
   16a0c:	04d78e63          	beq	a5,a3,16a68 <sigprocmask@plt+0x3a08>
   16a10:	d681b683          	ld	a3,-664(gp)
   16a14:	0406a783          	lw	a5,64(a3)
   16a18:	0017879b          	addiw	a5,a5,1
   16a1c:	04f6a023          	sw	a5,64(a3)
   16a20:	d601b483          	ld	s1,-672(gp)
   16a24:	00840593          	addi	a1,s0,8
   16a28:	0004b503          	ld	a0,0(s1)
   16a2c:	00053903          	ld	s2,0(a0)
   16a30:	b0dfd0ef          	jal	ra,1453c <sigprocmask@plt+0x14dc>
   16a34:	02813083          	ld	ra,40(sp)
   16a38:	01253023          	sd	s2,0(a0)
   16a3c:	00a4b023          	sd	a0,0(s1)
   16a40:	00850513          	addi	a0,a0,8
   16a44:	00a4b423          	sd	a0,8(s1)
   16a48:	0084bc23          	sd	s0,24(s1)
   16a4c:	00850533          	add	a0,a0,s0
   16a50:	02013403          	ld	s0,32(sp)
   16a54:	01013903          	ld	s2,16(sp)
   16a58:	00a4b823          	sd	a0,16(s1)
   16a5c:	01813483          	ld	s1,24(sp)
   16a60:	03010113          	addi	sp,sp,48
   16a64:	ea5fe06f          	j	15908 <sigprocmask@plt+0x28a8>
   16a68:	00040513          	mv	a0,s0
   16a6c:	00b13423          	sd	a1,8(sp)
   16a70:	00c13023          	sd	a2,0(sp)
   16a74:	c95ff0ef          	jal	ra,16708 <sigprocmask@plt+0x36a8>
   16a78:	00013603          	ld	a2,0(sp)
   16a7c:	00813583          	ld	a1,8(sp)
   16a80:	f91fb0ef          	jal	ra,12a10 <memcpy@plt>
   16a84:	00a4b423          	sd	a0,8(s1)
   16a88:	0184b503          	ld	a0,24(s1)
   16a8c:	02813083          	ld	ra,40(sp)
   16a90:	01013903          	ld	s2,16(sp)
   16a94:	00850533          	add	a0,a0,s0
   16a98:	02013403          	ld	s0,32(sp)
   16a9c:	00a4bc23          	sd	a0,24(s1)
   16aa0:	01813483          	ld	s1,24(sp)
   16aa4:	03010113          	addi	sp,sp,48
   16aa8:	00008067          	ret
   16aac:	ff010113          	addi	sp,sp,-16
   16ab0:	00813023          	sd	s0,0(sp)
   16ab4:	d601b403          	ld	s0,-672(gp)
   16ab8:	00113423          	sd	ra,8(sp)
   16abc:	01843783          	ld	a5,24(s0)
   16ac0:	00a7f463          	bgeu	a5,a0,16ac8 <sigprocmask@plt+0x3a68>
   16ac4:	eedff0ef          	jal	ra,169b0 <sigprocmask@plt+0x3950>
   16ac8:	00843503          	ld	a0,8(s0)
   16acc:	00813083          	ld	ra,8(sp)
   16ad0:	00013403          	ld	s0,0(sp)
   16ad4:	01010113          	addi	sp,sp,16
   16ad8:	00008067          	ret
   16adc:	d601b783          	ld	a5,-672(gp)
   16ae0:	ff010113          	addi	sp,sp,-16
   16ae4:	00813023          	sd	s0,0(sp)
   16ae8:	0087b403          	ld	s0,8(a5)
   16aec:	00113423          	sd	ra,8(sp)
   16af0:	40858433          	sub	s0,a1,s0
   16af4:	00a40533          	add	a0,s0,a0
   16af8:	fb5ff0ef          	jal	ra,16aac <sigprocmask@plt+0x3a4c>
   16afc:	00813083          	ld	ra,8(sp)
   16b00:	00850533          	add	a0,a0,s0
   16b04:	00013403          	ld	s0,0(sp)
   16b08:	01010113          	addi	sp,sp,16
   16b0c:	00008067          	ret
   16b10:	fc010113          	addi	sp,sp,-64
   16b14:	01513423          	sd	s5,8(sp)
   16b18:	d601ba83          	ld	s5,-672(gp)
   16b1c:	03213023          	sd	s2,32(sp)
   16b20:	02813823          	sd	s0,48(sp)
   16b24:	008ab903          	ld	s2,8(s5)
   16b28:	01613023          	sd	s6,0(sp)
   16b2c:	02113c23          	sd	ra,56(sp)
   16b30:	02913423          	sd	s1,40(sp)
   16b34:	01313c23          	sd	s3,24(sp)
   16b38:	01413823          	sd	s4,16(sp)
   16b3c:	00050413          	mv	s0,a0
   16b40:	02200b13          	li	s6,34
   16b44:	02700593          	li	a1,39
   16b48:	00040513          	mv	a0,s0
   16b4c:	c74fc0ef          	jal	ra,12fc0 <strchrnul@plt>
   16b50:	40850a33          	sub	s4,a0,s0
   16b54:	00090593          	mv	a1,s2
   16b58:	00050993          	mv	s3,a0
   16b5c:	003a0513          	addi	a0,s4,3
   16b60:	f7dff0ef          	jal	ra,16adc <sigprocmask@plt+0x3a7c>
   16b64:	02700493          	li	s1,39
   16b68:	00950023          	sb	s1,0(a0)
   16b6c:	000a0613          	mv	a2,s4
   16b70:	00040593          	mv	a1,s0
   16b74:	00150513          	addi	a0,a0,1
   16b78:	e99fb0ef          	jal	ra,12a10 <memcpy@plt>
   16b7c:	01450533          	add	a0,a0,s4
   16b80:	00950023          	sb	s1,0(a0)
   16b84:	0009c783          	lbu	a5,0(s3)
   16b88:	00150913          	addi	s2,a0,1
   16b8c:	04979c63          	bne	a5,s1,16be4 <sigprocmask@plt+0x3b84>
   16b90:	00000493          	li	s1,0
   16b94:	02700793          	li	a5,39
   16b98:	00048a13          	mv	s4,s1
   16b9c:	00148493          	addi	s1,s1,1
   16ba0:	00998433          	add	s0,s3,s1
   16ba4:	00044703          	lbu	a4,0(s0)
   16ba8:	fef708e3          	beq	a4,a5,16b98 <sigprocmask@plt+0x3b38>
   16bac:	00090593          	mv	a1,s2
   16bb0:	004a0513          	addi	a0,s4,4
   16bb4:	f29ff0ef          	jal	ra,16adc <sigprocmask@plt+0x3a7c>
   16bb8:	fffa4593          	not	a1,s4
   16bbc:	01650023          	sb	s6,0(a0)
   16bc0:	00048613          	mv	a2,s1
   16bc4:	00b405b3          	add	a1,s0,a1
   16bc8:	00150513          	addi	a0,a0,1
   16bcc:	e45fb0ef          	jal	ra,12a10 <memcpy@plt>
   16bd0:	009504b3          	add	s1,a0,s1
   16bd4:	01648023          	sb	s6,0(s1)
   16bd8:	00044783          	lbu	a5,0(s0)
   16bdc:	00148913          	addi	s2,s1,1
   16be0:	f60792e3          	bnez	a5,16b44 <sigprocmask@plt+0x3ae4>
   16be4:	00090023          	sb	zero,0(s2)
   16be8:	03813083          	ld	ra,56(sp)
   16bec:	03013403          	ld	s0,48(sp)
   16bf0:	008ab503          	ld	a0,8(s5)
   16bf4:	02813483          	ld	s1,40(sp)
   16bf8:	02013903          	ld	s2,32(sp)
   16bfc:	01813983          	ld	s3,24(sp)
   16c00:	01013a03          	ld	s4,16(sp)
   16c04:	00813a83          	ld	s5,8(sp)
   16c08:	00013b03          	ld	s6,0(sp)
   16c0c:	04010113          	addi	sp,sp,64
   16c10:	00008067          	ret
   16c14:	02300713          	li	a4,35
   16c18:	02071713          	slli	a4,a4,0x20
   16c1c:	00050693          	mv	a3,a0
   16c20:	04f00593          	li	a1,79
   16c24:	02500813          	li	a6,37
   16c28:	01f70713          	addi	a4,a4,31
   16c2c:	0006c783          	lbu	a5,0(a3)
   16c30:	00079463          	bnez	a5,16c38 <sigprocmask@plt+0x3bd8>
   16c34:	00008067          	ret
   16c38:	fd57861b          	addiw	a2,a5,-43
   16c3c:	0ff67613          	andi	a2,a2,255
   16c40:	02c5e263          	bltu	a1,a2,16c64 <sigprocmask@plt+0x3c04>
   16c44:	fc57879b          	addiw	a5,a5,-59
   16c48:	0ff7f793          	andi	a5,a5,255
   16c4c:	00f86863          	bltu	a6,a5,16c5c <sigprocmask@plt+0x3bfc>
   16c50:	00f757b3          	srl	a5,a4,a5
   16c54:	0017f793          	andi	a5,a5,1
   16c58:	00079663          	bnez	a5,16c64 <sigprocmask@plt+0x3c04>
   16c5c:	00168693          	addi	a3,a3,1
   16c60:	fcdff06f          	j	16c2c <sigprocmask@plt+0x3bcc>
   16c64:	eadff06f          	j	16b10 <sigprocmask@plt+0x3ab0>
   16c68:	fd010113          	addi	sp,sp,-48
   16c6c:	02113423          	sd	ra,40(sp)
   16c70:	02813023          	sd	s0,32(sp)
   16c74:	00913c23          	sd	s1,24(sp)
   16c78:	00b13423          	sd	a1,8(sp)
   16c7c:	00050493          	mv	s1,a0
   16c80:	af0fc0ef          	jal	ra,12f70 <strlen@plt>
   16c84:	00813583          	ld	a1,8(sp)
   16c88:	00050413          	mv	s0,a0
   16c8c:	e51ff0ef          	jal	ra,16adc <sigprocmask@plt+0x3a7c>
   16c90:	00040613          	mv	a2,s0
   16c94:	00048593          	mv	a1,s1
   16c98:	d79fb0ef          	jal	ra,12a10 <memcpy@plt>
   16c9c:	02813083          	ld	ra,40(sp)
   16ca0:	00850533          	add	a0,a0,s0
   16ca4:	02013403          	ld	s0,32(sp)
   16ca8:	01813483          	ld	s1,24(sp)
   16cac:	03010113          	addi	sp,sp,48
   16cb0:	00008067          	ret
   16cb4:	fd010113          	addi	sp,sp,-48
   16cb8:	02813023          	sd	s0,32(sp)
   16cbc:	02113423          	sd	ra,40(sp)
   16cc0:	00913c23          	sd	s1,24(sp)
   16cc4:	01213823          	sd	s2,16(sp)
   16cc8:	01313423          	sd	s3,8(sp)
   16ccc:	00058413          	mv	s0,a1
   16cd0:	0a058863          	beqz	a1,16d80 <sigprocmask@plt+0x3d20>
   16cd4:	ce81b583          	ld	a1,-792(gp)
   16cd8:	00050913          	mv	s2,a0
   16cdc:	00141513          	slli	a0,s0,0x1
   16ce0:	00060493          	mv	s1,a2
   16ce4:	df9ff0ef          	jal	ra,16adc <sigprocmask@plt+0x3a7c>
   16ce8:	0064d713          	srli	a4,s1,0x6
   16cec:	000256b7          	lui	a3,0x25
   16cf0:	00025637          	lui	a2,0x25
   16cf4:	2004f893          	andi	a7,s1,512
   16cf8:	0114f313          	andi	t1,s1,17
   16cfc:	00477713          	andi	a4,a4,4
   16d00:	00890433          	add	s0,s2,s0
   16d04:	00050593          	mv	a1,a0
   16d08:	ce818993          	addi	s3,gp,-792
   16d0c:	da468693          	addi	a3,a3,-604 # 24da4 <sigprocmask@plt+0x11d44>
   16d10:	f8160613          	addi	a2,a2,-127 # 24f81 <sigprocmask@plt+0x11f21>
   16d14:	00c00e13          	li	t3,12
   16d18:	f8100e93          	li	t4,-127
   16d1c:	1004f493          	andi	s1,s1,256
   16d20:	00200f13          	li	t5,2
   16d24:	00094803          	lbu	a6,0(s2)
   16d28:	00190913          	addi	s2,s2,1
   16d2c:	04080263          	beqz	a6,16d70 <sigprocmask@plt+0x3d10>
   16d30:	02030a63          	beqz	t1,16d64 <sigprocmask@plt+0x3d04>
   16d34:	010607b3          	add	a5,a2,a6
   16d38:	0007c783          	lbu	a5,0(a5)
   16d3c:	00179793          	slli	a5,a5,0x1
   16d40:	00f687b3          	add	a5,a3,a5
   16d44:	0007d783          	lhu	a5,0(a5)
   16d48:	40e7d7bb          	sraw	a5,a5,a4
   16d4c:	00f7f793          	andi	a5,a5,15
   16d50:	01c78663          	beq	a5,t3,16d5c <sigprocmask@plt+0x3cfc>
   16d54:	00048863          	beqz	s1,16d64 <sigprocmask@plt+0x3d04>
   16d58:	01e79663          	bne	a5,t5,16d64 <sigprocmask@plt+0x3d04>
   16d5c:	01d58023          	sb	t4,0(a1) # 80000 <optind+0x58a30>
   16d60:	00158593          	addi	a1,a1,1
   16d64:	01058023          	sb	a6,0(a1)
   16d68:	00158593          	addi	a1,a1,1
   16d6c:	0080006f          	j	16d74 <sigprocmask@plt+0x3d14>
   16d70:	fe089ae3          	bnez	a7,16d64 <sigprocmask@plt+0x3d04>
   16d74:	fa8918e3          	bne	s2,s0,16d24 <sigprocmask@plt+0x3cc4>
   16d78:	00b9b023          	sd	a1,0(s3)
   16d7c:	40a58433          	sub	s0,a1,a0
   16d80:	02813083          	ld	ra,40(sp)
   16d84:	00040513          	mv	a0,s0
   16d88:	02013403          	ld	s0,32(sp)
   16d8c:	01813483          	ld	s1,24(sp)
   16d90:	01013903          	ld	s2,16(sp)
   16d94:	00813983          	ld	s3,8(sp)
   16d98:	03010113          	addi	sp,sp,48
   16d9c:	00008067          	ret
   16da0:	fe010113          	addi	sp,sp,-32
   16da4:	00813823          	sd	s0,16(sp)
   16da8:	d601b403          	ld	s0,-672(gp)
   16dac:	00000513          	li	a0,0
   16db0:	00913423          	sd	s1,8(sp)
   16db4:	00113c23          	sd	ra,24(sp)
   16db8:	01843483          	ld	s1,24(s0)
   16dbc:	bf5ff0ef          	jal	ra,169b0 <sigprocmask@plt+0x3950>
   16dc0:	00843503          	ld	a0,8(s0)
   16dc4:	01813083          	ld	ra,24(sp)
   16dc8:	01013403          	ld	s0,16(sp)
   16dcc:	00950533          	add	a0,a0,s1
   16dd0:	00813483          	ld	s1,8(sp)
   16dd4:	02010113          	addi	sp,sp,32
   16dd8:	00008067          	ret
   16ddc:	fc010113          	addi	sp,sp,-64
   16de0:	01513423          	sd	s5,8(sp)
   16de4:	d601ba83          	ld	s5,-672(gp)
   16de8:	d701b783          	ld	a5,-656(gp)
   16dec:	01413823          	sd	s4,16(sp)
   16df0:	00050a13          	mv	s4,a0
   16df4:	008ab503          	ld	a0,8(s5)
   16df8:	02913423          	sd	s1,40(sp)
   16dfc:	03213023          	sd	s2,32(sp)
   16e00:	01313c23          	sd	s3,24(sp)
   16e04:	01613023          	sd	s6,0(sp)
   16e08:	02113c23          	sd	ra,56(sp)
   16e0c:	02813823          	sd	s0,48(sp)
   16e10:	00060493          	mv	s1,a2
   16e14:	02078993          	addi	s3,a5,32
   16e18:	00ba6b33          	or	s6,s4,a1
   16e1c:	15878913          	addi	s2,a5,344
   16e20:	0009b403          	ld	s0,0(s3)
   16e24:	010ab703          	ld	a4,16(s5)
   16e28:	04041a63          	bnez	s0,16e7c <sigprocmask@plt+0x3e1c>
   16e2c:	00898993          	addi	s3,s3,8
   16e30:	ff2998e3          	bne	s3,s2,16e20 <sigprocmask@plt+0x3dc0>
   16e34:	00a71463          	bne	a4,a0,16e3c <sigprocmask@plt+0x3ddc>
   16e38:	f69ff0ef          	jal	ra,16da0 <sigprocmask@plt+0x3d40>
   16e3c:	00048463          	beqz	s1,16e44 <sigprocmask@plt+0x3de4>
   16e40:	00a4b023          	sd	a0,0(s1)
   16e44:	00053023          	sd	zero,0(a0)
   16e48:	008ab783          	ld	a5,8(s5)
   16e4c:	03013403          	ld	s0,48(sp)
   16e50:	03813083          	ld	ra,56(sp)
   16e54:	02813483          	ld	s1,40(sp)
   16e58:	02013903          	ld	s2,32(sp)
   16e5c:	01813983          	ld	s3,24(sp)
   16e60:	01013a03          	ld	s4,16(sp)
   16e64:	00813a83          	ld	s5,8(sp)
   16e68:	00013b03          	ld	s6,0(sp)
   16e6c:	00850513          	addi	a0,a0,8
   16e70:	40f50533          	sub	a0,a0,a5
   16e74:	04010113          	addi	sp,sp,64
   16e78:	891ff06f          	j	16708 <sigprocmask@plt+0x36a8>
   16e7c:	00842783          	lw	a5,8(s0)
   16e80:	00fb77b3          	and	a5,s6,a5
   16e84:	01479c63          	bne	a5,s4,16e9c <sigprocmask@plt+0x3e3c>
   16e88:	00a71463          	bne	a4,a0,16e90 <sigprocmask@plt+0x3e30>
   16e8c:	f15ff0ef          	jal	ra,16da0 <sigprocmask@plt+0x3d40>
   16e90:	01043783          	ld	a5,16(s0)
   16e94:	00850513          	addi	a0,a0,8
   16e98:	fef53c23          	sd	a5,-8(a0)
   16e9c:	00043403          	ld	s0,0(s0)
   16ea0:	f85ff06f          	j	16e24 <sigprocmask@plt+0x3dc4>
   16ea4:	fb010113          	addi	sp,sp,-80
   16ea8:	03213823          	sd	s2,48(sp)
   16eac:	00050913          	mv	s2,a0
   16eb0:	00058513          	mv	a0,a1
   16eb4:	00060593          	mv	a1,a2
   16eb8:	00810613          	addi	a2,sp,8
   16ebc:	04113423          	sd	ra,72(sp)
   16ec0:	04813023          	sd	s0,64(sp)
   16ec4:	03313423          	sd	s3,40(sp)
   16ec8:	02913c23          	sd	s1,56(sp)
   16ecc:	03413023          	sd	s4,32(sp)
   16ed0:	01513c23          	sd	s5,24(sp)
   16ed4:	01613823          	sd	s6,16(sp)
   16ed8:	f05ff0ef          	jal	ra,16ddc <sigprocmask@plt+0x3d7c>
   16edc:	00813583          	ld	a1,8(sp)
   16ee0:	000156b7          	lui	a3,0x15
   16ee4:	e5468693          	addi	a3,a3,-428 # 14e54 <sigprocmask@plt+0x1df4>
   16ee8:	40a585b3          	sub	a1,a1,a0
   16eec:	00800613          	li	a2,8
   16ef0:	4035d593          	srai	a1,a1,0x3
   16ef4:	00050413          	mv	s0,a0
   16ef8:	b09fb0ef          	jal	ra,12a00 <qsort@plt>
   16efc:	00094783          	lbu	a5,0(s2)
   16f00:	00090993          	mv	s3,s2
   16f04:	00078663          	beqz	a5,16f10 <sigprocmask@plt+0x3eb0>
   16f08:	000249b7          	lui	s3,0x24
   16f0c:	c0098993          	addi	s3,s3,-1024 # 23c00 <sigprocmask@plt+0x10ba0>
   16f10:	d681ba03          	ld	s4,-664(gp)
   16f14:	03d00a93          	li	s5,61
   16f18:	00024b37          	lui	s6,0x24
   16f1c:	054a0a13          	addi	s4,s4,84
   16f20:	00813783          	ld	a5,8(sp)
   16f24:	02f46863          	bltu	s0,a5,16f54 <sigprocmask@plt+0x3ef4>
   16f28:	04813083          	ld	ra,72(sp)
   16f2c:	04013403          	ld	s0,64(sp)
   16f30:	03813483          	ld	s1,56(sp)
   16f34:	03013903          	ld	s2,48(sp)
   16f38:	02813983          	ld	s3,40(sp)
   16f3c:	02013a03          	ld	s4,32(sp)
   16f40:	01813a83          	ld	s5,24(sp)
   16f44:	01013b03          	ld	s6,16(sp)
   16f48:	00000513          	li	a0,0
   16f4c:	05010113          	addi	sp,sp,80
   16f50:	00008067          	ret
   16f54:	00043503          	ld	a0,0(s0)
   16f58:	54d080ef          	jal	ra,1fca4 <sigprocmask@plt+0xcc44>
   16f5c:	00054783          	lbu	a5,0(a0)
   16f60:	00050493          	mv	s1,a0
   16f64:	03578463          	beq	a5,s5,16f8c <sigprocmask@plt+0x3f2c>
   16f68:	000a0793          	mv	a5,s4
   16f6c:	00043703          	ld	a4,0(s0)
   16f70:	00098613          	mv	a2,s3
   16f74:	00090593          	mv	a1,s2
   16f78:	40e486bb          	subw	a3,s1,a4
   16f7c:	ca0b0513          	addi	a0,s6,-864 # 23ca0 <sigprocmask@plt+0x10c40>
   16f80:	80cff0ef          	jal	ra,15f8c <sigprocmask@plt+0x2f2c>
   16f84:	00840413          	addi	s0,s0,8
   16f88:	f99ff06f          	j	16f20 <sigprocmask@plt+0x3ec0>
   16f8c:	00150493          	addi	s1,a0,1
   16f90:	00048513          	mv	a0,s1
   16f94:	b7dff0ef          	jal	ra,16b10 <sigprocmask@plt+0x3ab0>
   16f98:	00050793          	mv	a5,a0
   16f9c:	fd1ff06f          	j	16f6c <sigprocmask@plt+0x3f0c>
   16fa0:	d601b783          	ld	a5,-672(gp)
   16fa4:	ff010113          	addi	sp,sp,-16
   16fa8:	00813023          	sd	s0,0(sp)
   16fac:	0107b783          	ld	a5,16(a5)
   16fb0:	00113423          	sd	ra,8(sp)
   16fb4:	00050413          	mv	s0,a0
   16fb8:	00058513          	mv	a0,a1
   16fbc:	00b79463          	bne	a5,a1,16fc4 <sigprocmask@plt+0x3f64>
   16fc0:	de1ff0ef          	jal	ra,16da0 <sigprocmask@plt+0x3d40>
   16fc4:	00850023          	sb	s0,0(a0)
   16fc8:	00813083          	ld	ra,8(sp)
   16fcc:	00013403          	ld	s0,0(sp)
   16fd0:	00150513          	addi	a0,a0,1
   16fd4:	01010113          	addi	sp,sp,16
   16fd8:	00008067          	ret
   16fdc:	f7010113          	addi	sp,sp,-144
   16fe0:	06913c23          	sd	s1,120(sp)
   16fe4:	04800613          	li	a2,72
   16fe8:	00000593          	li	a1,0
   16fec:	01810513          	addi	a0,sp,24
   16ff0:	000254b7          	lui	s1,0x25
   16ff4:	08813023          	sd	s0,128(sp)
   16ff8:	07213823          	sd	s2,112(sp)
   16ffc:	07313423          	sd	s3,104(sp)
   17000:	08113423          	sd	ra,136(sp)
   17004:	00024937          	lui	s2,0x24
   17008:	d59fb0ef          	jal	ra,12d60 <memset@plt>
   1700c:	00700993          	li	s3,7
   17010:	ab448493          	addi	s1,s1,-1356 # 24ab4 <sigprocmask@plt+0x11a54>
   17014:	cb090513          	addi	a0,s2,-848 # 23cb0 <sigprocmask@plt+0x10c50>
   17018:	a94ff0ef          	jal	ra,162ac <sigprocmask@plt+0x324c>
   1701c:	08051063          	bnez	a0,1709c <sigprocmask@plt+0x403c>
   17020:	cb81b783          	ld	a5,-840(gp)
   17024:	00024537          	lui	a0,0x24
   17028:	cc050513          	addi	a0,a0,-832 # 23cc0 <sigprocmask@plt+0x10c60>
   1702c:	02f13423          	sd	a5,40(sp)
   17030:	0001b7b7          	lui	a5,0x1b
   17034:	68878793          	addi	a5,a5,1672 # 1b688 <sigprocmask@plt+0x8628>
   17038:	02f13023          	sd	a5,32(sp)
   1703c:	c69fe0ef          	jal	ra,15ca4 <sigprocmask@plt+0x2c44>
   17040:	d681b403          	ld	s0,-664(gp)
   17044:	ca01b783          	ld	a5,-864(gp)
   17048:	02a13823          	sd	a0,48(sp)
   1704c:	00100493          	li	s1,1
   17050:	00078993          	mv	s3,a5
   17054:	00400913          	li	s2,4
   17058:	04042783          	lw	a5,64(s0)
   1705c:	0017879b          	addiw	a5,a5,1
   17060:	04f42023          	sw	a5,64(s0)
   17064:	01810513          	addi	a0,sp,24
   17068:	39c080ef          	jal	ra,1f404 <sigprocmask@plt+0xc3a4>
   1706c:	00a13423          	sd	a0,8(sp)
   17070:	899fe0ef          	jal	ra,15908 <sigprocmask@plt+0x28a8>
   17074:	00813503          	ld	a0,8(sp)
   17078:	00951c63          	bne	a0,s1,17090 <sigprocmask@plt+0x4030>
   1707c:	0009a783          	lw	a5,0(s3)
   17080:	01279863          	bne	a5,s2,17090 <sigprocmask@plt+0x4030>
   17084:	04c42783          	lw	a5,76(s0)
   17088:	0007879b          	sext.w	a5,a5
   1708c:	fc0786e3          	beqz	a5,17058 <sigprocmask@plt+0x3ff8>
   17090:	00100793          	li	a5,1
   17094:	06a7fa63          	bgeu	a5,a0,17108 <sigprocmask@plt+0x40a8>
   17098:	9ccff0ef          	jal	ra,16264 <sigprocmask@plt+0x3204>
   1709c:	f925051b          	addiw	a0,a0,-110
   170a0:	0005079b          	sext.w	a5,a0
   170a4:	f6f9e8e3          	bltu	s3,a5,17014 <sigprocmask@plt+0x3fb4>
   170a8:	02051513          	slli	a0,a0,0x20
   170ac:	01e55513          	srli	a0,a0,0x1e
   170b0:	00950533          	add	a0,a0,s1
   170b4:	00052783          	lw	a5,0(a0)
   170b8:	00078067          	jr	a5
   170bc:	d381b783          	ld	a5,-712(gp)
   170c0:	04f13023          	sd	a5,64(sp)
   170c4:	f51ff06f          	j	17014 <sigprocmask@plt+0x3fb4>
   170c8:	d381b783          	ld	a5,-712(gp)
   170cc:	02f13c23          	sd	a5,56(sp)
   170d0:	f45ff06f          	j	17014 <sigprocmask@plt+0x3fb4>
   170d4:	01812783          	lw	a5,24(sp)
   170d8:	0017e793          	ori	a5,a5,1
   170dc:	00f12c23          	sw	a5,24(sp)
   170e0:	f35ff06f          	j	17014 <sigprocmask@plt+0x3fb4>
   170e4:	d381b783          	ld	a5,-712(gp)
   170e8:	04f13423          	sd	a5,72(sp)
   170ec:	f29ff06f          	j	17014 <sigprocmask@plt+0x3fb4>
   170f0:	01812783          	lw	a5,24(sp)
   170f4:	0027e793          	ori	a5,a5,2
   170f8:	fe5ff06f          	j	170dc <sigprocmask@plt+0x407c>
   170fc:	d381b783          	ld	a5,-712(gp)
   17100:	04f13823          	sd	a5,80(sp)
   17104:	f11ff06f          	j	17014 <sigprocmask@plt+0x3fb4>
   17108:	08813083          	ld	ra,136(sp)
   1710c:	08013403          	ld	s0,128(sp)
   17110:	07813483          	ld	s1,120(sp)
   17114:	07013903          	ld	s2,112(sp)
   17118:	06813983          	ld	s3,104(sp)
   1711c:	0005051b          	sext.w	a0,a0
   17120:	09010113          	addi	sp,sp,144
   17124:	00008067          	ret
   17128:	0085b503          	ld	a0,8(a1)
   1712c:	ff010113          	addi	sp,sp,-16
   17130:	00813023          	sd	s0,0(sp)
   17134:	00113423          	sd	ra,8(sp)
   17138:	00058413          	mv	s0,a1
   1713c:	00050e63          	beqz	a0,17158 <sigprocmask@plt+0x40f8>
   17140:	ac0ff0ef          	jal	ra,16400 <sigprocmask@plt+0x33a0>
   17144:	00a04c63          	bgtz	a0,1715c <sigprocmask@plt+0x40fc>
   17148:	00843583          	ld	a1,8(s0)
   1714c:	00024537          	lui	a0,0x24
   17150:	c4050513          	addi	a0,a0,-960 # 23c40 <sigprocmask@plt+0x10be0>
   17154:	910ff0ef          	jal	ra,16264 <sigprocmask@plt+0x3204>
   17158:	00100513          	li	a0,1
   1715c:	da01a783          	lw	a5,-608(gp)
   17160:	0007871b          	sext.w	a4,a5
   17164:	00e55463          	bge	a0,a4,1716c <sigprocmask@plt+0x410c>
   17168:	00050793          	mv	a5,a0
   1716c:	0007879b          	sext.w	a5,a5
   17170:	02f05263          	blez	a5,17194 <sigprocmask@plt+0x4134>
   17174:	00043703          	ld	a4,0(s0)
   17178:	06300693          	li	a3,99
   1717c:	00074603          	lbu	a2,0(a4)
   17180:	00200713          	li	a4,2
   17184:	00d60463          	beq	a2,a3,1718c <sigprocmask@plt+0x412c>
   17188:	00100713          	li	a4,1
   1718c:	d8e1a823          	sw	a4,-624(gp)
   17190:	daf1a823          	sw	a5,-592(gp)
   17194:	00813083          	ld	ra,8(sp)
   17198:	00013403          	ld	s0,0(sp)
   1719c:	00000513          	li	a0,0
   171a0:	01010113          	addi	sp,sp,16
   171a4:	00008067          	ret
   171a8:	c781b703          	ld	a4,-904(gp)
   171ac:	d681b783          	ld	a5,-664(gp)
   171b0:	00872703          	lw	a4,8(a4)
   171b4:	ff010113          	addi	sp,sp,-16
   171b8:	00113423          	sd	ra,8(sp)
   171bc:	00050593          	mv	a1,a0
   171c0:	00024537          	lui	a0,0x24
   171c4:	00e7aa23          	sw	a4,20(a5)
   171c8:	cc850513          	addi	a0,a0,-824 # 23cc8 <sigprocmask@plt+0x10c68>
   171cc:	898ff0ef          	jal	ra,16264 <sigprocmask@plt+0x3204>
   171d0:	fa010113          	addi	sp,sp,-96
   171d4:	02b13423          	sd	a1,40(sp)
   171d8:	02810593          	addi	a1,sp,40
   171dc:	00113c23          	sd	ra,24(sp)
   171e0:	02c13823          	sd	a2,48(sp)
   171e4:	02d13c23          	sd	a3,56(sp)
   171e8:	04e13023          	sd	a4,64(sp)
   171ec:	04f13423          	sd	a5,72(sp)
   171f0:	05013823          	sd	a6,80(sp)
   171f4:	05113c23          	sd	a7,88(sp)
   171f8:	00b13423          	sd	a1,8(sp)
   171fc:	fa1fe0ef          	jal	ra,1619c <sigprocmask@plt+0x313c>
   17200:	01813083          	ld	ra,24(sp)
   17204:	06010113          	addi	sp,sp,96
   17208:	00008067          	ret
   1720c:	fa010113          	addi	sp,sp,-96
   17210:	05213023          	sd	s2,64(sp)
   17214:	03413823          	sd	s4,48(sp)
   17218:	d681ba03          	ld	s4,-664(gp)
   1721c:	04913423          	sd	s1,72(sp)
   17220:	03313c23          	sd	s3,56(sp)
   17224:	054a0513          	addi	a0,s4,84
   17228:	04113c23          	sd	ra,88(sp)
   1722c:	04813823          	sd	s0,80(sp)
   17230:	03513423          	sd	s5,40(sp)
   17234:	03613023          	sd	s6,32(sp)
   17238:	01713c23          	sd	s7,24(sp)
   1723c:	01813823          	sd	s8,16(sp)
   17240:	86cff0ef          	jal	ra,162ac <sigprocmask@plt+0x324c>
   17244:	cb81b483          	ld	s1,-840(gp)
   17248:	0004b983          	ld	s3,0(s1)
   1724c:	08099463          	bnez	s3,172d4 <sigprocmask@plt+0x4274>
   17250:	00000413          	li	s0,0
   17254:	00024937          	lui	s2,0x24
   17258:	04100493          	li	s1,65
   1725c:	2f0a3783          	ld	a5,752(s4)
   17260:	00341713          	slli	a4,s0,0x3
   17264:	0004099b          	sext.w	s3,s0
   17268:	00e787b3          	add	a5,a5,a4
   1726c:	0007b503          	ld	a0,0(a5)
   17270:	02050263          	beqz	a0,17294 <sigprocmask@plt+0x4234>
   17274:	89dff0ef          	jal	ra,16b10 <sigprocmask@plt+0x3ab0>
   17278:	00a13423          	sd	a0,8(sp)
   1727c:	00098513          	mv	a0,s3
   17280:	5350b0ef          	jal	ra,22fb4 <sigprocmask@plt+0xff54>
   17284:	00813583          	ld	a1,8(sp)
   17288:	00050613          	mv	a2,a0
   1728c:	ce090513          	addi	a0,s2,-800 # 23ce0 <sigprocmask@plt+0x10c80>
   17290:	cfdfe0ef          	jal	ra,15f8c <sigprocmask@plt+0x2f2c>
   17294:	00140413          	addi	s0,s0,1
   17298:	fc9412e3          	bne	s0,s1,1725c <sigprocmask@plt+0x41fc>
   1729c:	00000a93          	li	s5,0
   172a0:	05813083          	ld	ra,88(sp)
   172a4:	05013403          	ld	s0,80(sp)
   172a8:	04813483          	ld	s1,72(sp)
   172ac:	04013903          	ld	s2,64(sp)
   172b0:	03813983          	ld	s3,56(sp)
   172b4:	03013a03          	ld	s4,48(sp)
   172b8:	02013b03          	ld	s6,32(sp)
   172bc:	01813b83          	ld	s7,24(sp)
   172c0:	01013c03          	ld	s8,16(sp)
   172c4:	000a8513          	mv	a0,s5
   172c8:	02813a83          	ld	s5,40(sp)
   172cc:	06010113          	addi	sp,sp,96
   172d0:	00008067          	ret
   172d4:	0084b403          	ld	s0,8(s1)
   172d8:	00040e63          	beqz	s0,172f4 <sigprocmask@plt+0x4294>
   172dc:	00098513          	mv	a0,s3
   172e0:	abdfd0ef          	jal	ra,14d9c <sigprocmask@plt+0x1d3c>
   172e4:	00000413          	li	s0,0
   172e8:	00051663          	bnez	a0,172f4 <sigprocmask@plt+0x4294>
   172ec:	00848493          	addi	s1,s1,8
   172f0:	00098413          	mv	s0,s3
   172f4:	d681b983          	ld	s3,-664(gp)
   172f8:	00000a93          	li	s5,0
   172fc:	02d00b13          	li	s6,45
   17300:	00100b93          	li	s7,1
   17304:	00024c37          	lui	s8,0x24
   17308:	0004b503          	ld	a0,0(s1)
   1730c:	f8050ae3          	beqz	a0,172a0 <sigprocmask@plt+0x4240>
   17310:	2fd0b0ef          	jal	ra,22e0c <sigprocmask@plt+0xfdac>
   17314:	00050913          	mv	s2,a0
   17318:	00055e63          	bgez	a0,17334 <sigprocmask@plt+0x42d4>
   1731c:	0004b583          	ld	a1,0(s1)
   17320:	cf0c0513          	addi	a0,s8,-784 # 23cf0 <sigprocmask@plt+0x10c90>
   17324:	00100a93          	li	s5,1
   17328:	ea9ff0ef          	jal	ra,171d0 <sigprocmask@plt+0x4170>
   1732c:	00848493          	addi	s1,s1,8
   17330:	fd9ff06f          	j	17308 <sigprocmask@plt+0x42a8>
   17334:	0409a783          	lw	a5,64(s3)
   17338:	0017879b          	addiw	a5,a5,1
   1733c:	04f9a023          	sw	a5,64(s3)
   17340:	02040663          	beqz	s0,1736c <sigprocmask@plt+0x430c>
   17344:	00044783          	lbu	a5,0(s0)
   17348:	01679a63          	bne	a5,s6,1735c <sigprocmask@plt+0x42fc>
   1734c:	00144783          	lbu	a5,1(s0)
   17350:	04078263          	beqz	a5,17394 <sigprocmask@plt+0x4334>
   17354:	0f798223          	sb	s7,228(s3)
   17358:	0080006f          	j	17360 <sigprocmask@plt+0x4300>
   1735c:	fe079ce3          	bnez	a5,17354 <sigprocmask@plt+0x42f4>
   17360:	00040513          	mv	a0,s0
   17364:	a40fd0ef          	jal	ra,145a4 <sigprocmask@plt+0x1544>
   17368:	00050413          	mv	s0,a0
   1736c:	00391a13          	slli	s4,s2,0x3
   17370:	01498a33          	add	s4,s3,s4
   17374:	0e8a3503          	ld	a0,232(s4)
   17378:	cd9fb0ef          	jal	ra,13050 <free@plt>
   1737c:	0e8a3423          	sd	s0,232(s4)
   17380:	00090663          	beqz	s2,1738c <sigprocmask@plt+0x432c>
   17384:	00090513          	mv	a0,s2
   17388:	ad4fe0ef          	jal	ra,1565c <sigprocmask@plt+0x25fc>
   1738c:	d7cfe0ef          	jal	ra,15908 <sigprocmask@plt+0x28a8>
   17390:	f9dff06f          	j	1732c <sigprocmask@plt+0x42cc>
   17394:	00000413          	li	s0,0
   17398:	fd5ff06f          	j	1736c <sigprocmask@plt+0x430c>
   1739c:	f8010113          	addi	sp,sp,-128
   173a0:	07213023          	sd	s2,96(sp)
   173a4:	06113c23          	sd	ra,120(sp)
   173a8:	06813823          	sd	s0,112(sp)
   173ac:	06913423          	sd	s1,104(sp)
   173b0:	05313c23          	sd	s3,88(sp)
   173b4:	05413823          	sd	s4,80(sp)
   173b8:	05513423          	sd	s5,72(sp)
   173bc:	05613023          	sd	s6,64(sp)
   173c0:	03713c23          	sd	s7,56(sp)
   173c4:	03813823          	sd	s8,48(sp)
   173c8:	03913423          	sd	s9,40(sp)
   173cc:	03a13023          	sd	s10,32(sp)
   173d0:	01b13c23          	sd	s11,24(sp)
   173d4:	00050913          	mv	s2,a0
   173d8:	00050663          	beqz	a0,173e4 <sigprocmask@plt+0x4384>
   173dc:	d681b783          	ld	a5,-664(gp)
   173e0:	0007bc23          	sd	zero,24(a5)
   173e4:	d681b783          	ld	a5,-664(gp)
   173e8:	00f13023          	sd	a5,0(sp)
   173ec:	cb81b783          	ld	a5,-840(gp)
   173f0:	cb818a13          	addi	s4,gp,-840
   173f4:	0007b483          	ld	s1,0(a5)
   173f8:	00048a63          	beqz	s1,1740c <sigprocmask@plt+0x43ac>
   173fc:	0004c703          	lbu	a4,0(s1)
   17400:	fd57069b          	addiw	a3,a4,-43
   17404:	0fd6f693          	andi	a3,a3,253
   17408:	04068263          	beqz	a3,1744c <sigprocmask@plt+0x43ec>
   1740c:	00000513          	li	a0,0
   17410:	07813083          	ld	ra,120(sp)
   17414:	07013403          	ld	s0,112(sp)
   17418:	06813483          	ld	s1,104(sp)
   1741c:	06013903          	ld	s2,96(sp)
   17420:	05813983          	ld	s3,88(sp)
   17424:	05013a03          	ld	s4,80(sp)
   17428:	04813a83          	ld	s5,72(sp)
   1742c:	04013b03          	ld	s6,64(sp)
   17430:	03813b83          	ld	s7,56(sp)
   17434:	03013c03          	ld	s8,48(sp)
   17438:	02813c83          	ld	s9,40(sp)
   1743c:	02013d03          	ld	s10,32(sp)
   17440:	01813d83          	ld	s11,24(sp)
   17444:	08010113          	addi	sp,sp,128
   17448:	00008067          	ret
   1744c:	00878513          	addi	a0,a5,8
   17450:	00aa3023          	sd	a0,0(s4)
   17454:	02d00693          	li	a3,45
   17458:	20d71c63          	bne	a4,a3,17670 <sigprocmask@plt+0x4610>
   1745c:	0014c683          	lbu	a3,1(s1)
   17460:	22068a63          	beqz	a3,17694 <sigprocmask@plt+0x4634>
   17464:	00e69663          	bne	a3,a4,17470 <sigprocmask@plt+0x4410>
   17468:	0024c703          	lbu	a4,2(s1)
   1746c:	20070a63          	beqz	a4,17680 <sigprocmask@plt+0x4620>
   17470:	00100993          	li	s3,1
   17474:	2000006f          	j	17674 <sigprocmask@plt+0x4614>
   17478:	00148493          	addi	s1,s1,1
   1747c:	08090663          	beqz	s2,17508 <sigprocmask@plt+0x44a8>
   17480:	06300793          	li	a5,99
   17484:	00f61e63          	bne	a2,a5,174a0 <sigprocmask@plt+0x4440>
   17488:	00100793          	li	a5,1
   1748c:	009bbc23          	sd	s1,24(s7)
   17490:	04fb8e23          	sb	a5,92(s7)
   17494:	0004c603          	lbu	a2,0(s1)
   17498:	fe0610e3          	bnez	a2,17478 <sigprocmask@plt+0x4418>
   1749c:	f51ff06f          	j	173ec <sigprocmask@plt+0x438c>
   174a0:	07300793          	li	a5,115
   174a4:	00f61863          	bne	a2,a5,174b4 <sigprocmask@plt+0x4454>
   174a8:	00100793          	li	a5,1
   174ac:	04fb8da3          	sb	a5,91(s7)
   174b0:	fe5ff06f          	j	17494 <sigprocmask@plt+0x4434>
   174b4:	06900793          	li	a5,105
   174b8:	00f61863          	bne	a2,a5,174c8 <sigprocmask@plt+0x4468>
   174bc:	00100793          	li	a5,1
   174c0:	04fb8c23          	sb	a5,88(s7)
   174c4:	fd1ff06f          	j	17494 <sigprocmask@plt+0x4434>
   174c8:	06c00793          	li	a5,108
   174cc:	00f61863          	bne	a2,a5,174dc <sigprocmask@plt+0x447c>
   174d0:	00100793          	li	a5,1
   174d4:	00f92023          	sw	a5,0(s2)
   174d8:	fbdff06f          	j	17494 <sigprocmask@plt+0x4434>
   174dc:	02098663          	beqz	s3,17508 <sigprocmask@plt+0x44a8>
   174e0:	02d00793          	li	a5,45
   174e4:	02f61263          	bne	a2,a5,17508 <sigprocmask@plt+0x44a8>
   174e8:	000245b7          	lui	a1,0x24
   174ec:	d2858593          	addi	a1,a1,-728 # 23d28 <sigprocmask@plt+0x10cc8>
   174f0:	00048513          	mv	a0,s1
   174f4:	8fdfb0ef          	jal	ra,12df0 <strcmp@plt>
   174f8:	ee051ae3          	bnez	a0,173ec <sigprocmask@plt+0x438c>
   174fc:	00100793          	li	a5,1
   17500:	00f92023          	sw	a5,0(s2)
   17504:	ee9ff06f          	j	173ec <sigprocmask@plt+0x438c>
   17508:	06f00793          	li	a5,111
   1750c:	00024437          	lui	s0,0x24
   17510:	10f61663          	bne	a2,a5,1761c <sigprocmask@plt+0x45bc>
   17514:	000a3783          	ld	a5,0(s4)
   17518:	66040413          	addi	s0,s0,1632 # 24660 <sigprocmask@plt+0x11600>
   1751c:	0007b603          	ld	a2,0(a5)
   17520:	06060c63          	beqz	a2,17598 <sigprocmask@plt+0x4538>
   17524:	00000c13          	li	s8,0
   17528:	00f00c93          	li	s9,15
   1752c:	00043583          	ld	a1,0(s0)
   17530:	00060513          	mv	a0,a2
   17534:	00c13423          	sd	a2,8(sp)
   17538:	00158593          	addi	a1,a1,1
   1753c:	8b5fb0ef          	jal	ra,12df0 <strcmp@plt>
   17540:	00813603          	ld	a2,8(sp)
   17544:	02051463          	bnez	a0,1756c <sigprocmask@plt+0x450c>
   17548:	00013783          	ld	a5,0(sp)
   1754c:	01878c33          	add	s8,a5,s8
   17550:	053c0aa3          	sb	s3,85(s8)
   17554:	000a3783          	ld	a5,0(s4)
   17558:	0007b703          	ld	a4,0(a5)
   1755c:	f2070ce3          	beqz	a4,17494 <sigprocmask@plt+0x4434>
   17560:	00878793          	addi	a5,a5,8
   17564:	00fa3023          	sd	a5,0(s4)
   17568:	f2dff06f          	j	17494 <sigprocmask@plt+0x4434>
   1756c:	001c0c1b          	addiw	s8,s8,1
   17570:	00840413          	addi	s0,s0,8
   17574:	fb9c1ce3          	bne	s8,s9,1752c <sigprocmask@plt+0x44cc>
   17578:	02d00593          	li	a1,45
   1757c:	00099463          	bnez	s3,17584 <sigprocmask@plt+0x4524>
   17580:	02b00593          	li	a1,43
   17584:	00024537          	lui	a0,0x24
   17588:	d3050513          	addi	a0,a0,-720 # 23d30 <sigprocmask@plt+0x10cd0>
   1758c:	c45ff0ef          	jal	ra,171d0 <sigprocmask@plt+0x4170>
   17590:	00100513          	li	a0,1
   17594:	e7dff06f          	j	17410 <sigprocmask@plt+0x43b0>
   17598:	00024c37          	lui	s8,0x24
   1759c:	00024cb7          	lui	s9,0x24
   175a0:	00000a93          	li	s5,0
   175a4:	00024d37          	lui	s10,0x24
   175a8:	00024db7          	lui	s11,0x24
   175ac:	d18c0c13          	addi	s8,s8,-744 # 23d18 <sigprocmask@plt+0x10cb8>
   175b0:	d20c8c93          	addi	s9,s9,-736 # 23d20 <sigprocmask@plt+0x10cc0>
   175b4:	00043783          	ld	a5,0(s0)
   175b8:	0017c683          	lbu	a3,1(a5)
   175bc:	02068863          	beqz	a3,175ec <sigprocmask@plt+0x458c>
   175c0:	00013703          	ld	a4,0(sp)
   175c4:	00178793          	addi	a5,a5,1
   175c8:	015706b3          	add	a3,a4,s5
   175cc:	0556c683          	lbu	a3,85(a3)
   175d0:	02098863          	beqz	s3,17600 <sigprocmask@plt+0x45a0>
   175d4:	000c0613          	mv	a2,s8
   175d8:	00069463          	bnez	a3,175e0 <sigprocmask@plt+0x4580>
   175dc:	000c8613          	mv	a2,s9
   175e0:	00078593          	mv	a1,a5
   175e4:	d48d8513          	addi	a0,s11,-696 # 23d48 <sigprocmask@plt+0x10ce8>
   175e8:	9a5fe0ef          	jal	ra,15f8c <sigprocmask@plt+0x2f2c>
   175ec:	001a8a9b          	addiw	s5,s5,1
   175f0:	00f00793          	li	a5,15
   175f4:	00840413          	addi	s0,s0,8
   175f8:	fafa9ee3          	bne	s5,a5,175b4 <sigprocmask@plt+0x4554>
   175fc:	f59ff06f          	j	17554 <sigprocmask@plt+0x44f4>
   17600:	02d00593          	li	a1,45
   17604:	00069463          	bnez	a3,1760c <sigprocmask@plt+0x45ac>
   17608:	02b00593          	li	a1,43
   1760c:	00078613          	mv	a2,a5
   17610:	d58d0513          	addi	a0,s10,-680 # 23d58 <sigprocmask@plt+0x10cf8>
   17614:	979fe0ef          	jal	ra,15f8c <sigprocmask@plt+0x2f2c>
   17618:	fd5ff06f          	j	175ec <sigprocmask@plt+0x458c>
   1761c:	66040413          	addi	s0,s0,1632
   17620:	00000793          	li	a5,0
   17624:	00f00693          	li	a3,15
   17628:	00043703          	ld	a4,0(s0)
   1762c:	00074583          	lbu	a1,0(a4)
   17630:	00c59e63          	bne	a1,a2,1764c <sigprocmask@plt+0x45ec>
   17634:	00174703          	lbu	a4,1(a4)
   17638:	00070a63          	beqz	a4,1764c <sigprocmask@plt+0x45ec>
   1763c:	00013703          	ld	a4,0(sp)
   17640:	00f707b3          	add	a5,a4,a5
   17644:	05378aa3          	sb	s3,85(a5)
   17648:	e4dff06f          	j	17494 <sigprocmask@plt+0x4434>
   1764c:	0017879b          	addiw	a5,a5,1
   17650:	00840413          	addi	s0,s0,8
   17654:	fcd79ae3          	bne	a5,a3,17628 <sigprocmask@plt+0x45c8>
   17658:	02d00593          	li	a1,45
   1765c:	00099463          	bnez	s3,17664 <sigprocmask@plt+0x4604>
   17660:	02b00593          	li	a1,43
   17664:	00024537          	lui	a0,0x24
   17668:	d6850513          	addi	a0,a0,-664 # 23d68 <sigprocmask@plt+0x10d08>
   1766c:	bf9fe0ef          	jal	ra,16264 <sigprocmask@plt+0x3204>
   17670:	00000993          	li	s3,0
   17674:	d681bb83          	ld	s7,-664(gp)
   17678:	00148493          	addi	s1,s1,1
   1767c:	e19ff06f          	j	17494 <sigprocmask@plt+0x4434>
   17680:	d80916e3          	bnez	s2,1740c <sigprocmask@plt+0x43ac>
   17684:	0087b783          	ld	a5,8(a5)
   17688:	d80792e3          	bnez	a5,1740c <sigprocmask@plt+0x43ac>
   1768c:	dddfd0ef          	jal	ra,15468 <sigprocmask@plt+0x2408>
   17690:	d7dff06f          	j	1740c <sigprocmask@plt+0x43ac>
   17694:	d6091ce3          	bnez	s2,1740c <sigprocmask@plt+0x43ac>
   17698:	d681b783          	ld	a5,-664(gp)
   1769c:	04078f23          	sb	zero,94(a5)
   176a0:	04078ea3          	sb	zero,93(a5)
   176a4:	d69ff06f          	j	1740c <sigprocmask@plt+0x43ac>
   176a8:	d681b503          	ld	a0,-664(gp)
   176ac:	0085b783          	ld	a5,8(a1)
   176b0:	00079a63          	bnez	a5,176c4 <sigprocmask@plt+0x4664>
   176b4:	02000613          	li	a2,32
   176b8:	00000593          	li	a1,0
   176bc:	05450513          	addi	a0,a0,84
   176c0:	fe4ff06f          	j	16ea4 <sigprocmask@plt+0x3e44>
   176c4:	04052783          	lw	a5,64(a0)
   176c8:	ff010113          	addi	sp,sp,-16
   176cc:	00113423          	sd	ra,8(sp)
   176d0:	00813023          	sd	s0,0(sp)
   176d4:	0017879b          	addiw	a5,a5,1
   176d8:	04f52023          	sw	a5,64(a0)
   176dc:	00000513          	li	a0,0
   176e0:	cbdff0ef          	jal	ra,1739c <sigprocmask@plt+0x433c>
   176e4:	00050413          	mv	s0,a0
   176e8:	00051c63          	bnez	a0,17700 <sigprocmask@plt+0x46a0>
   176ec:	8f9fe0ef          	jal	ra,15fe4 <sigprocmask@plt+0x2f84>
   176f0:	cb81b503          	ld	a0,-840(gp)
   176f4:	00053783          	ld	a5,0(a0)
   176f8:	00078463          	beqz	a5,17700 <sigprocmask@plt+0x46a0>
   176fc:	d6dfd0ef          	jal	ra,15468 <sigprocmask@plt+0x2408>
   17700:	a08fe0ef          	jal	ra,15908 <sigprocmask@plt+0x28a8>
   17704:	00813083          	ld	ra,8(sp)
   17708:	00040513          	mv	a0,s0
   1770c:	00013403          	ld	s0,0(sp)
   17710:	01010113          	addi	sp,sp,16
   17714:	00008067          	ret
   17718:	fc010113          	addi	sp,sp,-64
   1771c:	03213023          	sd	s2,32(sp)
   17720:	c781b783          	ld	a5,-904(gp)
   17724:	02113c23          	sd	ra,56(sp)
   17728:	02813823          	sd	s0,48(sp)
   1772c:	0687a683          	lw	a3,104(a5)
   17730:	02913423          	sd	s1,40(sp)
   17734:	01313c23          	sd	s3,24(sp)
   17738:	01413823          	sd	s4,16(sp)
   1773c:	01513423          	sd	s5,8(sp)
   17740:	04068063          	beqz	a3,17780 <sigprocmask@plt+0x4720>
   17744:	fff6871b          	addiw	a4,a3,-1
   17748:	06e7a423          	sw	a4,104(a5)
   1774c:	01870713          	addi	a4,a4,24
   17750:	00271713          	slli	a4,a4,0x2
   17754:	00e787b3          	add	a5,a5,a4
   17758:	0007a503          	lw	a0,0(a5)
   1775c:	03813083          	ld	ra,56(sp)
   17760:	03013403          	ld	s0,48(sp)
   17764:	02813483          	ld	s1,40(sp)
   17768:	02013903          	ld	s2,32(sp)
   1776c:	01813983          	ld	s3,24(sp)
   17770:	01013a03          	ld	s4,16(sp)
   17774:	00813a83          	ld	s5,8(sp)
   17778:	04010113          	addi	sp,sp,64
   1777c:	00008067          	ret
   17780:	0107a703          	lw	a4,16(a5)
   17784:	c7818913          	addi	s2,gp,-904
   17788:	fff7069b          	addiw	a3,a4,-1
   1778c:	00d7a823          	sw	a3,16(a5)
   17790:	0206c463          	bltz	a3,177b8 <sigprocmask@plt+0x4758>
   17794:	0187b703          	ld	a4,24(a5)
   17798:	00170693          	addi	a3,a4,1
   1779c:	00d7bc23          	sd	a3,24(a5)
   177a0:	00074503          	lbu	a0,0(a4)
   177a4:	00093783          	ld	a5,0(s2)
   177a8:	0607a703          	lw	a4,96(a5)
   177ac:	06a7a023          	sw	a0,96(a5)
   177b0:	06e7a223          	sw	a4,100(a5)
   177b4:	fa9ff06f          	j	1775c <sigprocmask@plt+0x46fc>
   177b8:	0287b703          	ld	a4,40(a5)
   177bc:	00070863          	beqz	a4,177cc <sigprocmask@plt+0x476c>
   177c0:	b2cfe0ef          	jal	ra,15aec <sigprocmask@plt+0x2a8c>
   177c4:	f55ff0ef          	jal	ra,17718 <sigprocmask@plt+0x46b8>
   177c8:	fddff06f          	j	177a4 <sigprocmask@plt+0x4744>
   177cc:	fa600713          	li	a4,-90
   177d0:	00e6c663          	blt	a3,a4,177dc <sigprocmask@plt+0x477c>
   177d4:	0207b703          	ld	a4,32(a5)
   177d8:	00071c63          	bnez	a4,177f0 <sigprocmask@plt+0x4790>
   177dc:	0187b703          	ld	a4,24(a5)
   177e0:	10000513          	li	a0,256
   177e4:	00170713          	addi	a4,a4,1
   177e8:	00e7bc23          	sd	a4,24(a5)
   177ec:	fb9ff06f          	j	177a4 <sigprocmask@plt+0x4744>
   177f0:	0147a403          	lw	s0,20(a5)
   177f4:	0a804063          	bgtz	s0,17894 <sigprocmask@plt+0x4834>
   177f8:	accfe0ef          	jal	ra,15ac4 <sigprocmask@plt+0x2a64>
   177fc:	00093783          	ld	a5,0(s2)
   17800:	d681b983          	ld	s3,-664(gp)
   17804:	0207b483          	ld	s1,32(a5)
   17808:	00c7a503          	lw	a0,12(a5)
   1780c:	0097bc23          	sd	s1,24(a5)
   17810:	0589c783          	lbu	a5,88(s3)
   17814:	00078463          	beqz	a5,1781c <sigprocmask@plt+0x47bc>
   17818:	00050e63          	beqz	a0,17834 <sigprocmask@plt+0x47d4>
   1781c:	3ff00613          	li	a2,1023
   17820:	00048593          	mv	a1,s1
   17824:	4280b0ef          	jal	ra,22c4c <sigprocmask@plt+0xfbec>
   17828:	0005041b          	sext.w	s0,a0
   1782c:	06804463          	bgtz	s0,17894 <sigprocmask@plt+0x4834>
   17830:	0b80006f          	j	178e8 <sigprocmask@plt+0x4888>
   17834:	d281b503          	ld	a0,-728(gp)
   17838:	d701b783          	ld	a5,-656(gp)
   1783c:	40000693          	li	a3,1024
   17840:	00048613          	mv	a2,s1
   17844:	1887b783          	ld	a5,392(a5)
   17848:	00578793          	addi	a5,a5,5
   1784c:	00f53423          	sd	a5,8(a0)
   17850:	cc81b583          	ld	a1,-824(gp)
   17854:	3680a0ef          	jal	ra,21bbc <sigprocmask@plt+0xeb5c>
   17858:	00050413          	mv	s0,a0
   1785c:	08051e63          	bnez	a0,178f8 <sigprocmask@plt+0x4898>
   17860:	000245b7          	lui	a1,0x24
   17864:	00200613          	li	a2,2
   17868:	d8058593          	addi	a1,a1,-640 # 23d80 <sigprocmask@plt+0x10d20>
   1786c:	00100513          	li	a0,1
   17870:	b00fb0ef          	jal	ra,12b70 <write@plt>
   17874:	00200513          	li	a0,2
   17878:	fc8fb0ef          	jal	ra,13040 <raise@plt>
   1787c:	0f89b783          	ld	a5,248(s3)
   17880:	06078063          	beqz	a5,178e0 <sigprocmask@plt+0x4880>
   17884:	00a00793          	li	a5,10
   17888:	00f48023          	sb	a5,0(s1)
   1788c:	000480a3          	sb	zero,1(s1)
   17890:	00100413          	li	s0,1
   17894:	00093983          	ld	s3,0(s2)
   17898:	fff40a13          	addi	s4,s0,-1
   1789c:	00a00a93          	li	s5,10
   178a0:	0189b483          	ld	s1,24(s3)
   178a4:	0004c783          	lbu	a5,0(s1)
   178a8:	fff4041b          	addiw	s0,s0,-1
   178ac:	00148593          	addi	a1,s1,1
   178b0:	04079863          	bnez	a5,17900 <sigprocmask@plt+0x48a0>
   178b4:	000a0613          	mv	a2,s4
   178b8:	00048513          	mv	a0,s1
   178bc:	8b4fb0ef          	jal	ra,12970 <memmove@plt>
   178c0:	fffa0a13          	addi	s4,s4,-1
   178c4:	fe0410e3          	bnez	s0,178a4 <sigprocmask@plt+0x4844>
   178c8:	0189b783          	ld	a5,24(s3)
   178cc:	40f487b3          	sub	a5,s1,a5
   178d0:	fff7871b          	addiw	a4,a5,-1
   178d4:	00e9a823          	sw	a4,16(s3)
   178d8:	f20742e3          	bltz	a4,177fc <sigprocmask@plt+0x479c>
   178dc:	03c0006f          	j	17918 <sigprocmask@plt+0x48b8>
   178e0:	f8200793          	li	a5,-126
   178e4:	00f98023          	sb	a5,0(s3)
   178e8:	00093783          	ld	a5,0(s2)
   178ec:	f9d00713          	li	a4,-99
   178f0:	00e7a823          	sw	a4,16(a5)
   178f4:	ee9ff06f          	j	177dc <sigprocmask@plt+0x477c>
   178f8:	fe0548e3          	bltz	a0,178e8 <sigprocmask@plt+0x4888>
   178fc:	f31ff06f          	j	1782c <sigprocmask@plt+0x47cc>
   17900:	05579a63          	bne	a5,s5,17954 <sigprocmask@plt+0x48f4>
   17904:	0189b783          	ld	a5,24(s3)
   17908:	00058493          	mv	s1,a1
   1790c:	40f587b3          	sub	a5,a1,a5
   17910:	fff7879b          	addiw	a5,a5,-1
   17914:	00f9a823          	sw	a5,16(s3)
   17918:	d681b783          	ld	a5,-664(gp)
   1791c:	0089aa23          	sw	s0,20(s3)
   17920:	05e7c783          	lbu	a5,94(a5)
   17924:	00078c63          	beqz	a5,1793c <sigprocmask@plt+0x48dc>
   17928:	0004c403          	lbu	s0,0(s1)
   1792c:	00048023          	sb	zero,0(s1)
   17930:	0189b503          	ld	a0,24(s3)
   17934:	c04fe0ef          	jal	ra,15d38 <sigprocmask@plt+0x2cd8>
   17938:	00848023          	sb	s0,0(s1)
   1793c:	00093703          	ld	a4,0(s2)
   17940:	01873783          	ld	a5,24(a4)
   17944:	00178693          	addi	a3,a5,1
   17948:	00d73c23          	sd	a3,24(a4)
   1794c:	0007c503          	lbu	a0,0(a5)
   17950:	e55ff06f          	j	177a4 <sigprocmask@plt+0x4744>
   17954:	00058493          	mv	s1,a1
   17958:	f69ff06f          	j	178c0 <sigprocmask@plt+0x4860>
   1795c:	fe010113          	addi	sp,sp,-32
   17960:	00913423          	sd	s1,8(sp)
   17964:	01213023          	sd	s2,0(sp)
   17968:	00113c23          	sd	ra,24(sp)
   1796c:	00813823          	sd	s0,16(sp)
   17970:	05c00493          	li	s1,92
   17974:	00a00913          	li	s2,10
   17978:	da1ff0ef          	jal	ra,17718 <sigprocmask@plt+0x46b8>
   1797c:	00050413          	mv	s0,a0
   17980:	00951863          	bne	a0,s1,17990 <sigprocmask@plt+0x4930>
   17984:	d95ff0ef          	jal	ra,17718 <sigprocmask@plt+0x46b8>
   17988:	03250263          	beq	a0,s2,179ac <sigprocmask@plt+0x494c>
   1798c:	e58fd0ef          	jal	ra,14fe4 <sigprocmask@plt+0x1f84>
   17990:	01813083          	ld	ra,24(sp)
   17994:	00040513          	mv	a0,s0
   17998:	01013403          	ld	s0,16(sp)
   1799c:	00813483          	ld	s1,8(sp)
   179a0:	00013903          	ld	s2,0(sp)
   179a4:	02010113          	addi	sp,sp,32
   179a8:	00008067          	ret
   179ac:	e00fd0ef          	jal	ra,14fac <sigprocmask@plt+0x1f4c>
   179b0:	fc9ff06f          	j	17978 <sigprocmask@plt+0x4918>
   179b4:	fc010113          	addi	sp,sp,-64
   179b8:	03213023          	sd	s2,32(sp)
   179bc:	00058913          	mv	s2,a1
   179c0:	c3d18593          	addi	a1,gp,-963
   179c4:	02813823          	sd	s0,48(sp)
   179c8:	02113c23          	sd	ra,56(sp)
   179cc:	02913423          	sd	s1,40(sp)
   179d0:	01313c23          	sd	s3,24(sp)
   179d4:	01413823          	sd	s4,16(sp)
   179d8:	01513423          	sd	s5,8(sp)
   179dc:	00050413          	mv	s0,a0
   179e0:	e40fb0ef          	jal	ra,13020 <strpbrk@plt>
   179e4:	08050e63          	beqz	a0,17a80 <sigprocmask@plt+0x4a20>
   179e8:	00197713          	andi	a4,s2,1
   179ec:	00050493          	mv	s1,a0
   179f0:	00897993          	andi	s3,s2,8
   179f4:	00050793          	mv	a5,a0
   179f8:	04070a63          	beqz	a4,17a4c <sigprocmask@plt+0x49ec>
   179fc:	40850a33          	sub	s4,a0,s0
   17a00:	d70fb0ef          	jal	ra,12f70 <strlen@plt>
   17a04:	001a0793          	addi	a5,s4,1
   17a08:	00a78533          	add	a0,a5,a0
   17a0c:	08098e63          	beqz	s3,17aa8 <sigprocmask@plt+0x4a48>
   17a10:	d601ba83          	ld	s5,-672(gp)
   17a14:	008ab583          	ld	a1,8(s5)
   17a18:	40b404bb          	subw	s1,s0,a1
   17a1c:	ce81b583          	ld	a1,-792(gp)
   17a20:	8bcff0ef          	jal	ra,16adc <sigprocmask@plt+0x3a7c>
   17a24:	008ab583          	ld	a1,8(s5)
   17a28:	00050413          	mv	s0,a0
   17a2c:	009585b3          	add	a1,a1,s1
   17a30:	014584b3          	add	s1,a1,s4
   17a34:	00040793          	mv	a5,s0
   17a38:	000a0a63          	beqz	s4,17a4c <sigprocmask@plt+0x49ec>
   17a3c:	000a0613          	mv	a2,s4
   17a40:	00040513          	mv	a0,s0
   17a44:	fcdfa0ef          	jal	ra,12a10 <memcpy@plt>
   17a48:	014507b3          	add	a5,a0,s4
   17a4c:	c101be03          	ld	t3,-1008(gp)
   17a50:	00297593          	andi	a1,s2,2
   17a54:	00058693          	mv	a3,a1
   17a58:	08800813          	li	a6,136
   17a5c:	05c00513          	li	a0,92
   17a60:	08100893          	li	a7,129
   17a64:	03d00313          	li	t1,61
   17a68:	0004c703          	lbu	a4,0(s1)
   17a6c:	04071e63          	bnez	a4,17ac8 <sigprocmask@plt+0x4a68>
   17a70:	00078023          	sb	zero,0(a5)
   17a74:	00098663          	beqz	s3,17a80 <sigprocmask@plt+0x4a20>
   17a78:	00178793          	addi	a5,a5,1
   17a7c:	cef1b423          	sd	a5,-792(gp)
   17a80:	03813083          	ld	ra,56(sp)
   17a84:	00040513          	mv	a0,s0
   17a88:	03013403          	ld	s0,48(sp)
   17a8c:	02813483          	ld	s1,40(sp)
   17a90:	02013903          	ld	s2,32(sp)
   17a94:	01813983          	ld	s3,24(sp)
   17a98:	01013a03          	ld	s4,16(sp)
   17a9c:	00813a83          	ld	s5,8(sp)
   17aa0:	04010113          	addi	sp,sp,64
   17aa4:	00008067          	ret
   17aa8:	01097793          	andi	a5,s2,16
   17aac:	00078a63          	beqz	a5,17ac0 <sigprocmask@plt+0x4a60>
   17ab0:	a5dfc0ef          	jal	ra,1450c <sigprocmask@plt+0x14ac>
   17ab4:	00040593          	mv	a1,s0
   17ab8:	00050413          	mv	s0,a0
   17abc:	f79ff06f          	j	17a34 <sigprocmask@plt+0x49d4>
   17ac0:	c49fe0ef          	jal	ra,16708 <sigprocmask@plt+0x36a8>
   17ac4:	ff1ff06f          	j	17ab4 <sigprocmask@plt+0x4a54>
   17ac8:	00148613          	addi	a2,s1,1
   17acc:	07070863          	beq	a4,a6,17b3c <sigprocmask@plt+0x4adc>
   17ad0:	04a70663          	beq	a4,a0,17b1c <sigprocmask@plt+0x4abc>
   17ad4:	05171a63          	bne	a4,a7,17b28 <sigprocmask@plt+0x4ac8>
   17ad8:	04068e63          	beqz	a3,17b34 <sigprocmask@plt+0x4ad4>
   17adc:	0014c703          	lbu	a4,1(s1)
   17ae0:	00058693          	mv	a3,a1
   17ae4:	fdf7071b          	addiw	a4,a4,-33
   17ae8:	0ff77713          	andi	a4,a4,255
   17aec:	00e36c63          	bltu	t1,a4,17b04 <sigprocmask@plt+0x4aa4>
   17af0:	00ee5733          	srl	a4,t3,a4
   17af4:	00177713          	andi	a4,a4,1
   17af8:	00070663          	beqz	a4,17b04 <sigprocmask@plt+0x4aa4>
   17afc:	00a78023          	sb	a0,0(a5)
   17b00:	00178793          	addi	a5,a5,1
   17b04:	00064703          	lbu	a4,0(a2)
   17b08:	00178793          	addi	a5,a5,1
   17b0c:	00160613          	addi	a2,a2,1
   17b10:	fee78fa3          	sb	a4,-1(a5)
   17b14:	00060493          	mv	s1,a2
   17b18:	f51ff06f          	j	17a68 <sigprocmask@plt+0x4a08>
   17b1c:	00048613          	mv	a2,s1
   17b20:	00000693          	li	a3,0
   17b24:	fe1ff06f          	j	17b04 <sigprocmask@plt+0x4aa4>
   17b28:	00058693          	mv	a3,a1
   17b2c:	00048613          	mv	a2,s1
   17b30:	fd5ff06f          	j	17b04 <sigprocmask@plt+0x4aa4>
   17b34:	00058693          	mv	a3,a1
   17b38:	fcdff06f          	j	17b04 <sigprocmask@plt+0x4aa4>
   17b3c:	00058693          	mv	a3,a1
   17b40:	fd5ff06f          	j	17b14 <sigprocmask@plt+0x4ab4>
   17b44:	fd010113          	addi	sp,sp,-48
   17b48:	00024637          	lui	a2,0x24
   17b4c:	02813023          	sd	s0,32(sp)
   17b50:	00050693          	mv	a3,a0
   17b54:	00058413          	mv	s0,a1
   17b58:	d8860613          	addi	a2,a2,-632 # 23d88 <sigprocmask@plt+0x10d28>
   17b5c:	01800593          	li	a1,24
   17b60:	00810513          	addi	a0,sp,8
   17b64:	02113423          	sd	ra,40(sp)
   17b68:	8ccfe0ef          	jal	ra,15c34 <sigprocmask@plt+0x2bd4>
   17b6c:	00050593          	mv	a1,a0
   17b70:	00040613          	mv	a2,s0
   17b74:	00810513          	addi	a0,sp,8
   17b78:	93cff0ef          	jal	ra,16cb4 <sigprocmask@plt+0x3c54>
   17b7c:	02813083          	ld	ra,40(sp)
   17b80:	02013403          	ld	s0,32(sp)
   17b84:	0005051b          	sext.w	a0,a0
   17b88:	03010113          	addi	sp,sp,48
   17b8c:	00008067          	ret
   17b90:	f8010113          	addi	sp,sp,-128
   17b94:	06813823          	sd	s0,112(sp)
   17b98:	06913423          	sd	s1,104(sp)
   17b9c:	07213023          	sd	s2,96(sp)
   17ba0:	05313c23          	sd	s3,88(sp)
   17ba4:	05413823          	sd	s4,80(sp)
   17ba8:	05513423          	sd	s5,72(sp)
   17bac:	05613023          	sd	s6,64(sp)
   17bb0:	03713c23          	sd	s7,56(sp)
   17bb4:	03813823          	sd	s8,48(sp)
   17bb8:	03913423          	sd	s9,40(sp)
   17bbc:	03a13023          	sd	s10,32(sp)
   17bc0:	01b13c23          	sd	s11,24(sp)
   17bc4:	06113c23          	sd	ra,120(sp)
   17bc8:	00050413          	mv	s0,a0
   17bcc:	00058913          	mv	s2,a1
   17bd0:	00060c13          	mv	s8,a2
   17bd4:	00068c93          	mv	s9,a3
   17bd8:	00070993          	mv	s3,a4
   17bdc:	00078493          	mv	s1,a5
   17be0:	fff68d13          	addi	s10,a3,-1
   17be4:	00078d93          	mv	s11,a5
   17be8:	00000b93          	li	s7,0
   17bec:	02a00a13          	li	s4,42
   17bf0:	05c00a93          	li	s5,92
   17bf4:	08100b13          	li	s6,129
   17bf8:	0a8d6663          	bltu	s10,s0,17ca4 <sigprocmask@plt+0x4c44>
   17bfc:	000c4783          	lbu	a5,0(s8)
   17c00:	000c0593          	mv	a1,s8
   17c04:	00048663          	beqz	s1,17c10 <sigprocmask@plt+0x4bb0>
   17c08:	000c0023          	sb	zero,0(s8)
   17c0c:	00090593          	mv	a1,s2
   17c10:	00000613          	li	a2,0
   17c14:	000c8513          	mv	a0,s9
   17c18:	00f13423          	sd	a5,8(sp)
   17c1c:	954fb0ef          	jal	ra,12d70 <fnmatch@plt>
   17c20:	00813783          	ld	a5,8(sp)
   17c24:	00fc0023          	sb	a5,0(s8)
   17c28:	08050063          	beqz	a0,17ca8 <sigprocmask@plt+0x4c48>
   17c2c:	000d9e63          	bnez	s11,17c48 <sigprocmask@plt+0x4be8>
   17c30:	fffd0713          	addi	a4,s10,-1
   17c34:	0a099a63          	bnez	s3,17ce8 <sigprocmask@plt+0x4c88>
   17c38:	fffc0c13          	addi	s8,s8,-1
   17c3c:	00070d13          	mv	s10,a4
   17c40:	00000d93          	li	s11,0
   17c44:	fb5ff06f          	j	17bf8 <sigprocmask@plt+0x4b98>
   17c48:	000c8513          	mv	a0,s9
   17c4c:	b24fb0ef          	jal	ra,12f70 <strlen@plt>
   17c50:	0005081b          	sext.w	a6,a0
   17c54:	fc080ee3          	beqz	a6,17c30 <sigprocmask@plt+0x4bd0>
   17c58:	fff8081b          	addiw	a6,a6,-1
   17c5c:	0008061b          	sext.w	a2,a6
   17c60:	02081813          	slli	a6,a6,0x20
   17c64:	02085813          	srli	a6,a6,0x20
   17c68:	010c8833          	add	a6,s9,a6
   17c6c:	00084783          	lbu	a5,0(a6)
   17c70:	fd4790e3          	bne	a5,s4,17c30 <sigprocmask@plt+0x4bd0>
   17c74:	00060713          	mv	a4,a2
   17c78:	40e606bb          	subw	a3,a2,a4
   17c7c:	02070063          	beqz	a4,17c9c <sigprocmask@plt+0x4c3c>
   17c80:	fff7079b          	addiw	a5,a4,-1
   17c84:	0007871b          	sext.w	a4,a5
   17c88:	02079793          	slli	a5,a5,0x20
   17c8c:	0207d793          	srli	a5,a5,0x20
   17c90:	00fc87b3          	add	a5,s9,a5
   17c94:	0007c783          	lbu	a5,0(a5)
   17c98:	ff5780e3          	beq	a5,s5,17c78 <sigprocmask@plt+0x4c18>
   17c9c:	0016f793          	andi	a5,a3,1
   17ca0:	f80798e3          	bnez	a5,17c30 <sigprocmask@plt+0x4bd0>
   17ca4:	00000d13          	li	s10,0
   17ca8:	07813083          	ld	ra,120(sp)
   17cac:	07013403          	ld	s0,112(sp)
   17cb0:	06813483          	ld	s1,104(sp)
   17cb4:	06013903          	ld	s2,96(sp)
   17cb8:	05813983          	ld	s3,88(sp)
   17cbc:	05013a03          	ld	s4,80(sp)
   17cc0:	04813a83          	ld	s5,72(sp)
   17cc4:	04013b03          	ld	s6,64(sp)
   17cc8:	03813b83          	ld	s7,56(sp)
   17ccc:	03013c03          	ld	s8,48(sp)
   17cd0:	02813c83          	ld	s9,40(sp)
   17cd4:	01813d83          	ld	s11,24(sp)
   17cd8:	000d0513          	mv	a0,s10
   17cdc:	02013d03          	ld	s10,32(sp)
   17ce0:	08010113          	addi	sp,sp,128
   17ce4:	00008067          	ret
   17ce8:	fffb8b9b          	addiw	s7,s7,-1
   17cec:	020bd063          	bgez	s7,17d0c <sigprocmask@plt+0x4cac>
   17cf0:	00070793          	mv	a5,a4
   17cf4:	40f70bb3          	sub	s7,a4,a5
   17cf8:	00f47863          	bgeu	s0,a5,17d08 <sigprocmask@plt+0x4ca8>
   17cfc:	fff7c683          	lbu	a3,-1(a5)
   17d00:	fff78793          	addi	a5,a5,-1
   17d04:	ff6688e3          	beq	a3,s6,17cf4 <sigprocmask@plt+0x4c94>
   17d08:	000b8b9b          	sext.w	s7,s7
   17d0c:	001bf793          	andi	a5,s7,1
   17d10:	f20784e3          	beqz	a5,17c38 <sigprocmask@plt+0x4bd8>
   17d14:	fffb8b9b          	addiw	s7,s7,-1
   17d18:	ffed0713          	addi	a4,s10,-2
   17d1c:	f1dff06f          	j	17c38 <sigprocmask@plt+0x4bd8>
   17d20:	fb010113          	addi	sp,sp,-80
   17d24:	04813023          	sd	s0,64(sp)
   17d28:	02913c23          	sd	s1,56(sp)
   17d2c:	03213823          	sd	s2,48(sp)
   17d30:	03313423          	sd	s3,40(sp)
   17d34:	03413023          	sd	s4,32(sp)
   17d38:	01513c23          	sd	s5,24(sp)
   17d3c:	01713423          	sd	s7,8(sp)
   17d40:	04113423          	sd	ra,72(sp)
   17d44:	01613823          	sd	s6,16(sp)
   17d48:	00058913          	mv	s2,a1
   17d4c:	00068993          	mv	s3,a3
   17d50:	00070a13          	mv	s4,a4
   17d54:	00078a93          	mv	s5,a5
   17d58:	00058493          	mv	s1,a1
   17d5c:	00050413          	mv	s0,a0
   17d60:	08100b93          	li	s7,129
   17d64:	0004cb03          	lbu	s6,0(s1)
   17d68:	00048593          	mv	a1,s1
   17d6c:	000a8663          	beqz	s5,17d78 <sigprocmask@plt+0x4d18>
   17d70:	00048023          	sb	zero,0(s1)
   17d74:	00090593          	mv	a1,s2
   17d78:	00000613          	li	a2,0
   17d7c:	00098513          	mv	a0,s3
   17d80:	ff1fa0ef          	jal	ra,12d70 <fnmatch@plt>
   17d84:	01648023          	sb	s6,0(s1)
   17d88:	02050263          	beqz	a0,17dac <sigprocmask@plt+0x4d4c>
   17d8c:	000a0863          	beqz	s4,17d9c <sigprocmask@plt+0x4d3c>
   17d90:	00044783          	lbu	a5,0(s0)
   17d94:	01779463          	bne	a5,s7,17d9c <sigprocmask@plt+0x4d3c>
   17d98:	00140413          	addi	s0,s0,1
   17d9c:	00140413          	addi	s0,s0,1
   17da0:	00148493          	addi	s1,s1,1
   17da4:	fc0b10e3          	bnez	s6,17d64 <sigprocmask@plt+0x4d04>
   17da8:	00000413          	li	s0,0
   17dac:	04813083          	ld	ra,72(sp)
   17db0:	00040513          	mv	a0,s0
   17db4:	04013403          	ld	s0,64(sp)
   17db8:	03813483          	ld	s1,56(sp)
   17dbc:	03013903          	ld	s2,48(sp)
   17dc0:	02813983          	ld	s3,40(sp)
   17dc4:	02013a03          	ld	s4,32(sp)
   17dc8:	01813a83          	ld	s5,24(sp)
   17dcc:	01013b03          	ld	s6,16(sp)
   17dd0:	00813b83          	ld	s7,8(sp)
   17dd4:	05010113          	addi	sp,sp,80
   17dd8:	00008067          	ret
   17ddc:	000245b7          	lui	a1,0x24
   17de0:	ff010113          	addi	sp,sp,-16
   17de4:	b9058593          	addi	a1,a1,-1136 # 23b90 <sigprocmask@plt+0x10b30>
   17de8:	00813023          	sd	s0,0(sp)
   17dec:	00113423          	sd	ra,8(sp)
   17df0:	00050413          	mv	s0,a0
   17df4:	f85fc0ef          	jal	ra,14d78 <sigprocmask@plt+0x1d18>
   17df8:	00051c63          	bnez	a0,17e10 <sigprocmask@plt+0x4db0>
   17dfc:	000245b7          	lui	a1,0x24
   17e00:	d9058593          	addi	a1,a1,-624 # 23d90 <sigprocmask@plt+0x10d30>
   17e04:	00040513          	mv	a0,s0
   17e08:	f71fc0ef          	jal	ra,14d78 <sigprocmask@plt+0x1d18>
   17e0c:	00050a63          	beqz	a0,17e20 <sigprocmask@plt+0x4dc0>
   17e10:	00054703          	lbu	a4,0(a0)
   17e14:	02500793          	li	a5,37
   17e18:	00f71463          	bne	a4,a5,17e20 <sigprocmask@plt+0x4dc0>
   17e1c:	00150513          	addi	a0,a0,1
   17e20:	00813083          	ld	ra,8(sp)
   17e24:	00013403          	ld	s0,0(sp)
   17e28:	01010113          	addi	sp,sp,16
   17e2c:	00008067          	ret
   17e30:	fb010113          	addi	sp,sp,-80
   17e34:	03313423          	sd	s3,40(sp)
   17e38:	00053983          	ld	s3,0(a0)
   17e3c:	04113423          	sd	ra,72(sp)
   17e40:	04813023          	sd	s0,64(sp)
   17e44:	02913c23          	sd	s1,56(sp)
   17e48:	03213823          	sd	s2,48(sp)
   17e4c:	03413023          	sd	s4,32(sp)
   17e50:	01513c23          	sd	s5,24(sp)
   17e54:	01613823          	sd	s6,16(sp)
   17e58:	01713423          	sd	s7,8(sp)
   17e5c:	01813023          	sd	s8,0(sp)
   17e60:	12098c63          	beqz	s3,17f98 <sigprocmask@plt+0x4f38>
   17e64:	0009c703          	lbu	a4,0(s3)
   17e68:	00058a93          	mv	s5,a1
   17e6c:	02500793          	li	a5,37
   17e70:	000245b7          	lui	a1,0x24
   17e74:	00050b13          	mv	s6,a0
   17e78:	00000493          	li	s1,0
   17e7c:	d9858a13          	addi	s4,a1,-616 # 23d98 <sigprocmask@plt+0x10d38>
   17e80:	02f71663          	bne	a4,a5,17eac <sigprocmask@plt+0x4e4c>
   17e84:	00198413          	addi	s0,s3,1
   17e88:	d9858593          	addi	a1,a1,-616
   17e8c:	00040513          	mv	a0,s0
   17e90:	f4dff0ef          	jal	ra,17ddc <sigprocmask@plt+0x4d7c>
   17e94:	00050493          	mv	s1,a0
   17e98:	00050a63          	beqz	a0,17eac <sigprocmask@plt+0x4e4c>
   17e9c:	00024a37          	lui	s4,0x24
   17ea0:	00050993          	mv	s3,a0
   17ea4:	00040493          	mv	s1,s0
   17ea8:	da0a0a13          	addi	s4,s4,-608 # 23da0 <sigprocmask@plt+0x10d40>
   17eac:	000a0593          	mv	a1,s4
   17eb0:	00098513          	mv	a0,s3
   17eb4:	fadfa0ef          	jal	ra,12e60 <strcspn@plt>
   17eb8:	00a98933          	add	s2,s3,a0
   17ebc:	00094703          	lbu	a4,0(s2)
   17ec0:	02500793          	li	a5,37
   17ec4:	00050413          	mv	s0,a0
   17ec8:	02f71c63          	bne	a4,a5,17f00 <sigprocmask@plt+0x4ea0>
   17ecc:	03a00593          	li	a1,58
   17ed0:	00090513          	mv	a0,s2
   17ed4:	8ecfb0ef          	jal	ra,12fc0 <strchrnul@plt>
   17ed8:	00190c13          	addi	s8,s2,1
   17edc:	41250bb3          	sub	s7,a0,s2
   17ee0:	000a0593          	mv	a1,s4
   17ee4:	000c0513          	mv	a0,s8
   17ee8:	ef5ff0ef          	jal	ra,17ddc <sigprocmask@plt+0x4d7c>
   17eec:	00051663          	bnez	a0,17ef8 <sigprocmask@plt+0x4e98>
   17ef0:	01740433          	add	s0,s0,s7
   17ef4:	00048c13          	mv	s8,s1
   17ef8:	01790933          	add	s2,s2,s7
   17efc:	000c0493          	mv	s1,s8
   17f00:	00094683          	lbu	a3,0(s2)
   17f04:	d491b423          	sd	s1,-696(gp)
   17f08:	03a00713          	li	a4,58
   17f0c:	00000793          	li	a5,0
   17f10:	00e69463          	bne	a3,a4,17f18 <sigprocmask@plt+0x4eb8>
   17f14:	00190793          	addi	a5,s2,1
   17f18:	00fb3023          	sd	a5,0(s6)
   17f1c:	000a8513          	mv	a0,s5
   17f20:	850fb0ef          	jal	ra,12f70 <strlen@plt>
   17f24:	00240493          	addi	s1,s0,2
   17f28:	00a484b3          	add	s1,s1,a0
   17f2c:	00048513          	mv	a0,s1
   17f30:	b7dfe0ef          	jal	ra,16aac <sigprocmask@plt+0x3a4c>
   17f34:	00050793          	mv	a5,a0
   17f38:	02040063          	beqz	s0,17f58 <sigprocmask@plt+0x4ef8>
   17f3c:	00040613          	mv	a2,s0
   17f40:	00098593          	mv	a1,s3
   17f44:	acdfa0ef          	jal	ra,12a10 <memcpy@plt>
   17f48:	00850433          	add	s0,a0,s0
   17f4c:	02f00713          	li	a4,47
   17f50:	00140793          	addi	a5,s0,1
   17f54:	00e40023          	sb	a4,0(s0)
   17f58:	000a8593          	mv	a1,s5
   17f5c:	00078513          	mv	a0,a5
   17f60:	941fa0ef          	jal	ra,128a0 <strcpy@plt>
   17f64:	0004851b          	sext.w	a0,s1
   17f68:	04813083          	ld	ra,72(sp)
   17f6c:	04013403          	ld	s0,64(sp)
   17f70:	03813483          	ld	s1,56(sp)
   17f74:	03013903          	ld	s2,48(sp)
   17f78:	02813983          	ld	s3,40(sp)
   17f7c:	02013a03          	ld	s4,32(sp)
   17f80:	01813a83          	ld	s5,24(sp)
   17f84:	01013b03          	ld	s6,16(sp)
   17f88:	00813b83          	ld	s7,8(sp)
   17f8c:	00013c03          	ld	s8,0(sp)
   17f90:	05010113          	addi	sp,sp,80
   17f94:	00008067          	ret
   17f98:	fff00513          	li	a0,-1
   17f9c:	fcdff06f          	j	17f68 <sigprocmask@plt+0x4f08>
   17fa0:	ff010113          	addi	sp,sp,-16
   17fa4:	00813023          	sd	s0,0(sp)
   17fa8:	00113423          	sd	ra,8(sp)
   17fac:	00050413          	mv	s0,a0
   17fb0:	00058793          	mv	a5,a1
   17fb4:	00b50663          	beq	a0,a1,17fc0 <sigprocmask@plt+0x4f60>
   17fb8:	a99fa0ef          	jal	ra,12a50 <dup2@plt>
   17fbc:	00050793          	mv	a5,a0
   17fc0:	0007da63          	bgez	a5,17fd4 <sigprocmask@plt+0x4f74>
   17fc4:	00024537          	lui	a0,0x24
   17fc8:	00040593          	mv	a1,s0
   17fcc:	c9850513          	addi	a0,a0,-872 # 23c98 <sigprocmask@plt+0x10c38>
   17fd0:	a94fe0ef          	jal	ra,16264 <sigprocmask@plt+0x3204>
   17fd4:	00813083          	ld	ra,8(sp)
   17fd8:	00013403          	ld	s0,0(sp)
   17fdc:	01010113          	addi	sp,sp,16
   17fe0:	00008067          	ret
   17fe4:	fb010113          	addi	sp,sp,-80
   17fe8:	03413423          	sd	s4,40(sp)
   17fec:	d701ba03          	ld	s4,-656(gp)
   17ff0:	04113423          	sd	ra,72(sp)
   17ff4:	04813023          	sd	s0,64(sp)
   17ff8:	010a3783          	ld	a5,16(s4)
   17ffc:	02913c23          	sd	s1,56(sp)
   18000:	03213823          	sd	s2,48(sp)
   18004:	03513023          	sd	s5,32(sp)
   18008:	01613c23          	sd	s6,24(sp)
   1800c:	01713823          	sd	s7,16(sp)
   18010:	0a078463          	beqz	a5,180b8 <sigprocmask@plt+0x5058>
   18014:	d681b703          	ld	a4,-664(gp)
   18018:	00050913          	mv	s2,a0
   1801c:	04072783          	lw	a5,64(a4)
   18020:	0017879b          	addiw	a5,a5,1
   18024:	04f72023          	sw	a5,64(a4)
   18028:	010a3403          	ld	s0,16(s4)
   1802c:	00000a93          	li	s5,0
   18030:	fff00b13          	li	s6,-1
   18034:	00c40493          	addi	s1,s0,12
   18038:	ffe00b93          	li	s7,-2
   1803c:	00842783          	lw	a5,8(s0)
   18040:	02face63          	blt	s5,a5,1807c <sigprocmask@plt+0x501c>
   18044:	00043783          	ld	a5,0(s0)
   18048:	00040513          	mv	a0,s0
   1804c:	00fa3823          	sd	a5,16(s4)
   18050:	800fb0ef          	jal	ra,13050 <free@plt>
   18054:	04013403          	ld	s0,64(sp)
   18058:	04813083          	ld	ra,72(sp)
   1805c:	03813483          	ld	s1,56(sp)
   18060:	03013903          	ld	s2,48(sp)
   18064:	02813a03          	ld	s4,40(sp)
   18068:	02013a83          	ld	s5,32(sp)
   1806c:	01813b03          	ld	s6,24(sp)
   18070:	01013b83          	ld	s7,16(sp)
   18074:	05010113          	addi	sp,sp,80
   18078:	891fd06f          	j	15908 <sigprocmask@plt+0x28a8>
   1807c:	0044a503          	lw	a0,4(s1)
   18080:	0004a583          	lw	a1,0(s1)
   18084:	01651c63          	bne	a0,s6,1809c <sigprocmask@plt+0x503c>
   18088:	00058513          	mv	a0,a1
   1808c:	02090263          	beqz	s2,180b0 <sigprocmask@plt+0x5050>
   18090:	001a8a9b          	addiw	s5,s5,1
   18094:	00848493          	addi	s1,s1,8
   18098:	fa5ff06f          	j	1803c <sigprocmask@plt+0x4fdc>
   1809c:	ff750ae3          	beq	a0,s7,18090 <sigprocmask@plt+0x5030>
   180a0:	00091863          	bnez	s2,180b0 <sigprocmask@plt+0x5050>
   180a4:	00a13423          	sd	a0,8(sp)
   180a8:	ef9ff0ef          	jal	ra,17fa0 <sigprocmask@plt+0x4f40>
   180ac:	00813503          	ld	a0,8(sp)
   180b0:	f51fa0ef          	jal	ra,13000 <close@plt>
   180b4:	fddff06f          	j	18090 <sigprocmask@plt+0x5030>
   180b8:	04813083          	ld	ra,72(sp)
   180bc:	04013403          	ld	s0,64(sp)
   180c0:	03813483          	ld	s1,56(sp)
   180c4:	03013903          	ld	s2,48(sp)
   180c8:	02813a03          	ld	s4,40(sp)
   180cc:	02013a83          	ld	s5,32(sp)
   180d0:	01813b03          	ld	s6,24(sp)
   180d4:	01013b83          	ld	s7,16(sp)
   180d8:	05010113          	addi	sp,sp,80
   180dc:	00008067          	ret
   180e0:	d681b703          	ld	a4,-664(gp)
   180e4:	ff010113          	addi	sp,sp,-16
   180e8:	00872683          	lw	a3,8(a4)
   180ec:	00113423          	sd	ra,8(sp)
   180f0:	00813023          	sd	s0,0(sp)
   180f4:	d9018793          	addi	a5,gp,-624
   180f8:	0206c463          	bltz	a3,18120 <sigprocmask@plt+0x50c0>
   180fc:	05072583          	lw	a1,80(a4)
   18100:	00400613          	li	a2,4
   18104:	00c58863          	beq	a1,a2,18114 <sigprocmask@plt+0x50b4>
   18108:	0007a583          	lw	a1,0(a5)
   1810c:	00800613          	li	a2,8
   18110:	00c59463          	bne	a1,a2,18118 <sigprocmask@plt+0x50b8>
   18114:	00d70023          	sb	a3,0(a4)
   18118:	fff00693          	li	a3,-1
   1811c:	00d72423          	sw	a3,8(a4)
   18120:	0007a023          	sw	zero,0(a5)
   18124:	da01a023          	sw	zero,-608(gp)
   18128:	941fd0ef          	jal	ra,15a68 <sigprocmask@plt+0x2a08>
   1812c:	d701b403          	ld	s0,-656(gp)
   18130:	01043783          	ld	a5,16(s0)
   18134:	00079a63          	bnez	a5,18148 <sigprocmask@plt+0x50e8>
   18138:	00813083          	ld	ra,8(sp)
   1813c:	00013403          	ld	s0,0(sp)
   18140:	01010113          	addi	sp,sp,16
   18144:	00008067          	ret
   18148:	00000513          	li	a0,0
   1814c:	e99ff0ef          	jal	ra,17fe4 <sigprocmask@plt+0x4f84>
   18150:	fe1ff06f          	j	18130 <sigprocmask@plt+0x50d0>
   18154:	d681b703          	ld	a4,-664(gp)
   18158:	f2010113          	addi	sp,sp,-224
   1815c:	0c813823          	sd	s0,208(sp)
   18160:	04872703          	lw	a4,72(a4)
   18164:	0b313c23          	sd	s3,184(sp)
   18168:	0c113c23          	sd	ra,216(sp)
   1816c:	0c913423          	sd	s1,200(sp)
   18170:	0d213023          	sd	s2,192(sp)
   18174:	0b413823          	sd	s4,176(sp)
   18178:	0b513423          	sd	s5,168(sp)
   1817c:	0b613023          	sd	s6,160(sp)
   18180:	09713c23          	sd	s7,152(sp)
   18184:	09813823          	sd	s8,144(sp)
   18188:	00050413          	mv	s0,a0
   1818c:	00058993          	mv	s3,a1
   18190:	0007071b          	sext.w	a4,a4
   18194:	00058663          	beqz	a1,181a0 <sigprocmask@plt+0x5140>
   18198:	01c5c683          	lbu	a3,28(a1)
   1819c:	00069463          	bnez	a3,181a4 <sigprocmask@plt+0x5144>
   181a0:	00041663          	bnez	s0,181ac <sigprocmask@plt+0x514c>
   181a4:	20070a63          	beqz	a4,183b8 <sigprocmask@plt+0x5358>
   181a8:	00000413          	li	s0,0
   181ac:	d681ba03          	ld	s4,-664(gp)
   181b0:	ca01b783          	ld	a5,-864(gp)
   181b4:	01010493          	addi	s1,sp,16
   181b8:	00078c13          	mv	s8,a5
   181bc:	040a2783          	lw	a5,64(s4)
   181c0:	0017879b          	addiw	a5,a5,1
   181c4:	04fa2023          	sw	a5,64(s4)
   181c8:	fff40b13          	addi	s6,s0,-1
   181cc:	01603b33          	snez	s6,s6
   181d0:	00400b93          	li	s7,4
   181d4:	040a2423          	sw	zero,72(s4)
   181d8:	000b0613          	mv	a2,s6
   181dc:	00c10593          	addi	a1,sp,12
   181e0:	fff00513          	li	a0,-1
   181e4:	edcfa0ef          	jal	ra,128c0 <waitpid@plt>
   181e8:	00050913          	mv	s2,a0
   181ec:	00055a63          	bgez	a0,18200 <sigprocmask@plt+0x51a0>
   181f0:	000c2783          	lw	a5,0(s8)
   181f4:	ff7782e3          	beq	a5,s7,181d8 <sigprocmask@plt+0x5178>
   181f8:	00050b13          	mv	s6,a0
   181fc:	05c0006f          	j	18258 <sigprocmask@plt+0x51f8>
   18200:	06051c63          	bnez	a0,18278 <sigprocmask@plt+0x5218>
   18204:	04040663          	beqz	s0,18250 <sigprocmask@plt+0x51f0>
   18208:	00048513          	mv	a0,s1
   1820c:	a95fa0ef          	jal	ra,12ca0 <sigfillset@plt>
   18210:	00048593          	mv	a1,s1
   18214:	00200513          	li	a0,2
   18218:	f30fc0ef          	jal	ra,14948 <sigprocmask@plt+0x18e8>
   1821c:	048a2783          	lw	a5,72(s4)
   18220:	0007879b          	sext.w	a5,a5
   18224:	00079863          	bnez	a5,18234 <sigprocmask@plt+0x51d4>
   18228:	04ca2783          	lw	a5,76(s4)
   1822c:	0007879b          	sext.w	a5,a5
   18230:	02078e63          	beqz	a5,1826c <sigprocmask@plt+0x520c>
   18234:	00000613          	li	a2,0
   18238:	00048593          	mv	a1,s1
   1823c:	00200513          	li	a0,2
   18240:	e21fa0ef          	jal	ra,13060 <sigprocmask@plt>
   18244:	048a2783          	lw	a5,72(s4)
   18248:	0007879b          	sext.w	a5,a5
   1824c:	f80794e3          	bnez	a5,181d4 <sigprocmask@plt+0x5174>
   18250:	00143b13          	seqz	s6,s0
   18254:	41600b33          	neg	s6,s6
   18258:	eb0fd0ef          	jal	ra,15908 <sigprocmask@plt+0x28a8>
   1825c:	140b0063          	beqz	s6,1839c <sigprocmask@plt+0x533c>
   18260:	14098c63          	beqz	s3,183b8 <sigprocmask@plt+0x5358>
   18264:	000b0913          	mv	s2,s6
   18268:	1200006f          	j	18388 <sigprocmask@plt+0x5328>
   1826c:	00048513          	mv	a0,s1
   18270:	dc1fa0ef          	jal	ra,13030 <sigsuspend@plt>
   18274:	fa9ff06f          	j	1821c <sigprocmask@plt+0x51bc>
   18278:	ce01b783          	ld	a5,-800(gp)
   1827c:	00c12583          	lw	a1,12(sp)
   18280:	00200513          	li	a0,2
   18284:	fff00813          	li	a6,-1
   18288:	00079663          	bnez	a5,18294 <sigprocmask@plt+0x5234>
   1828c:	00000b13          	li	s6,0
   18290:	0680006f          	j	182f8 <sigprocmask@plt+0x5298>
   18294:	01c7c703          	lbu	a4,28(a5)
   18298:	10a70663          	beq	a4,a0,183a4 <sigprocmask@plt+0x5344>
   1829c:	0187e683          	lwu	a3,24(a5)
   182a0:	0107b703          	ld	a4,16(a5)
   182a4:	00200613          	li	a2,2
   182a8:	00469693          	slli	a3,a3,0x4
   182ac:	00d706b3          	add	a3,a4,a3
   182b0:	00000b13          	li	s6,0
   182b4:	00072883          	lw	a7,0(a4)
   182b8:	01289663          	bne	a7,s2,182c4 <sigprocmask@plt+0x5264>
   182bc:	00b72223          	sw	a1,4(a4)
   182c0:	00078b13          	mv	s6,a5
   182c4:	00472883          	lw	a7,4(a4)
   182c8:	01089463          	bne	a7,a6,182d0 <sigprocmask@plt+0x5270>
   182cc:	00000613          	li	a2,0
   182d0:	01070713          	addi	a4,a4,16
   182d4:	fed760e3          	bltu	a4,a3,182b4 <sigprocmask@plt+0x5254>
   182d8:	0c0b0663          	beqz	s6,183a4 <sigprocmask@plt+0x5344>
   182dc:	00060e63          	beqz	a2,182f8 <sigprocmask@plt+0x5298>
   182e0:	01cb5783          	lhu	a5,28(s6)
   182e4:	4007e793          	ori	a5,a5,1024
   182e8:	00fb1e23          	sh	a5,28(s6)
   182ec:	0ff7f793          	andi	a5,a5,255
   182f0:	00c78463          	beq	a5,a2,182f8 <sigprocmask@plt+0x5298>
   182f4:	00cb0e23          	sb	a2,28(s6)
   182f8:	e10fd0ef          	jal	ra,15908 <sigprocmask@plt+0x28a8>
   182fc:	0a0b0863          	beqz	s6,183ac <sigprocmask@plt+0x534c>
   18300:	0b699663          	bne	s3,s6,183ac <sigprocmask@plt+0x534c>
   18304:	00c12b03          	lw	s6,12(sp)
   18308:	00048793          	mv	a5,s1
   1830c:	07db7713          	andi	a4,s6,125
   18310:	04070463          	beqz	a4,18358 <sigprocmask@plt+0x52f8>
   18314:	07fb7513          	andi	a0,s6,127
   18318:	00d00713          	li	a4,13
   1831c:	02e50e63          	beq	a0,a4,18358 <sigprocmask@plt+0x52f8>
   18320:	b01fa0ef          	jal	ra,12e20 <strsignal@plt>
   18324:	00050613          	mv	a2,a0
   18328:	02000593          	li	a1,32
   1832c:	00048513          	mv	a0,s1
   18330:	905fd0ef          	jal	ra,15c34 <sigprocmask@plt+0x2bd4>
   18334:	080b7b13          	andi	s6,s6,128
   18338:	00a487b3          	add	a5,s1,a0
   1833c:	000b0e63          	beqz	s6,18358 <sigprocmask@plt+0x52f8>
   18340:	000245b7          	lui	a1,0x24
   18344:	00078513          	mv	a0,a5
   18348:	00f00613          	li	a2,15
   1834c:	da858593          	addi	a1,a1,-600 # 23da8 <sigprocmask@plt+0x10d48>
   18350:	ec0fa0ef          	jal	ra,12a10 <memcpy@plt>
   18354:	00e50793          	addi	a5,a0,14
   18358:	409787bb          	subw	a5,a5,s1
   1835c:	02078663          	beqz	a5,18388 <sigprocmask@plt+0x5328>
   18360:	09010713          	addi	a4,sp,144
   18364:	00f70733          	add	a4,a4,a5
   18368:	00a00693          	li	a3,10
   1836c:	f8d70023          	sb	a3,-128(a4)
   18370:	0017879b          	addiw	a5,a5,1
   18374:	09010713          	addi	a4,sp,144
   18378:	00f707b3          	add	a5,a4,a5
   1837c:	f8078023          	sb	zero,-128(a5)
   18380:	00048513          	mv	a0,s1
   18384:	9b5fd0ef          	jal	ra,15d38 <sigprocmask@plt+0x2cd8>
   18388:	01c9c783          	lbu	a5,28(s3)
   1838c:	00000b13          	li	s6,0
   18390:	00079463          	bnez	a5,18398 <sigprocmask@plt+0x5338>
   18394:	00040b13          	mv	s6,s0
   18398:	02094063          	bltz	s2,183b8 <sigprocmask@plt+0x5358>
   1839c:	000b0413          	mv	s0,s6
   183a0:	e1dff06f          	j	181bc <sigprocmask@plt+0x515c>
   183a4:	0207b783          	ld	a5,32(a5)
   183a8:	ee1ff06f          	j	18288 <sigprocmask@plt+0x5228>
   183ac:	00040b13          	mv	s6,s0
   183b0:	fe0986e3          	beqz	s3,1839c <sigprocmask@plt+0x533c>
   183b4:	fd5ff06f          	j	18388 <sigprocmask@plt+0x5328>
   183b8:	0d813083          	ld	ra,216(sp)
   183bc:	0d013403          	ld	s0,208(sp)
   183c0:	0c813483          	ld	s1,200(sp)
   183c4:	0c013903          	ld	s2,192(sp)
   183c8:	0b813983          	ld	s3,184(sp)
   183cc:	0b013a03          	ld	s4,176(sp)
   183d0:	0a813a83          	ld	s5,168(sp)
   183d4:	0a013b03          	ld	s6,160(sp)
   183d8:	09813b83          	ld	s7,152(sp)
   183dc:	09013c03          	ld	s8,144(sp)
   183e0:	0e010113          	addi	sp,sp,224
   183e4:	00008067          	ret
   183e8:	f8010113          	addi	sp,sp,-128
   183ec:	05413823          	sd	s4,80(sp)
   183f0:	05613023          	sd	s6,64(sp)
   183f4:	d681bb03          	ld	s6,-664(gp)
   183f8:	07213023          	sd	s2,96(sp)
   183fc:	05313c23          	sd	s3,88(sp)
   18400:	054b0513          	addi	a0,s6,84
   18404:	06113c23          	sd	ra,120(sp)
   18408:	06813823          	sd	s0,112(sp)
   1840c:	06913423          	sd	s1,104(sp)
   18410:	05513423          	sd	s5,72(sp)
   18414:	03713c23          	sd	s7,56(sp)
   18418:	03813823          	sd	s8,48(sp)
   1841c:	03913423          	sd	s9,40(sp)
   18420:	03a13023          	sd	s10,32(sp)
   18424:	01b13c23          	sd	s11,24(sp)
   18428:	e85fd0ef          	jal	ra,162ac <sigprocmask@plt+0x324c>
   1842c:	cb81b903          	ld	s2,-840(gp)
   18430:	ce018993          	addi	s3,gp,-800
   18434:	00093783          	ld	a5,0(s2)
   18438:	04079a63          	bnez	a5,1848c <sigprocmask@plt+0x542c>
   1843c:	0009b783          	ld	a5,0(s3)
   18440:	24078063          	beqz	a5,18680 <sigprocmask@plt+0x5620>
   18444:	01c7c703          	lbu	a4,28(a5)
   18448:	00070c63          	beqz	a4,18460 <sigprocmask@plt+0x5400>
   1844c:	01c7d703          	lhu	a4,28(a5)
   18450:	10076713          	ori	a4,a4,256
   18454:	00e79e23          	sh	a4,28(a5)
   18458:	0207b783          	ld	a5,32(a5)
   1845c:	fe5ff06f          	j	18440 <sigprocmask@plt+0x53e0>
   18460:	00000593          	li	a1,0
   18464:	00200513          	li	a0,2
   18468:	cedff0ef          	jal	ra,18154 <sigprocmask@plt+0x50f4>
   1846c:	04cb2783          	lw	a5,76(s6)
   18470:	0007879b          	sext.w	a5,a5
   18474:	fc0784e3          	beqz	a5,1843c <sigprocmask@plt+0x53dc>
   18478:	d681b783          	ld	a5,-664(gp)
   1847c:	04c7a483          	lw	s1,76(a5)
   18480:	0004849b          	sext.w	s1,s1
   18484:	0804e493          	ori	s1,s1,128
   18488:	0dc0006f          	j	18564 <sigprocmask@plt+0x5504>
   1848c:	00024c37          	lui	s8,0x24
   18490:	00024ab7          	lui	s5,0x24
   18494:	07f00493          	li	s1,127
   18498:	00024bb7          	lui	s7,0x24
   1849c:	dd8c0c13          	addi	s8,s8,-552 # 23dd8 <sigprocmask@plt+0x10d78>
   184a0:	dc8a8a93          	addi	s5,s5,-568 # 23dc8 <sigprocmask@plt+0x10d68>
   184a4:	00093d03          	ld	s10,0(s2)
   184a8:	02500793          	li	a5,37
   184ac:	000d4703          	lbu	a4,0(s10)
   184b0:	04f70063          	beq	a4,a5,184f0 <sigprocmask@plt+0x5490>
   184b4:	000d0513          	mv	a0,s10
   184b8:	f49fd0ef          	jal	ra,16400 <sigprocmask@plt+0x33a0>
   184bc:	0009b403          	ld	s0,0(s3)
   184c0:	08040c63          	beqz	s0,18558 <sigprocmask@plt+0x54f8>
   184c4:	01842783          	lw	a5,24(s0)
   184c8:	01043703          	ld	a4,16(s0)
   184cc:	fff7879b          	addiw	a5,a5,-1
   184d0:	02079793          	slli	a5,a5,0x20
   184d4:	0207d793          	srli	a5,a5,0x20
   184d8:	00479793          	slli	a5,a5,0x4
   184dc:	00f707b3          	add	a5,a4,a5
   184e0:	0007a783          	lw	a5,0(a5)
   184e4:	04a78263          	beq	a5,a0,18528 <sigprocmask@plt+0x54c8>
   184e8:	02043403          	ld	s0,32(s0)
   184ec:	fd5ff06f          	j	184c0 <sigprocmask@plt+0x5460>
   184f0:	001d4783          	lbu	a5,1(s10)
   184f4:	0009b403          	ld	s0,0(s3)
   184f8:	0a078663          	beqz	a5,185a4 <sigprocmask@plt+0x5544>
   184fc:	002d4683          	lbu	a3,2(s10)
   18500:	0a069663          	bnez	a3,185ac <sigprocmask@plt+0x554c>
   18504:	02b00693          	li	a3,43
   18508:	08d78e63          	beq	a5,a3,185a4 <sigprocmask@plt+0x5544>
   1850c:	08e78c63          	beq	a5,a4,185a4 <sigprocmask@plt+0x5544>
   18510:	02d00713          	li	a4,45
   18514:	08e79c63          	bne	a5,a4,185ac <sigprocmask@plt+0x554c>
   18518:	16040063          	beqz	s0,18678 <sigprocmask@plt+0x5618>
   1851c:	02043403          	ld	s0,32(s0)
   18520:	000a8493          	mv	s1,s5
   18524:	0e040063          	beqz	s0,18604 <sigprocmask@plt+0x55a4>
   18528:	00040593          	mv	a1,s0
   1852c:	00200513          	li	a0,2
   18530:	c25ff0ef          	jal	ra,18154 <sigprocmask@plt+0x50f4>
   18534:	04cb2783          	lw	a5,76(s6)
   18538:	0007879b          	sext.w	a5,a5
   1853c:	f2079ee3          	bnez	a5,18478 <sigprocmask@plt+0x5418>
   18540:	01c45783          	lhu	a5,28(s0)
   18544:	00040513          	mv	a0,s0
   18548:	1007e793          	ori	a5,a5,256
   1854c:	00f41e23          	sh	a5,28(s0)
   18550:	9adfc0ef          	jal	ra,14efc <sigprocmask@plt+0x1e9c>
   18554:	00050493          	mv	s1,a0
   18558:	00893783          	ld	a5,8(s2)
   1855c:	00890913          	addi	s2,s2,8
   18560:	f40792e3          	bnez	a5,184a4 <sigprocmask@plt+0x5444>
   18564:	07813083          	ld	ra,120(sp)
   18568:	07013403          	ld	s0,112(sp)
   1856c:	06013903          	ld	s2,96(sp)
   18570:	05813983          	ld	s3,88(sp)
   18574:	05013a03          	ld	s4,80(sp)
   18578:	04813a83          	ld	s5,72(sp)
   1857c:	04013b03          	ld	s6,64(sp)
   18580:	03813b83          	ld	s7,56(sp)
   18584:	03013c03          	ld	s8,48(sp)
   18588:	02813c83          	ld	s9,40(sp)
   1858c:	02013d03          	ld	s10,32(sp)
   18590:	01813d83          	ld	s11,24(sp)
   18594:	00048513          	mv	a0,s1
   18598:	06813483          	ld	s1,104(sp)
   1859c:	08010113          	addi	sp,sp,128
   185a0:	00008067          	ret
   185a4:	db8b8493          	addi	s1,s7,-584 # 23db8 <sigprocmask@plt+0x10d58>
   185a8:	f7dff06f          	j	18524 <sigprocmask@plt+0x54c4>
   185ac:	001d0c93          	addi	s9,s10,1
   185b0:	000c8513          	mv	a0,s9
   185b4:	fe8fc0ef          	jal	ra,14d9c <sigprocmask@plt+0x1d3c>
   185b8:	04050c63          	beqz	a0,18610 <sigprocmask@plt+0x55b0>
   185bc:	000c8513          	mv	a0,s9
   185c0:	951fa0ef          	jal	ra,12f10 <atoi@plt>
   185c4:	0005051b          	sext.w	a0,a0
   185c8:	04050463          	beqz	a0,18610 <sigprocmask@plt+0x55b0>
   185cc:	da81a783          	lw	a5,-600(gp)
   185d0:	04a7e063          	bltu	a5,a0,18610 <sigprocmask@plt+0x55b0>
   185d4:	02051513          	slli	a0,a0,0x20
   185d8:	02800413          	li	s0,40
   185dc:	02055513          	srli	a0,a0,0x20
   185e0:	02850533          	mul	a0,a0,s0
   185e4:	d181b403          	ld	s0,-744(gp)
   185e8:	fd850513          	addi	a0,a0,-40
   185ec:	00a40433          	add	s0,s0,a0
   185f0:	01c45783          	lhu	a5,28(s0)
   185f4:	2007f793          	andi	a5,a5,512
   185f8:	f20798e3          	bnez	a5,18528 <sigprocmask@plt+0x54c8>
   185fc:	000244b7          	lui	s1,0x24
   18600:	de848493          	addi	s1,s1,-536 # 23de8 <sigprocmask@plt+0x10d88>
   18604:	000d0593          	mv	a1,s10
   18608:	00048513          	mv	a0,s1
   1860c:	c59fd0ef          	jal	ra,16264 <sigprocmask@plt+0x3204>
   18610:	001d4703          	lbu	a4,1(s10)
   18614:	03f00793          	li	a5,63
   18618:	04f71a63          	bne	a4,a5,1866c <sigprocmask@plt+0x560c>
   1861c:	00013db7          	lui	s11,0x13
   18620:	002d0c93          	addi	s9,s10,2
   18624:	c20d8d93          	addi	s11,s11,-992 # 12c20 <strstr@plt>
   18628:	000244b7          	lui	s1,0x24
   1862c:	00040793          	mv	a5,s0
   18630:	de848493          	addi	s1,s1,-536 # 23de8 <sigprocmask@plt+0x10d88>
   18634:	00000413          	li	s0,0
   18638:	ee0786e3          	beqz	a5,18524 <sigprocmask@plt+0x54c4>
   1863c:	0107b703          	ld	a4,16(a5)
   18640:	000c8593          	mv	a1,s9
   18644:	00f13423          	sd	a5,8(sp)
   18648:	00873503          	ld	a0,8(a4)
   1864c:	000d80e7          	jalr	s11
   18650:	00813783          	ld	a5,8(sp)
   18654:	00050863          	beqz	a0,18664 <sigprocmask@plt+0x5604>
   18658:	fa0416e3          	bnez	s0,18604 <sigprocmask@plt+0x55a4>
   1865c:	00078413          	mv	s0,a5
   18660:	000c0493          	mv	s1,s8
   18664:	0207b783          	ld	a5,32(a5)
   18668:	fd1ff06f          	j	18638 <sigprocmask@plt+0x55d8>
   1866c:	00015db7          	lui	s11,0x15
   18670:	d78d8d93          	addi	s11,s11,-648 # 14d78 <sigprocmask@plt+0x1d18>
   18674:	fb5ff06f          	j	18628 <sigprocmask@plt+0x55c8>
   18678:	000a8493          	mv	s1,s5
   1867c:	f89ff06f          	j	18604 <sigprocmask@plt+0x55a4>
   18680:	00000493          	li	s1,0
   18684:	ee1ff06f          	j	18564 <sigprocmask@plt+0x5504>
   18688:	d9c1a683          	lw	a3,-612(gp)
   1868c:	000247b7          	lui	a5,0x24
   18690:	6d878713          	addi	a4,a5,1752 # 246d8 <sigprocmask@plt+0x11678>
   18694:	00369613          	slli	a2,a3,0x3
   18698:	f9010113          	addi	sp,sp,-112
   1869c:	00c70733          	add	a4,a4,a2
   186a0:	00073603          	ld	a2,0(a4)
   186a4:	06813023          	sd	s0,96(sp)
   186a8:	04913c23          	sd	s1,88(sp)
   186ac:	06113423          	sd	ra,104(sp)
   186b0:	05213823          	sd	s2,80(sp)
   186b4:	00300713          	li	a4,3
   186b8:	00050493          	mv	s1,a0
   186bc:	6d878413          	addi	s0,a5,1752
   186c0:	00d75c63          	bge	a4,a3,186d8 <sigprocmask@plt+0x5678>
   186c4:	000245b7          	lui	a1,0x24
   186c8:	df858593          	addi	a1,a1,-520 # 23df8 <sigprocmask@plt+0x10d98>
   186cc:	00010513          	mv	a0,sp
   186d0:	f80fa0ef          	jal	ra,12e50 <sprintf@plt>
   186d4:	00010613          	mv	a2,sp
   186d8:	000245b7          	lui	a1,0x24
   186dc:	e0058593          	addi	a1,a1,-512 # 23e00 <sigprocmask@plt+0x10da0>
   186e0:	01010513          	addi	a0,sp,16
   186e4:	f6cfa0ef          	jal	ra,12e50 <sprintf@plt>
   186e8:	fff00793          	li	a5,-1
   186ec:	00050913          	mv	s2,a0
   186f0:	04f48063          	beq	s1,a5,18730 <sigprocmask@plt+0x56d0>
   186f4:	00349793          	slli	a5,s1,0x3
   186f8:	00f407b3          	add	a5,s0,a5
   186fc:	0007b603          	ld	a2,0(a5)
   18700:	00300793          	li	a5,3
   18704:	0097dc63          	bge	a5,s1,1871c <sigprocmask@plt+0x56bc>
   18708:	000245b7          	lui	a1,0x24
   1870c:	df858593          	addi	a1,a1,-520 # 23df8 <sigprocmask@plt+0x10d98>
   18710:	00010513          	mv	a0,sp
   18714:	f3cfa0ef          	jal	ra,12e50 <sprintf@plt>
   18718:	00010613          	mv	a2,sp
   1871c:	000245b7          	lui	a1,0x24
   18720:	01010793          	addi	a5,sp,16
   18724:	e1058593          	addi	a1,a1,-496 # 23e10 <sigprocmask@plt+0x10db0>
   18728:	01278533          	add	a0,a5,s2
   1872c:	f24fa0ef          	jal	ra,12e50 <sprintf@plt>
   18730:	01010513          	addi	a0,sp,16
   18734:	a75fe0ef          	jal	ra,171a8 <sigprocmask@plt+0x4148>
   18738:	f4010113          	addi	sp,sp,-192
   1873c:	0a913423          	sd	s1,168(sp)
   18740:	c781b783          	ld	a5,-904(gp)
   18744:	0b213023          	sd	s2,160(sp)
   18748:	0a113c23          	sd	ra,184(sp)
   1874c:	0087a903          	lw	s2,8(a5)
   18750:	0a813823          	sd	s0,176(sp)
   18754:	09313c23          	sd	s3,152(sp)
   18758:	09413823          	sd	s4,144(sp)
   1875c:	09513423          	sd	s5,136(sp)
   18760:	09613023          	sd	s6,128(sp)
   18764:	07713c23          	sd	s7,120(sp)
   18768:	07813823          	sd	s8,112(sp)
   1876c:	07913423          	sd	s9,104(sp)
   18770:	07a13023          	sd	s10,96(sp)
   18774:	05b13c23          	sd	s11,88(sp)
   18778:	02013823          	sd	zero,48(sp)
   1877c:	005010ef          	jal	ra,19f80 <sigprocmask@plt+0x6f20>
   18780:	ffe5051b          	addiw	a0,a0,-2
   18784:	0005071b          	sext.w	a4,a0
   18788:	01900793          	li	a5,25
   1878c:	22e7e663          	bltu	a5,a4,189b8 <sigprocmask@plt+0x5958>
   18790:	02051513          	slli	a0,a0,0x20
   18794:	000257b7          	lui	a5,0x25
   18798:	ad478793          	addi	a5,a5,-1324 # 24ad4 <sigprocmask@plt+0x11a74>
   1879c:	01e55513          	srli	a0,a0,0x1e
   187a0:	00f50533          	add	a0,a0,a5
   187a4:	00052783          	lw	a5,0(a0)
   187a8:	00078067          	jr	a5
   187ac:	02000513          	li	a0,32
   187b0:	888fe0ef          	jal	ra,16838 <sigprocmask@plt+0x37d8>
   187b4:	00800793          	li	a5,8
   187b8:	00f52023          	sw	a5,0(a0)
   187bc:	00050413          	mv	s0,a0
   187c0:	00000513          	li	a0,0
   187c4:	748000ef          	jal	ra,18f0c <sigprocmask@plt+0x5eac>
   187c8:	00a43423          	sd	a0,8(s0)
   187cc:	7b4010ef          	jal	ra,19f80 <sigprocmask@plt+0x6f20>
   187d0:	01800793          	li	a5,24
   187d4:	00f50663          	beq	a0,a5,187e0 <sigprocmask@plt+0x5780>
   187d8:	01800513          	li	a0,24
   187dc:	eadff0ef          	jal	ra,18688 <sigprocmask@plt+0x5628>
   187e0:	00000513          	li	a0,0
   187e4:	728000ef          	jal	ra,18f0c <sigprocmask@plt+0x5eac>
   187e8:	00a43823          	sd	a0,16(s0)
   187ec:	00040993          	mv	s3,s0
   187f0:	01100a13          	li	s4,17
   187f4:	00800a93          	li	s5,8
   187f8:	01800b13          	li	s6,24
   187fc:	784010ef          	jal	ra,19f80 <sigprocmask@plt+0x6f20>
   18800:	03450863          	beq	a0,s4,18830 <sigprocmask@plt+0x57d0>
   18804:	d9c1a703          	lw	a4,-612(gp)
   18808:	01200793          	li	a5,18
   1880c:	06f71063          	bne	a4,a5,1886c <sigprocmask@plt+0x580c>
   18810:	00000513          	li	a0,0
   18814:	6f8000ef          	jal	ra,18f0c <sigprocmask@plt+0x5eac>
   18818:	00a9bc23          	sd	a0,24(s3)
   1881c:	01400493          	li	s1,20
   18820:	760010ef          	jal	ra,19f80 <sigprocmask@plt+0x6f20>
   18824:	30950663          	beq	a0,s1,18b30 <sigprocmask@plt+0x5ad0>
   18828:	00048513          	mv	a0,s1
   1882c:	fb1ff06f          	j	187dc <sigprocmask@plt+0x577c>
   18830:	02000513          	li	a0,32
   18834:	804fe0ef          	jal	ra,16838 <sigprocmask@plt+0x37d8>
   18838:	00a9bc23          	sd	a0,24(s3)
   1883c:	00050493          	mv	s1,a0
   18840:	01552023          	sw	s5,0(a0)
   18844:	00000513          	li	a0,0
   18848:	6c4000ef          	jal	ra,18f0c <sigprocmask@plt+0x5eac>
   1884c:	00a4b423          	sd	a0,8(s1)
   18850:	730010ef          	jal	ra,19f80 <sigprocmask@plt+0x6f20>
   18854:	f96512e3          	bne	a0,s6,187d8 <sigprocmask@plt+0x5778>
   18858:	00000513          	li	a0,0
   1885c:	6b0000ef          	jal	ra,18f0c <sigprocmask@plt+0x5eac>
   18860:	00a4b823          	sd	a0,16(s1)
   18864:	00048993          	mv	s3,s1
   18868:	f95ff06f          	j	187fc <sigprocmask@plt+0x579c>
   1886c:	00100713          	li	a4,1
   18870:	0009bc23          	sd	zero,24(s3)
   18874:	dae1aa23          	sw	a4,-588(gp)
   18878:	fa5ff06f          	j	1881c <sigprocmask@plt+0x57bc>
   1887c:	01800513          	li	a0,24
   18880:	fb9fd0ef          	jal	ra,16838 <sigprocmask@plt+0x37d8>
   18884:	d9c1a683          	lw	a3,-612(gp)
   18888:	01a00713          	li	a4,26
   1888c:	00050413          	mv	s0,a0
   18890:	00900793          	li	a5,9
   18894:	00e68463          	beq	a3,a4,1889c <sigprocmask@plt+0x583c>
   18898:	00a00793          	li	a5,10
   1889c:	00f42023          	sw	a5,0(s0)
   188a0:	00000513          	li	a0,0
   188a4:	668000ef          	jal	ra,18f0c <sigprocmask@plt+0x5eac>
   188a8:	00a43423          	sd	a0,8(s0)
   188ac:	6d4010ef          	jal	ra,19f80 <sigprocmask@plt+0x6f20>
   188b0:	00f00793          	li	a5,15
   188b4:	10f50e63          	beq	a0,a5,189d0 <sigprocmask@plt+0x5970>
   188b8:	00f00513          	li	a0,15
   188bc:	f21ff06f          	j	187dc <sigprocmask@plt+0x577c>
   188c0:	6c0010ef          	jal	ra,19f80 <sigprocmask@plt+0x6f20>
   188c4:	00300793          	li	a5,3
   188c8:	00f50863          	beq	a0,a5,188d8 <sigprocmask@plt+0x5878>
   188cc:	00024537          	lui	a0,0x24
   188d0:	e2050513          	addi	a0,a0,-480 # 23e20 <sigprocmask@plt+0x10dc0>
   188d4:	8d5fe0ef          	jal	ra,171a8 <sigprocmask@plt+0x4148>
   188d8:	dac1a783          	lw	a5,-596(gp)
   188dc:	fe0798e3          	bnez	a5,188cc <sigprocmask@plt+0x586c>
   188e0:	d5818493          	addi	s1,gp,-680
   188e4:	0004b503          	ld	a0,0(s1)
   188e8:	d5818a13          	addi	s4,gp,-680
   188ec:	3b8070ef          	jal	ra,1fca4 <sigprocmask@plt+0xcc44>
   188f0:	00054783          	lbu	a5,0(a0)
   188f4:	fc079ce3          	bnez	a5,188cc <sigprocmask@plt+0x586c>
   188f8:	02000513          	li	a0,32
   188fc:	f3dfd0ef          	jal	ra,16838 <sigprocmask@plt+0x37d8>
   18900:	00b00793          	li	a5,11
   18904:	00f52023          	sw	a5,0(a0)
   18908:	0004b783          	ld	a5,0(s1)
   1890c:	01252223          	sw	s2,4(a0)
   18910:	00f53c23          	sd	a5,24(a0)
   18914:	00700793          	li	a5,7
   18918:	d8f1a223          	sw	a5,-636(gp)
   1891c:	00050413          	mv	s0,a0
   18920:	660010ef          	jal	ra,19f80 <sigprocmask@plt+0x6f20>
   18924:	01700793          	li	a5,23
   18928:	d8418993          	addi	s3,gp,-636
   1892c:	08f50a63          	beq	a0,a5,189c0 <sigprocmask@plt+0x5960>
   18930:	02000513          	li	a0,32
   18934:	f05fd0ef          	jal	ra,16838 <sigprocmask@plt+0x37d8>
   18938:	00f00793          	li	a5,15
   1893c:	00f52023          	sw	a5,0(a0)
   18940:	c3318793          	addi	a5,gp,-973
   18944:	00f53823          	sd	a5,16(a0)
   18948:	d9c1a703          	lw	a4,-612(gp)
   1894c:	00a43423          	sd	a0,8(s0)
   18950:	00400793          	li	a5,4
   18954:	00f70663          	beq	a4,a5,18960 <sigprocmask@plt+0x5900>
   18958:	00100713          	li	a4,1
   1895c:	dae1aa23          	sw	a4,-588(gp)
   18960:	00700793          	li	a5,7
   18964:	00f9a023          	sw	a5,0(s3)
   18968:	f45ff06f          	j	188ac <sigprocmask@plt+0x584c>
   1896c:	02000513          	li	a0,32
   18970:	ec9fd0ef          	jal	ra,16838 <sigprocmask@plt+0x37d8>
   18974:	000a3783          	ld	a5,0(s4)
   18978:	01652023          	sw	s6,0(a0)
   1897c:	00f53823          	sd	a5,16(a0)
   18980:	cc01b783          	ld	a5,-832(gp)
   18984:	00f53c23          	sd	a5,24(a0)
   18988:	00a4b023          	sd	a0,0(s1)
   1898c:	00850493          	addi	s1,a0,8
   18990:	5f0010ef          	jal	ra,19f80 <sigprocmask@plt+0x6f20>
   18994:	fd550ce3          	beq	a0,s5,1896c <sigprocmask@plt+0x590c>
   18998:	0004b023          	sd	zero,0(s1)
   1899c:	02813783          	ld	a5,40(sp)
   189a0:	00100713          	li	a4,1
   189a4:	00f43423          	sd	a5,8(s0)
   189a8:	d9c1a783          	lw	a5,-612(gp)
   189ac:	fae78ae3          	beq	a5,a4,18960 <sigprocmask@plt+0x5900>
   189b0:	00400713          	li	a4,4
   189b4:	fae786e3          	beq	a5,a4,18960 <sigprocmask@plt+0x5900>
   189b8:	fff00513          	li	a0,-1
   189bc:	e21ff06f          	j	187dc <sigprocmask@plt+0x577c>
   189c0:	02810493          	addi	s1,sp,40
   189c4:	00300a93          	li	s5,3
   189c8:	00f00b13          	li	s6,15
   189cc:	fc5ff06f          	j	18990 <sigprocmask@plt+0x5930>
   189d0:	00000513          	li	a0,0
   189d4:	538000ef          	jal	ra,18f0c <sigprocmask@plt+0x5eac>
   189d8:	00a43823          	sd	a0,16(s0)
   189dc:	01000493          	li	s1,16
   189e0:	e41ff06f          	j	18820 <sigprocmask@plt+0x57c0>
   189e4:	01800513          	li	a0,24
   189e8:	e51fd0ef          	jal	ra,16838 <sigprocmask@plt+0x37d8>
   189ec:	00c00793          	li	a5,12
   189f0:	00f52023          	sw	a5,0(a0)
   189f4:	01252223          	sw	s2,4(a0)
   189f8:	00050413          	mv	s0,a0
   189fc:	584010ef          	jal	ra,19f80 <sigprocmask@plt+0x6f20>
   18a00:	00300793          	li	a5,3
   18a04:	00f50663          	beq	a0,a5,18a10 <sigprocmask@plt+0x59b0>
   18a08:	00300513          	li	a0,3
   18a0c:	dd1ff06f          	j	187dc <sigprocmask@plt+0x577c>
   18a10:	02000513          	li	a0,32
   18a14:	e25fd0ef          	jal	ra,16838 <sigprocmask@plt+0x37d8>
   18a18:	00a43423          	sd	a0,8(s0)
   18a1c:	00f00793          	li	a5,15
   18a20:	00f52023          	sw	a5,0(a0)
   18a24:	d581b783          	ld	a5,-680(gp)
   18a28:	00f53823          	sd	a5,16(a0)
   18a2c:	cc01b783          	ld	a5,-832(gp)
   18a30:	d5818993          	addi	s3,gp,-680
   18a34:	cc018a13          	addi	s4,gp,-832
   18a38:	00f53c23          	sd	a5,24(a0)
   18a3c:	00700793          	li	a5,7
   18a40:	d8f1a223          	sw	a5,-636(gp)
   18a44:	53c010ef          	jal	ra,19f80 <sigprocmask@plt+0x6f20>
   18a48:	01700793          	li	a5,23
   18a4c:	d8418493          	addi	s1,gp,-636
   18a50:	00f50663          	beq	a0,a5,18a5c <sigprocmask@plt+0x59fc>
   18a54:	01700513          	li	a0,23
   18a58:	d85ff06f          	j	187dc <sigprocmask@plt+0x577c>
   18a5c:	01040a93          	addi	s5,s0,16
   18a60:	00600b13          	li	s6,6
   18a64:	01300b93          	li	s7,19
   18a68:	00a00d13          	li	s10,10
   18a6c:	0164a023          	sw	s6,0(s1)
   18a70:	510010ef          	jal	ra,19f80 <sigprocmask@plt+0x6f20>
   18a74:	0b750c63          	beq	a0,s7,18b2c <sigprocmask@plt+0x5acc>
   18a78:	d9c1a783          	lw	a5,-612(gp)
   18a7c:	00900713          	li	a4,9
   18a80:	d9c18d93          	addi	s11,gp,-612
   18a84:	00e79463          	bne	a5,a4,18a8c <sigprocmask@plt+0x5a2c>
   18a88:	4f8010ef          	jal	ra,19f80 <sigprocmask@plt+0x6f20>
   18a8c:	02000513          	li	a0,32
   18a90:	da9fd0ef          	jal	ra,16838 <sigprocmask@plt+0x37d8>
   18a94:	00aab023          	sd	a0,0(s5)
   18a98:	00d00793          	li	a5,13
   18a9c:	00050c93          	mv	s9,a0
   18aa0:	00f52023          	sw	a5,0(a0)
   18aa4:	01050a93          	addi	s5,a0,16
   18aa8:	02000513          	li	a0,32
   18aac:	d8dfd0ef          	jal	ra,16838 <sigprocmask@plt+0x37d8>
   18ab0:	0009b683          	ld	a3,0(s3)
   18ab4:	00aab023          	sd	a0,0(s5)
   18ab8:	00f00713          	li	a4,15
   18abc:	00d53823          	sd	a3,16(a0)
   18ac0:	000a3683          	ld	a3,0(s4)
   18ac4:	00e52023          	sw	a4,0(a0)
   18ac8:	02a13423          	sd	a0,40(sp)
   18acc:	00d53c23          	sd	a3,24(a0)
   18ad0:	00a13023          	sd	a0,0(sp)
   18ad4:	4ac010ef          	jal	ra,19f80 <sigprocmask@plt+0x6f20>
   18ad8:	00800793          	li	a5,8
   18adc:	00f51a63          	bne	a0,a5,18af0 <sigprocmask@plt+0x5a90>
   18ae0:	00013783          	ld	a5,0(sp)
   18ae4:	00878a93          	addi	s5,a5,8
   18ae8:	498010ef          	jal	ra,19f80 <sigprocmask@plt+0x6f20>
   18aec:	fbdff06f          	j	18aa8 <sigprocmask@plt+0x5a48>
   18af0:	000da783          	lw	a5,0(s11)
   18af4:	01a78663          	beq	a5,s10,18b00 <sigprocmask@plt+0x5aa0>
   18af8:	00a00513          	li	a0,10
   18afc:	ce1ff06f          	j	187dc <sigprocmask@plt+0x577c>
   18b00:	00200513          	li	a0,2
   18b04:	408000ef          	jal	ra,18f0c <sigprocmask@plt+0x5eac>
   18b08:	00acbc23          	sd	a0,24(s9)
   18b0c:	008c8a93          	addi	s5,s9,8
   18b10:	0164a023          	sw	s6,0(s1)
   18b14:	46c010ef          	jal	ra,19f80 <sigprocmask@plt+0x6f20>
   18b18:	01750a63          	beq	a0,s7,18b2c <sigprocmask@plt+0x5acc>
   18b1c:	00b00793          	li	a5,11
   18b20:	f4f506e3          	beq	a0,a5,18a6c <sigprocmask@plt+0x5a0c>
   18b24:	00b00513          	li	a0,11
   18b28:	cb5ff06f          	j	187dc <sigprocmask@plt+0x577c>
   18b2c:	000ab023          	sd	zero,0(s5)
   18b30:	00300713          	li	a4,3
   18b34:	d8e1a223          	sw	a4,-636(gp)
   18b38:	03010493          	addi	s1,sp,48
   18b3c:	00200993          	li	s3,2
   18b40:	440010ef          	jal	ra,19f80 <sigprocmask@plt+0x6f20>
   18b44:	2b350263          	beq	a0,s3,18de8 <sigprocmask@plt+0x5d88>
   18b48:	0004b023          	sd	zero,0(s1)
   18b4c:	03013483          	ld	s1,48(sp)
   18b50:	00100713          	li	a4,1
   18b54:	dae1aa23          	sw	a4,-588(gp)
   18b58:	20048463          	beqz	s1,18d60 <sigprocmask@plt+0x5d00>
   18b5c:	00042703          	lw	a4,0(s0)
   18b60:	00400793          	li	a5,4
   18b64:	00f70e63          	beq	a4,a5,18b80 <sigprocmask@plt+0x5b20>
   18b68:	01800513          	li	a0,24
   18b6c:	ccdfd0ef          	jal	ra,16838 <sigprocmask@plt+0x37d8>
   18b70:	00853423          	sd	s0,8(a0)
   18b74:	01352023          	sw	s3,0(a0)
   18b78:	01252223          	sw	s2,4(a0)
   18b7c:	00050413          	mv	s0,a0
   18b80:	00943823          	sd	s1,16(s0)
   18b84:	1dc0006f          	j	18d60 <sigprocmask@plt+0x5d00>
   18b88:	01800513          	li	a0,24
   18b8c:	cadfd0ef          	jal	ra,16838 <sigprocmask@plt+0x37d8>
   18b90:	00400793          	li	a5,4
   18b94:	00050413          	mv	s0,a0
   18b98:	00f52023          	sw	a5,0(a0)
   18b9c:	01252223          	sw	s2,4(a0)
   18ba0:	00000513          	li	a0,0
   18ba4:	368000ef          	jal	ra,18f0c <sigprocmask@plt+0x5eac>
   18ba8:	00a43423          	sd	a0,8(s0)
   18bac:	00a00493          	li	s1,10
   18bb0:	c71ff06f          	j	18820 <sigprocmask@plt+0x57c0>
   18bb4:	00000513          	li	a0,0
   18bb8:	354000ef          	jal	ra,18f0c <sigprocmask@plt+0x5eac>
   18bbc:	00050413          	mv	s0,a0
   18bc0:	01c00493          	li	s1,28
   18bc4:	c5dff06f          	j	18820 <sigprocmask@plt+0x57c0>
   18bc8:	00100713          	li	a4,1
   18bcc:	c7818493          	addi	s1,gp,-904
   18bd0:	dae1aa23          	sw	a4,-588(gp)
   18bd4:	0004b703          	ld	a4,0(s1)
   18bd8:	db418793          	addi	a5,gp,-588
   18bdc:	02013c23          	sd	zero,56(sp)
   18be0:	00872703          	lw	a4,8(a4)
   18be4:	04013023          	sd	zero,64(sp)
   18be8:	04013423          	sd	zero,72(sp)
   18bec:	00e13023          	sd	a4,0(sp)
   18bf0:	00100a93          	li	s5,1
   18bf4:	04810993          	addi	s3,sp,72
   18bf8:	04010a13          	addi	s4,sp,64
   18bfc:	00000413          	li	s0,0
   18c00:	03810913          	addi	s2,sp,56
   18c04:	00f13423          	sd	a5,8(sp)
   18c08:	00900b93          	li	s7,9
   18c0c:	00300c13          	li	s8,3
   18c10:	00f00c93          	li	s9,15
   18c14:	d951a223          	sw	s5,-636(gp)
   18c18:	368010ef          	jal	ra,19f80 <sigprocmask@plt+0x6f20>
   18c1c:	09750a63          	beq	a0,s7,18cb0 <sigprocmask@plt+0x5c50>
   18c20:	18abc063          	blt	s7,a0,18da0 <sigprocmask@plt+0x5d40>
   18c24:	00200793          	li	a5,2
   18c28:	06f50a63          	beq	a0,a5,18c9c <sigprocmask@plt+0x5c3c>
   18c2c:	17851a63          	bne	a0,s8,18da0 <sigprocmask@plt+0x5d40>
   18c30:	02000513          	li	a0,32
   18c34:	c05fd0ef          	jal	ra,16838 <sigprocmask@plt+0x37d8>
   18c38:	cc01b703          	ld	a4,-832(gp)
   18c3c:	d581b783          	ld	a5,-680(gp)
   18c40:	01952023          	sw	s9,0(a0)
   18c44:	00e53c23          	sd	a4,24(a0)
   18c48:	00f53823          	sd	a5,16(a0)
   18c4c:	00050413          	mv	s0,a0
   18c50:	00850713          	addi	a4,a0,8
   18c54:	020a8c63          	beqz	s5,18c8c <sigprocmask@plt+0x5c2c>
   18c58:	00078513          	mv	a0,a5
   18c5c:	00e13c23          	sd	a4,24(sp)
   18c60:	00f13823          	sd	a5,16(sp)
   18c64:	040070ef          	jal	ra,1fca4 <sigprocmask@plt+0xcc44>
   18c68:	01013783          	ld	a5,16(sp)
   18c6c:	01813703          	ld	a4,24(sp)
   18c70:	00a78e63          	beq	a5,a0,18c8c <sigprocmask@plt+0x5c2c>
   18c74:	00054683          	lbu	a3,0(a0)
   18c78:	03d00793          	li	a5,61
   18c7c:	00f69863          	bne	a3,a5,18c8c <sigprocmask@plt+0x5c2c>
   18c80:	008a3023          	sd	s0,0(s4)
   18c84:	00070a13          	mv	s4,a4
   18c88:	f8dff06f          	j	18c14 <sigprocmask@plt+0x5bb4>
   18c8c:	00893023          	sd	s0,0(s2)
   18c90:	00000a93          	li	s5,0
   18c94:	00070913          	mv	s2,a4
   18c98:	f7dff06f          	j	18c14 <sigprocmask@plt+0x5bb4>
   18c9c:	d501b403          	ld	s0,-688(gp)
   18ca0:	0089b023          	sd	s0,0(s3)
   18ca4:	00840993          	addi	s3,s0,8
   18ca8:	380010ef          	jal	ra,1a028 <sigprocmask@plt+0x6fc8>
   18cac:	f69ff06f          	j	18c14 <sigprocmask@plt+0x5bb4>
   18cb0:	03813783          	ld	a5,56(sp)
   18cb4:	0e078663          	beqz	a5,18da0 <sigprocmask@plt+0x5d40>
   18cb8:	00878793          	addi	a5,a5,8
   18cbc:	0ef91263          	bne	s2,a5,18da0 <sigprocmask@plt+0x5d40>
   18cc0:	04013783          	ld	a5,64(sp)
   18cc4:	0c079e63          	bnez	a5,18da0 <sigprocmask@plt+0x5d40>
   18cc8:	04813783          	ld	a5,72(sp)
   18ccc:	0c079a63          	bnez	a5,18da0 <sigprocmask@plt+0x5d40>
   18cd0:	2b0010ef          	jal	ra,19f80 <sigprocmask@plt+0x6f20>
   18cd4:	00a00793          	li	a5,10
   18cd8:	e2f510e3          	bne	a0,a5,18af8 <sigprocmask@plt+0x5a98>
   18cdc:	01043903          	ld	s2,16(s0)
   18ce0:	00090513          	mv	a0,s2
   18ce4:	7c1060ef          	jal	ra,1fca4 <sigprocmask@plt+0xcc44>
   18ce8:	00054783          	lbu	a5,0(a0)
   18cec:	00078863          	beqz	a5,18cfc <sigprocmask@plt+0x5c9c>
   18cf0:	00024537          	lui	a0,0x24
   18cf4:	e3850513          	addi	a0,a0,-456 # 23e38 <sigprocmask@plt+0x10dd8>
   18cf8:	bddff06f          	j	188d4 <sigprocmask@plt+0x5874>
   18cfc:	00015737          	lui	a4,0x15
   18d00:	000245b7          	lui	a1,0x24
   18d04:	14070713          	addi	a4,a4,320 # 15140 <sigprocmask@plt+0x20e0>
   18d08:	01000693          	li	a3,16
   18d0c:	01c00613          	li	a2,28
   18d10:	49058593          	addi	a1,a1,1168 # 24490 <sigprocmask@plt+0x11430>
   18d14:	00090513          	mv	a0,s2
   18d18:	ca9f90ef          	jal	ra,129c0 <bsearch@plt>
   18d1c:	00050a63          	beqz	a0,18d30 <sigprocmask@plt+0x5cd0>
   18d20:	00053783          	ld	a5,0(a0)
   18d24:	0007c783          	lbu	a5,0(a5)
   18d28:	0017f793          	andi	a5,a5,1
   18d2c:	fc0792e3          	bnez	a5,18cf0 <sigprocmask@plt+0x5c90>
   18d30:	00e00793          	li	a5,14
   18d34:	00f42023          	sw	a5,0(s0)
   18d38:	d8418713          	addi	a4,gp,-636
   18d3c:	00700793          	li	a5,7
   18d40:	00f72023          	sw	a5,0(a4)
   18d44:	01043783          	ld	a5,16(s0)
   18d48:	00f43423          	sd	a5,8(s0)
   18d4c:	0004b783          	ld	a5,0(s1)
   18d50:	0087a783          	lw	a5,8(a5)
   18d54:	00f42223          	sw	a5,4(s0)
   18d58:	9e1ff0ef          	jal	ra,18738 <sigprocmask@plt+0x56d8>
   18d5c:	00a43823          	sd	a0,16(s0)
   18d60:	0b813083          	ld	ra,184(sp)
   18d64:	00040513          	mv	a0,s0
   18d68:	0b013403          	ld	s0,176(sp)
   18d6c:	0a813483          	ld	s1,168(sp)
   18d70:	0a013903          	ld	s2,160(sp)
   18d74:	09813983          	ld	s3,152(sp)
   18d78:	09013a03          	ld	s4,144(sp)
   18d7c:	08813a83          	ld	s5,136(sp)
   18d80:	08013b03          	ld	s6,128(sp)
   18d84:	07813b83          	ld	s7,120(sp)
   18d88:	07013c03          	ld	s8,112(sp)
   18d8c:	06813c83          	ld	s9,104(sp)
   18d90:	06013d03          	ld	s10,96(sp)
   18d94:	05813d83          	ld	s11,88(sp)
   18d98:	0c010113          	addi	sp,sp,192
   18d9c:	00008067          	ret
   18da0:	00093023          	sd	zero,0(s2)
   18da4:	00813703          	ld	a4,8(sp)
   18da8:	000a3023          	sd	zero,0(s4)
   18dac:	00100793          	li	a5,1
   18db0:	0009b023          	sd	zero,0(s3)
   18db4:	02000513          	li	a0,32
   18db8:	00f72023          	sw	a5,0(a4)
   18dbc:	a7dfd0ef          	jal	ra,16838 <sigprocmask@plt+0x37d8>
   18dc0:	00013783          	ld	a5,0(sp)
   18dc4:	00050413          	mv	s0,a0
   18dc8:	00f52223          	sw	a5,4(a0)
   18dcc:	03813783          	ld	a5,56(sp)
   18dd0:	00f53823          	sd	a5,16(a0)
   18dd4:	04013783          	ld	a5,64(sp)
   18dd8:	00f53423          	sd	a5,8(a0)
   18ddc:	04813783          	ld	a5,72(sp)
   18de0:	00f53c23          	sd	a5,24(a0)
   18de4:	f7dff06f          	j	18d60 <sigprocmask@plt+0x5d00>
   18de8:	d501b783          	ld	a5,-688(gp)
   18dec:	00f4b023          	sd	a5,0(s1)
   18df0:	00878493          	addi	s1,a5,8
   18df4:	234010ef          	jal	ra,1a028 <sigprocmask@plt+0x6fc8>
   18df8:	d49ff06f          	j	18b40 <sigprocmask@plt+0x5ae0>
   18dfc:	fc010113          	addi	sp,sp,-64
   18e00:	02113c23          	sd	ra,56(sp)
   18e04:	02813823          	sd	s0,48(sp)
   18e08:	02913423          	sd	s1,40(sp)
   18e0c:	03213023          	sd	s2,32(sp)
   18e10:	01313c23          	sd	s3,24(sp)
   18e14:	01413823          	sd	s4,16(sp)
   18e18:	01513423          	sd	s5,8(sp)
   18e1c:	01613023          	sd	s6,0(sp)
   18e20:	160010ef          	jal	ra,19f80 <sigprocmask@plt+0x6f20>
   18e24:	00d00793          	li	a5,13
   18e28:	0cf51a63          	bne	a0,a5,18efc <sigprocmask@plt+0x5e9c>
   18e2c:	00300713          	li	a4,3
   18e30:	d8e1a223          	sw	a4,-636(gp)
   18e34:	00100993          	li	s3,1
   18e38:	901ff0ef          	jal	ra,18738 <sigprocmask@plt+0x56d8>
   18e3c:	00050493          	mv	s1,a0
   18e40:	140010ef          	jal	ra,19f80 <sigprocmask@plt+0x6f20>
   18e44:	00800793          	li	a5,8
   18e48:	06f51263          	bne	a0,a5,18eac <sigprocmask@plt+0x5e4c>
   18e4c:	01000513          	li	a0,16
   18e50:	9e9fd0ef          	jal	ra,16838 <sigprocmask@plt+0x37d8>
   18e54:	00100793          	li	a5,1
   18e58:	00050913          	mv	s2,a0
   18e5c:	00f52023          	sw	a5,0(a0)
   18e60:	01000513          	li	a0,16
   18e64:	9d5fd0ef          	jal	ra,16838 <sigprocmask@plt+0x37d8>
   18e68:	00a93423          	sd	a0,8(s2)
   18e6c:	00953423          	sd	s1,8(a0)
   18e70:	00050413          	mv	s0,a0
   18e74:	00700b13          	li	s6,7
   18e78:	00800493          	li	s1,8
   18e7c:	01000513          	li	a0,16
   18e80:	9b9fd0ef          	jal	ra,16838 <sigprocmask@plt+0x37d8>
   18e84:	00040a13          	mv	s4,s0
   18e88:	d961a223          	sw	s6,-636(gp)
   18e8c:	00050413          	mv	s0,a0
   18e90:	8a9ff0ef          	jal	ra,18738 <sigprocmask@plt+0x56d8>
   18e94:	00a43423          	sd	a0,8(s0)
   18e98:	008a3023          	sd	s0,0(s4)
   18e9c:	0e4010ef          	jal	ra,19f80 <sigprocmask@plt+0x6f20>
   18ea0:	fc950ee3          	beq	a0,s1,18e7c <sigprocmask@plt+0x5e1c>
   18ea4:	00043023          	sd	zero,0(s0)
   18ea8:	00090493          	mv	s1,s2
   18eac:	00100713          	li	a4,1
   18eb0:	dae1aa23          	sw	a4,-588(gp)
   18eb4:	00098e63          	beqz	s3,18ed0 <sigprocmask@plt+0x5e70>
   18eb8:	01000513          	li	a0,16
   18ebc:	97dfd0ef          	jal	ra,16838 <sigprocmask@plt+0x37d8>
   18ec0:	01a00793          	li	a5,26
   18ec4:	00953423          	sd	s1,8(a0)
   18ec8:	00f52023          	sw	a5,0(a0)
   18ecc:	00050493          	mv	s1,a0
   18ed0:	03813083          	ld	ra,56(sp)
   18ed4:	03013403          	ld	s0,48(sp)
   18ed8:	02013903          	ld	s2,32(sp)
   18edc:	01813983          	ld	s3,24(sp)
   18ee0:	01013a03          	ld	s4,16(sp)
   18ee4:	00813a83          	ld	s5,8(sp)
   18ee8:	00013b03          	ld	s6,0(sp)
   18eec:	00048513          	mv	a0,s1
   18ef0:	02813483          	ld	s1,40(sp)
   18ef4:	04010113          	addi	sp,sp,64
   18ef8:	00008067          	ret
   18efc:	00100713          	li	a4,1
   18f00:	dae1aa23          	sw	a4,-588(gp)
   18f04:	00000993          	li	s3,0
   18f08:	f31ff06f          	j	18e38 <sigprocmask@plt+0x5dd8>
   18f0c:	f8010113          	addi	sp,sp,-128
   18f10:	05613023          	sd	s6,64(sp)
   18f14:	111fab37          	lui	s6,0x111fa
   18f18:	06913423          	sd	s1,104(sp)
   18f1c:	07213023          	sd	s2,96(sp)
   18f20:	05513423          	sd	s5,72(sp)
   18f24:	03713c23          	sd	s7,56(sp)
   18f28:	03813823          	sd	s8,48(sp)
   18f2c:	03913423          	sd	s9,40(sp)
   18f30:	06113c23          	sd	ra,120(sp)
   18f34:	06813823          	sd	s0,112(sp)
   18f38:	05313c23          	sd	s3,88(sp)
   18f3c:	05413823          	sd	s4,80(sp)
   18f40:	03a13023          	sd	s10,32(sp)
   18f44:	01b13c23          	sd	s11,24(sp)
   18f48:	00050913          	mv	s2,a0
   18f4c:	00000493          	li	s1,0
   18f50:	00700a93          	li	s5,7
   18f54:	c01b0b1b          	addiw	s6,s6,-1023
   18f58:	00500c93          	li	s9,5
   18f5c:	024010ef          	jal	ra,19f80 <sigprocmask@plt+0x6f20>
   18f60:	04050c63          	beqz	a0,18fb8 <sigprocmask@plt+0x5f58>
   18f64:	00100793          	li	a5,1
   18f68:	06f51c63          	bne	a0,a5,18fe0 <sigprocmask@plt+0x5f80>
   18f6c:	00197793          	andi	a5,s2,1
   18f70:	06078863          	beqz	a5,18fe0 <sigprocmask@plt+0x5f80>
   18f74:	739000ef          	jal	ra,19eac <sigprocmask@plt+0x6e4c>
   18f78:	07813083          	ld	ra,120(sp)
   18f7c:	07013403          	ld	s0,112(sp)
   18f80:	06013903          	ld	s2,96(sp)
   18f84:	05813983          	ld	s3,88(sp)
   18f88:	05013a03          	ld	s4,80(sp)
   18f8c:	04813a83          	ld	s5,72(sp)
   18f90:	04013b03          	ld	s6,64(sp)
   18f94:	03813b83          	ld	s7,56(sp)
   18f98:	03013c03          	ld	s8,48(sp)
   18f9c:	02813c83          	ld	s9,40(sp)
   18fa0:	02013d03          	ld	s10,32(sp)
   18fa4:	01813d83          	ld	s11,24(sp)
   18fa8:	00048513          	mv	a0,s1
   18fac:	06813483          	ld	s1,104(sp)
   18fb0:	08010113          	addi	sp,sp,128
   18fb4:	00008067          	ret
   18fb8:	00049663          	bnez	s1,18fc4 <sigprocmask@plt+0x5f64>
   18fbc:	00197493          	andi	s1,s2,1
   18fc0:	409004b3          	neg	s1,s1
   18fc4:	6e9000ef          	jal	ra,19eac <sigprocmask@plt+0x6e4c>
   18fc8:	db418793          	addi	a5,gp,-588
   18fcc:	0007a703          	lw	a4,0(a5)
   18fd0:	0017071b          	addiw	a4,a4,1
   18fd4:	00e7a023          	sw	a4,0(a5)
   18fd8:	d801ae23          	sw	zero,-612(gp)
   18fdc:	f9dff06f          	j	18f78 <sigprocmask@plt+0x5f18>
   18fe0:	db418713          	addi	a4,gp,-588
   18fe4:	00072783          	lw	a5,0(a4)
   18fe8:	d951a223          	sw	s5,-636(gp)
   18fec:	db418a13          	addi	s4,gp,-588
   18ff0:	0017879b          	addiw	a5,a5,1
   18ff4:	00f72023          	sw	a5,0(a4)
   18ff8:	00200793          	li	a5,2
   18ffc:	d8418993          	addi	s3,gp,-636
   19000:	06f90463          	beq	s2,a5,19068 <sigprocmask@plt+0x6008>
   19004:	df9ff0ef          	jal	ra,18dfc <sigprocmask@plt+0x5d9c>
   19008:	00050413          	mv	s0,a0
   1900c:	00600d13          	li	s10,6
   19010:	771000ef          	jal	ra,19f80 <sigprocmask@plt+0x6f20>
   19014:	07a50863          	beq	a0,s10,19084 <sigprocmask@plt+0x6024>
   19018:	0b550063          	beq	a0,s5,190b8 <sigprocmask@plt+0x6058>
   1901c:	00100d13          	li	s10,1
   19020:	01aa2023          	sw	s10,0(s4)
   19024:	75d000ef          	jal	ra,19f80 <sigprocmask@plt+0x6f20>
   19028:	00050993          	mv	s3,a0
   1902c:	09950a63          	beq	a0,s9,190c0 <sigprocmask@plt+0x6060>
   19030:	00048e63          	beqz	s1,1904c <sigprocmask@plt+0x5fec>
   19034:	01800513          	li	a0,24
   19038:	801fd0ef          	jal	ra,16838 <sigprocmask@plt+0x37d8>
   1903c:	00853823          	sd	s0,16(a0)
   19040:	01552023          	sw	s5,0(a0)
   19044:	00953423          	sd	s1,8(a0)
   19048:	00050413          	mv	s0,a0
   1904c:	00100793          	li	a5,1
   19050:	0b37c463          	blt	a5,s3,190f8 <sigprocmask@plt+0x6098>
   19054:	0a09dc63          	bgez	s3,1910c <sigprocmask@plt+0x60ac>
   19058:	00197913          	andi	s2,s2,1
   1905c:	0a090c63          	beqz	s2,19114 <sigprocmask@plt+0x60b4>
   19060:	fff00513          	li	a0,-1
   19064:	e24ff0ef          	jal	ra,18688 <sigprocmask@plt+0x5628>
   19068:	719000ef          	jal	ra,19f80 <sigprocmask@plt+0x6f20>
   1906c:	00100793          	li	a5,1
   19070:	40ab553b          	sraw	a0,s6,a0
   19074:	00fa2023          	sw	a5,0(s4)
   19078:	00157513          	andi	a0,a0,1
   1907c:	ee051ee3          	bnez	a0,18f78 <sigprocmask@plt+0x5f18>
   19080:	f85ff06f          	j	19004 <sigprocmask@plt+0x5fa4>
   19084:	00500793          	li	a5,5
   19088:	00f13423          	sd	a5,8(sp)
   1908c:	0159a023          	sw	s5,0(s3)
   19090:	d6dff0ef          	jal	ra,18dfc <sigprocmask@plt+0x5d9c>
   19094:	00050d93          	mv	s11,a0
   19098:	01800513          	li	a0,24
   1909c:	f9cfd0ef          	jal	ra,16838 <sigprocmask@plt+0x37d8>
   190a0:	00813783          	ld	a5,8(sp)
   190a4:	00853423          	sd	s0,8(a0)
   190a8:	01b53823          	sd	s11,16(a0)
   190ac:	00f52023          	sw	a5,0(a0)
   190b0:	00050413          	mv	s0,a0
   190b4:	f5dff06f          	j	19010 <sigprocmask@plt+0x5fb0>
   190b8:	00600793          	li	a5,6
   190bc:	fcdff06f          	j	19088 <sigprocmask@plt+0x6028>
   190c0:	00042783          	lw	a5,0(s0)
   190c4:	01a79863          	bne	a5,s10,190d4 <sigprocmask@plt+0x6074>
   190c8:	00f42223          	sw	a5,4(s0)
   190cc:	02048a63          	beqz	s1,19100 <sigprocmask@plt+0x60a0>
   190d0:	f65ff06f          	j	19034 <sigprocmask@plt+0x5fd4>
   190d4:	00200713          	li	a4,2
   190d8:	00e78a63          	beq	a5,a4,190ec <sigprocmask@plt+0x608c>
   190dc:	01800513          	li	a0,24
   190e0:	f58fd0ef          	jal	ra,16838 <sigprocmask@plt+0x37d8>
   190e4:	00853423          	sd	s0,8(a0)
   190e8:	00050413          	mv	s0,a0
   190ec:	00300793          	li	a5,3
   190f0:	00f42023          	sw	a5,0(s0)
   190f4:	fd9ff06f          	j	190cc <sigprocmask@plt+0x606c>
   190f8:	ffc9899b          	addiw	s3,s3,-4
   190fc:	f537eee3          	bltu	a5,s3,19058 <sigprocmask@plt+0x5ff8>
   19100:	00296913          	ori	s2,s2,2
   19104:	00040493          	mv	s1,s0
   19108:	e55ff06f          	j	18f5c <sigprocmask@plt+0x5efc>
   1910c:	00fa2023          	sw	a5,0(s4)
   19110:	ff1ff06f          	j	19100 <sigprocmask@plt+0x60a0>
   19114:	00100793          	li	a5,1
   19118:	00fa2023          	sw	a5,0(s4)
   1911c:	00040493          	mv	s1,s0
   19120:	e59ff06f          	j	18f78 <sigprocmask@plt+0x5f18>
   19124:	f2010113          	addi	sp,sp,-224
   19128:	0c813823          	sd	s0,208(sp)
   1912c:	0d213023          	sd	s2,192(sp)
   19130:	0e010413          	addi	s0,sp,224
   19134:	09913423          	sd	s9,136(sp)
   19138:	0c113c23          	sd	ra,216(sp)
   1913c:	0c913423          	sd	s1,200(sp)
   19140:	0b313c23          	sd	s3,184(sp)
   19144:	0b413823          	sd	s4,176(sp)
   19148:	0b513423          	sd	s5,168(sp)
   1914c:	0b613023          	sd	s6,160(sp)
   19150:	09713c23          	sd	s7,152(sp)
   19154:	09813823          	sd	s8,144(sp)
   19158:	09a13023          	sd	s10,128(sp)
   1915c:	07b13c23          	sd	s11,120(sp)
   19160:	f6043423          	sd	zero,-152(s0)
   19164:	f4d43023          	sd	a3,-192(s0)
   19168:	f6043823          	sd	zero,-144(s0)
   1916c:	f6043c23          	sd	zero,-136(s0)
   19170:	f8043023          	sd	zero,-128(s0)
   19174:	f8043423          	sd	zero,-120(s0)
   19178:	f6b42423          	sw	a1,-152(s0)
   1917c:	00100793          	li	a5,1
   19180:	00050c93          	mv	s9,a0
   19184:	00060913          	mv	s2,a2
   19188:	00f59863          	bne	a1,a5,19198 <sigprocmask@plt+0x6138>
   1918c:	f6c44783          	lbu	a5,-148(s0)
   19190:	0047e793          	ori	a5,a5,4
   19194:	f6f40623          	sb	a5,-148(s0)
   19198:	d681b783          	ld	a5,-664(gp)
   1919c:	d601b983          	ld	s3,-672(gp)
   191a0:	f4f43c23          	sd	a5,-168(s0)
   191a4:	000257b7          	lui	a5,0x25
   191a8:	da478793          	addi	a5,a5,-604 # 24da4 <sigprocmask@plt+0x11d44>
   191ac:	f2f43c23          	sd	a5,-200(s0)
   191b0:	f5843783          	ld	a5,-168(s0)
   191b4:	0089bd03          	ld	s10,8(s3)
   191b8:	f6043023          	sd	zero,-160(s0)
   191bc:	05478793          	addi	a5,a5,84
   191c0:	f6840493          	addi	s1,s0,-152
   191c4:	00000a93          	li	s5,0
   191c8:	f2f43023          	sd	a5,-224(s0)
   191cc:	00100793          	li	a5,1
   191d0:	4527e863          	bltu	a5,s2,19620 <sigprocmask@plt+0x65c0>
   191d4:	000257b7          	lui	a5,0x25
   191d8:	f8178793          	addi	a5,a5,-127 # 24f81 <sigprocmask@plt+0x11f21>
   191dc:	f2f43823          	sd	a5,-208(s0)
   191e0:	000257b7          	lui	a5,0x25
   191e4:	b3c78793          	addi	a5,a5,-1220 # 24b3c <sigprocmask@plt+0x11adc>
   191e8:	f2f43423          	sd	a5,-216(s0)
   191ec:	0f40006f          	j	192e0 <sigprocmask@plt+0x6280>
   191f0:	00069663          	bnez	a3,191fc <sigprocmask@plt+0x619c>
   191f4:	0084a783          	lw	a5,8(s1)
   191f8:	2e078463          	beqz	a5,194e0 <sigprocmask@plt+0x6480>
   191fc:	019d0023          	sb	s9,0(s10)
   19200:	dadfb0ef          	jal	ra,14fac <sigprocmask@plt+0x1f4c>
   19204:	0004a703          	lw	a4,0(s1)
   19208:	00200793          	li	a5,2
   1920c:	00f71a63          	bne	a4,a5,19220 <sigprocmask@plt+0x61c0>
   19210:	d08fe0ef          	jal	ra,17718 <sigprocmask@plt+0x46b8>
   19214:	00050c93          	mv	s9,a0
   19218:	001d0d13          	addi	s10,s10,1
   1921c:	fb1ff06f          	j	191cc <sigprocmask@plt+0x616c>
   19220:	f3cfe0ef          	jal	ra,1795c <sigprocmask@plt+0x48fc>
   19224:	ff1ff06f          	j	19214 <sigprocmask@plt+0x61b4>
   19228:	00090c63          	beqz	s2,19240 <sigprocmask@plt+0x61e0>
   1922c:	0044c783          	lbu	a5,4(s1)
   19230:	0047f793          	andi	a5,a5,4
   19234:	00079663          	bnez	a5,19240 <sigprocmask@plt+0x61e0>
   19238:	0084a783          	lw	a5,8(s1)
   1923c:	00078863          	beqz	a5,1924c <sigprocmask@plt+0x61ec>
   19240:	f8100793          	li	a5,-127
   19244:	00fd0023          	sb	a5,0(s10)
   19248:	001d0d13          	addi	s10,s10,1
   1924c:	019d0023          	sb	s9,0(s10)
   19250:	12c0006f          	j	1937c <sigprocmask@plt+0x631c>
   19254:	cc4fe0ef          	jal	ra,17718 <sigprocmask@plt+0x46b8>
   19258:	10000793          	li	a5,256
   1925c:	002d0a13          	addi	s4,s10,2
   19260:	02f51063          	bne	a0,a5,19280 <sigprocmask@plt+0x6220>
   19264:	f8100793          	li	a5,-127
   19268:	00fd0023          	sb	a5,0(s10)
   1926c:	05c00793          	li	a5,92
   19270:	00fd00a3          	sb	a5,1(s10)
   19274:	d71fb0ef          	jal	ra,14fe4 <sigprocmask@plt+0x1f84>
   19278:	000a0d13          	mv	s10,s4
   1927c:	0500006f          	j	192cc <sigprocmask@plt+0x626c>
   19280:	0044c783          	lbu	a5,4(s1)
   19284:	0047f793          	andi	a5,a5,4
   19288:	02078863          	beqz	a5,192b8 <sigprocmask@plt+0x6258>
   1928c:	fa45079b          	addiw	a5,a0,-92
   19290:	ffb7f793          	andi	a5,a5,-5
   19294:	0007879b          	sext.w	a5,a5
   19298:	02078063          	beqz	a5,192b8 <sigprocmask@plt+0x6258>
   1929c:	02400793          	li	a5,36
   192a0:	00f50c63          	beq	a0,a5,192b8 <sigprocmask@plt+0x6258>
   192a4:	02200793          	li	a5,34
   192a8:	0af51063          	bne	a0,a5,19348 <sigprocmask@plt+0x62e8>
   192ac:	00090663          	beqz	s2,192b8 <sigprocmask@plt+0x6258>
   192b0:	0084a783          	lw	a5,8(s1)
   192b4:	08078e63          	beqz	a5,19350 <sigprocmask@plt+0x62f0>
   192b8:	f8100793          	li	a5,-127
   192bc:	00fd0023          	sb	a5,0(s10)
   192c0:	00ad00a3          	sb	a0,1(s10)
   192c4:	002d0d13          	addi	s10,s10,2
   192c8:	00100a93          	li	s5,1
   192cc:	0004a703          	lw	a4,0(s1)
   192d0:	00200793          	li	a5,2
   192d4:	2af71463          	bne	a4,a5,1957c <sigprocmask@plt+0x651c>
   192d8:	c40fe0ef          	jal	ra,17718 <sigprocmask@plt+0x46b8>
   192dc:	00050c93          	mv	s9,a0
   192e0:	0109b783          	ld	a5,16(s3)
   192e4:	00300713          	li	a4,3
   192e8:	41a787b3          	sub	a5,a5,s10
   192ec:	00f76a63          	bltu	a4,a5,19300 <sigprocmask@plt+0x62a0>
   192f0:	000d0593          	mv	a1,s10
   192f4:	00400513          	li	a0,4
   192f8:	fe4fd0ef          	jal	ra,16adc <sigprocmask@plt+0x3a7c>
   192fc:	00050d13          	mv	s10,a0
   19300:	f3043783          	ld	a5,-208(s0)
   19304:	f3843703          	ld	a4,-200(s0)
   19308:	0004a683          	lw	a3,0(s1)
   1930c:	019787b3          	add	a5,a5,s9
   19310:	0007c783          	lbu	a5,0(a5)
   19314:	00e00613          	li	a2,14
   19318:	00179793          	slli	a5,a5,0x1
   1931c:	00f707b3          	add	a5,a4,a5
   19320:	0007d783          	lhu	a5,0(a5)
   19324:	0026971b          	slliw	a4,a3,0x2
   19328:	40e7d7bb          	sraw	a5,a5,a4
   1932c:	00f7f713          	andi	a4,a5,15
   19330:	1ae66263          	bltu	a2,a4,194d4 <sigprocmask@plt+0x6474>
   19334:	00271793          	slli	a5,a4,0x2
   19338:	f2843703          	ld	a4,-216(s0)
   1933c:	00e787b3          	add	a5,a5,a4
   19340:	0007a783          	lw	a5,0(a5)
   19344:	00078067          	jr	a5
   19348:	07d00793          	li	a5,125
   1934c:	f6f502e3          	beq	a0,a5,192b0 <sigprocmask@plt+0x6250>
   19350:	f8100793          	li	a5,-127
   19354:	00fd0023          	sb	a5,0(s10)
   19358:	05c00793          	li	a5,92
   1935c:	00fd00a3          	sb	a5,1(s10)
   19360:	000a0d13          	mv	s10,s4
   19364:	f55ff06f          	j	192b8 <sigprocmask@plt+0x6258>
   19368:	00200793          	li	a5,2
   1936c:	00f4a023          	sw	a5,0(s1)
   19370:	f4091ee3          	bnez	s2,192cc <sigprocmask@plt+0x626c>
   19374:	f8800793          	li	a5,-120
   19378:	00fd0023          	sb	a5,0(s10)
   1937c:	001d0d13          	addi	s10,s10,1
   19380:	f4dff06f          	j	192cc <sigprocmask@plt+0x626c>
   19384:	00100793          	li	a5,1
   19388:	00f4a023          	sw	a5,0(s1)
   1938c:	0044c783          	lbu	a5,4(s1)
   19390:	0047e793          	ori	a5,a5,4
   19394:	00f48223          	sb	a5,4(s1)
   19398:	0084a783          	lw	a5,8(s1)
   1939c:	fc078ae3          	beqz	a5,19370 <sigprocmask@plt+0x6310>
   193a0:	0044e783          	lwu	a5,4(s1)
   193a4:	0017f793          	andi	a5,a5,1
   193a8:	0017c713          	xori	a4,a5,1
   193ac:	0044c783          	lbu	a5,4(s1)
   193b0:	ffe7f793          	andi	a5,a5,-2
   193b4:	00e7e7b3          	or	a5,a5,a4
   193b8:	00f48223          	sb	a5,4(s1)
   193bc:	fb5ff06f          	j	19370 <sigprocmask@plt+0x6310>
   193c0:	00090663          	beqz	s2,193cc <sigprocmask@plt+0x636c>
   193c4:	0084a783          	lw	a5,8(s1)
   193c8:	e80782e3          	beqz	a5,1924c <sigprocmask@plt+0x61ec>
   193cc:	00c4a783          	lw	a5,12(s1)
   193d0:	00079a63          	bnez	a5,193e4 <sigprocmask@plt+0x6384>
   193d4:	0044c783          	lbu	a5,4(s1)
   193d8:	0004a023          	sw	zero,0(s1)
   193dc:	ffb7f793          	andi	a5,a5,-5
   193e0:	00f48223          	sb	a5,4(s1)
   193e4:	02200793          	li	a5,34
   193e8:	00100a93          	li	s5,1
   193ec:	fafc86e3          	beq	s9,a5,19398 <sigprocmask@plt+0x6338>
   193f0:	f81ff06f          	j	19370 <sigprocmask@plt+0x6310>
   193f4:	d68fe0ef          	jal	ra,1795c <sigprocmask@plt+0x48fc>
   193f8:	d841aa03          	lw	s4,-636(gp)
   193fc:	00050d93          	mv	s11,a0
   19400:	008a7a13          	andi	s4,s4,8
   19404:	040a1c63          	bnez	s4,1945c <sigprocmask@plt+0x63fc>
   19408:	0ff00793          	li	a5,255
   1940c:	04a7c863          	blt	a5,a0,1945c <sigprocmask@plt+0x63fc>
   19410:	02800793          	li	a5,40
   19414:	42f50263          	beq	a0,a5,19838 <sigprocmask@plt+0x67d8>
   19418:	07b00793          	li	a5,123
   1941c:	4af50c63          	beq	a0,a5,198d4 <sigprocmask@plt+0x6874>
   19420:	05f00793          	li	a5,95
   19424:	4af50863          	beq	a0,a5,198d4 <sigprocmask@plt+0x6874>
   19428:	02056793          	ori	a5,a0,32
   1942c:	f9f7879b          	addiw	a5,a5,-97
   19430:	0ff7f793          	andi	a5,a5,255
   19434:	01900713          	li	a4,25
   19438:	48f77e63          	bgeu	a4,a5,198d4 <sigprocmask@plt+0x6874>
   1943c:	fdf5071b          	addiw	a4,a0,-33
   19440:	01f00793          	li	a5,31
   19444:	00e7ec63          	bltu	a5,a4,1945c <sigprocmask@plt+0x63fc>
   19448:	c1ff97b7          	lui	a5,0xc1ff9
   1944c:	20d7879b          	addiw	a5,a5,525
   19450:	00e7d7bb          	srlw	a5,a5,a4
   19454:	0017f793          	andi	a5,a5,1
   19458:	46079e63          	bnez	a5,198d4 <sigprocmask@plt+0x6874>
   1945c:	02400793          	li	a5,36
   19460:	001d0a13          	addi	s4,s10,1
   19464:	00fd0023          	sb	a5,0(s10)
   19468:	e0dff06f          	j	19274 <sigprocmask@plt+0x6214>
   1946c:	0044c703          	lbu	a4,4(s1)
   19470:	00177793          	andi	a5,a4,1
   19474:	dc079ce3          	bnez	a5,1924c <sigprocmask@plt+0x61ec>
   19478:	0084a783          	lw	a5,8(s1)
   1947c:	dcf058e3          	blez	a5,1924c <sigprocmask@plt+0x61ec>
   19480:	fff7869b          	addiw	a3,a5,-1
   19484:	00d4a423          	sw	a3,8(s1)
   19488:	00069c63          	bnez	a3,194a0 <sigprocmask@plt+0x6440>
   1948c:	00277713          	andi	a4,a4,2
   19490:	00070863          	beqz	a4,194a0 <sigprocmask@plt+0x6440>
   19494:	0204b483          	ld	s1,32(s1)
   19498:	08300c93          	li	s9,131
   1949c:	db1ff06f          	j	1924c <sigprocmask@plt+0x61ec>
   194a0:	00c4a783          	lw	a5,12(s1)
   194a4:	08300c93          	li	s9,131
   194a8:	daf052e3          	blez	a5,1924c <sigprocmask@plt+0x61ec>
   194ac:	fff7879b          	addiw	a5,a5,-1
   194b0:	00f4a623          	sw	a5,12(s1)
   194b4:	d99ff06f          	j	1924c <sigprocmask@plt+0x61ec>
   194b8:	d841a783          	lw	a5,-636(gp)
   194bc:	0087f793          	andi	a5,a5,8
   194c0:	72078463          	beqz	a5,19be8 <sigprocmask@plt+0x6b88>
   194c4:	06000793          	li	a5,96
   194c8:	00fd0023          	sb	a5,0(s10)
   194cc:	001d0d13          	addi	s10,s10,1
   194d0:	df9ff06f          	j	192c8 <sigprocmask@plt+0x6268>
   194d4:	0084a783          	lw	a5,8(s1)
   194d8:	d6079ae3          	bnez	a5,1924c <sigprocmask@plt+0x61ec>
   194dc:	0a069663          	bnez	a3,19588 <sigprocmask@plt+0x6528>
   194e0:	d601b783          	ld	a5,-672(gp)
   194e4:	000d0023          	sb	zero,0(s10)
   194e8:	0087b483          	ld	s1,8(a5) # ffffffffc1ff9008 <optind+0xffffffffc1fd1a38>
   194ec:	0c091663          	bnez	s2,195b8 <sigprocmask@plt+0x6558>
   194f0:	ffdcf793          	andi	a5,s9,-3
   194f4:	0007879b          	sext.w	a5,a5
   194f8:	03c00713          	li	a4,60
   194fc:	0ae79c63          	bne	a5,a4,195b4 <sigprocmask@plt+0x6554>
   19500:	0a0a9a63          	bnez	s5,195b4 <sigprocmask@plt+0x6554>
   19504:	00948593          	addi	a1,s1,9
   19508:	00048793          	mv	a5,s1
   1950c:	00900613          	li	a2,9
   19510:	0007c683          	lbu	a3,0(a5)
   19514:	00f58863          	beq	a1,a5,19524 <sigprocmask@plt+0x64c4>
   19518:	fd06871b          	addiw	a4,a3,-48
   1951c:	0ff77713          	andi	a4,a4,255
   19520:	08e67663          	bgeu	a2,a4,195ac <sigprocmask@plt+0x654c>
   19524:	08069863          	bnez	a3,195b4 <sigprocmask@plt+0x6554>
   19528:	0004c783          	lbu	a5,0(s1)
   1952c:	fff00993          	li	s3,-1
   19530:	00078863          	beqz	a5,19540 <sigprocmask@plt+0x64e0>
   19534:	00048513          	mv	a0,s1
   19538:	9d9f90ef          	jal	ra,12f10 <atoi@plt>
   1953c:	00050993          	mv	s3,a0
   19540:	02800513          	li	a0,40
   19544:	af4fd0ef          	jal	ra,16838 <sigprocmask@plt+0x37d8>
   19548:	03e00913          	li	s2,62
   1954c:	00050493          	mv	s1,a0
   19550:	252c9c63          	bne	s9,s2,197a8 <sigprocmask@plt+0x6748>
   19554:	00100793          	li	a5,1
   19558:	00f52823          	sw	a5,16(a0)
   1955c:	c00fe0ef          	jal	ra,1795c <sigprocmask@plt+0x48fc>
   19560:	01500793          	li	a5,21
   19564:	01950863          	beq	a0,s9,19574 <sigprocmask@plt+0x6514>
   19568:	07c00793          	li	a5,124
   1956c:	20f51e63          	bne	a0,a5,19788 <sigprocmask@plt+0x6728>
   19570:	01200793          	li	a5,18
   19574:	00f4a023          	sw	a5,0(s1)
   19578:	28c0006f          	j	19804 <sigprocmask@plt+0x67a4>
   1957c:	be0fe0ef          	jal	ra,1795c <sigprocmask@plt+0x48fc>
   19580:	d5dff06f          	j	192dc <sigprocmask@plt+0x627c>
   19584:	00068a63          	beqz	a3,19598 <sigprocmask@plt+0x6538>
   19588:	00091863          	bnez	s2,19598 <sigprocmask@plt+0x6538>
   1958c:	00024537          	lui	a0,0x24
   19590:	e5050513          	addi	a0,a0,-432 # 23e50 <sigprocmask@plt+0x10df0>
   19594:	c15fd0ef          	jal	ra,171a8 <sigprocmask@plt+0x4148>
   19598:	0084a783          	lw	a5,8(s1)
   1959c:	f40782e3          	beqz	a5,194e0 <sigprocmask@plt+0x6480>
   195a0:	00024537          	lui	a0,0x24
   195a4:	e7050513          	addi	a0,a0,-400 # 23e70 <sigprocmask@plt+0x10e10>
   195a8:	fedff06f          	j	19594 <sigprocmask@plt+0x6534>
   195ac:	00178793          	addi	a5,a5,1
   195b0:	f61ff06f          	j	19510 <sigprocmask@plt+0x64b0>
   195b4:	a31fb0ef          	jal	ra,14fe4 <sigprocmask@plt+0x1f84>
   195b8:	f6043703          	ld	a4,-160(s0)
   195bc:	001d0513          	addi	a0,s10,1
   195c0:	db51a623          	sw	s5,-596(gp)
   195c4:	40950533          	sub	a0,a0,s1
   195c8:	cce1b023          	sd	a4,-832(gp)
   195cc:	93cfd0ef          	jal	ra,16708 <sigprocmask@plt+0x36a8>
   195d0:	d491bc23          	sd	s1,-680(gp)
   195d4:	00300713          	li	a4,3
   195d8:	d8e1ae23          	sw	a4,-612(gp)
   195dc:	00300513          	li	a0,3
   195e0:	f2040113          	addi	sp,s0,-224
   195e4:	0d813083          	ld	ra,216(sp)
   195e8:	0d013403          	ld	s0,208(sp)
   195ec:	0c813483          	ld	s1,200(sp)
   195f0:	0c013903          	ld	s2,192(sp)
   195f4:	0b813983          	ld	s3,184(sp)
   195f8:	0b013a03          	ld	s4,176(sp)
   195fc:	0a813a83          	ld	s5,168(sp)
   19600:	0a013b03          	ld	s6,160(sp)
   19604:	09813b83          	ld	s7,152(sp)
   19608:	09013c03          	ld	s8,144(sp)
   1960c:	08813c83          	ld	s9,136(sp)
   19610:	08013d03          	ld	s10,128(sp)
   19614:	07813d83          	ld	s11,120(sp)
   19618:	0e010113          	addi	sp,sp,224
   1961c:	00008067          	ret
   19620:	f4043783          	ld	a5,-192(s0)
   19624:	00900a13          	li	s4,9
   19628:	06079463          	bnez	a5,19690 <sigprocmask@plt+0x6630>
   1962c:	0089ba03          	ld	s4,8(s3)
   19630:	00090b13          	mv	s6,s2
   19634:	414d0a3b          	subw	s4,s10,s4
   19638:	000d0593          	mv	a1,s10
   1963c:	000c8513          	mv	a0,s9
   19640:	961fd0ef          	jal	ra,16fa0 <sigprocmask@plt+0x3f40>
   19644:	000b4783          	lbu	a5,0(s6) # 111fa000 <optind+0x111d2a30>
   19648:	00050d13          	mv	s10,a0
   1964c:	04079663          	bnez	a5,19698 <sigprocmask@plt+0x6638>
   19650:	00a00793          	li	a5,10
   19654:	00fc8663          	beq	s9,a5,19660 <sigprocmask@plt+0x6600>
   19658:	10000793          	li	a5,256
   1965c:	04fc9863          	bne	s9,a5,196ac <sigprocmask@plt+0x664c>
   19660:	c781b703          	ld	a4,-904(gp)
   19664:	10000c93          	li	s9,256
   19668:	00872783          	lw	a5,8(a4)
   1966c:	0017879b          	addiw	a5,a5,1
   19670:	00f72423          	sw	a5,8(a4)
   19674:	d8c1a703          	lw	a4,-628(gp)
   19678:	dae1a223          	sw	a4,-604(gp)
   1967c:	0089b503          	ld	a0,8(s3)
   19680:	01450d33          	add	s10,a0,s4
   19684:	b51ff06f          	j	191d4 <sigprocmask@plt+0x6174>
   19688:	890fe0ef          	jal	ra,17718 <sigprocmask@plt+0x46b8>
   1968c:	00050c93          	mv	s9,a0
   19690:	ff4c8ce3          	beq	s9,s4,19688 <sigprocmask@plt+0x6628>
   19694:	f99ff06f          	j	1962c <sigprocmask@plt+0x65cc>
   19698:	01979a63          	bne	a5,s9,196ac <sigprocmask@plt+0x664c>
   1969c:	87cfe0ef          	jal	ra,17718 <sigprocmask@plt+0x46b8>
   196a0:	00050c93          	mv	s9,a0
   196a4:	001b0b13          	addi	s6,s6,1
   196a8:	f91ff06f          	j	19638 <sigprocmask@plt+0x65d8>
   196ac:	0089b783          	ld	a5,8(s3)
   196b0:	001a0593          	addi	a1,s4,1
   196b4:	00b785b3          	add	a1,a5,a1
   196b8:	40bd0d3b          	subw	s10,s10,a1
   196bc:	fc0d00e3          	beqz	s10,1967c <sigprocmask@plt+0x661c>
   196c0:	0ff00513          	li	a0,255
   196c4:	01952533          	slt	a0,a0,s9
   196c8:	40ad0b3b          	subw	s6,s10,a0
   196cc:	fff5cc83          	lbu	s9,-1(a1)
   196d0:	fa0b06e3          	beqz	s6,1967c <sigprocmask@plt+0x661c>
   196d4:	001b0d1b          	addiw	s10,s6,1
   196d8:	00fd0d13          	addi	s10,s10,15
   196dc:	ff0d7d13          	andi	s10,s10,-16
   196e0:	41a10133          	sub	sp,sp,s10
   196e4:	00010c13          	mv	s8,sp
   196e8:	000b0613          	mv	a2,s6
   196ec:	000c0513          	mv	a0,s8
   196f0:	b20f90ef          	jal	ra,12a10 <memcpy@plt>
   196f4:	01650533          	add	a0,a0,s6
   196f8:	00050023          	sb	zero,0(a0)
   196fc:	000c0513          	mv	a0,s8
   19700:	871f90ef          	jal	ra,12f70 <strlen@plt>
   19704:	f5843783          	ld	a5,-168(s0)
   19708:	f5843703          	ld	a4,-168(s0)
   1970c:	00050b13          	mv	s6,a0
   19710:	0407a783          	lw	a5,64(a5)
   19714:	0017879b          	addiw	a5,a5,1
   19718:	04f72023          	sw	a5,64(a4)
   1971c:	c781b503          	ld	a0,-904(gp)
   19720:	c7818d13          	addi	s10,gp,-904
   19724:	02853783          	ld	a5,40(a0)
   19728:	03050513          	addi	a0,a0,48
   1972c:	00078c63          	beqz	a5,19744 <sigprocmask@plt+0x66e4>
   19730:	03000513          	li	a0,48
   19734:	e39fa0ef          	jal	ra,1456c <sigprocmask@plt+0x150c>
   19738:	000d3783          	ld	a5,0(s10)
   1973c:	0287b783          	ld	a5,40(a5)
   19740:	00f53023          	sd	a5,0(a0)
   19744:	000d3d03          	ld	s10,0(s10)
   19748:	00800613          	li	a2,8
   1974c:	018d3783          	ld	a5,24(s10)
   19750:	02ad3423          	sd	a0,40(s10)
   19754:	060d0593          	addi	a1,s10,96
   19758:	00f53423          	sd	a5,8(a0)
   1975c:	010d2783          	lw	a5,16(s10)
   19760:	02050513          	addi	a0,a0,32
   19764:	fef52823          	sw	a5,-16(a0)
   19768:	068d2783          	lw	a5,104(s10)
   1976c:	00f52423          	sw	a5,8(a0)
   19770:	aa0f90ef          	jal	ra,12a10 <memcpy@plt>
   19774:	018d3c23          	sd	s8,24(s10)
   19778:	016d2823          	sw	s6,16(s10)
   1977c:	060d2423          	sw	zero,104(s10)
   19780:	988fc0ef          	jal	ra,15908 <sigprocmask@plt+0x28a8>
   19784:	ef9ff06f          	j	1967c <sigprocmask@plt+0x661c>
   19788:	02600793          	li	a5,38
   1978c:	00f51663          	bne	a0,a5,19798 <sigprocmask@plt+0x6738>
   19790:	01600793          	li	a5,22
   19794:	de1ff06f          	j	19574 <sigprocmask@plt+0x6514>
   19798:	01000793          	li	a5,16
   1979c:	00f4a023          	sw	a5,0(s1)
   197a0:	845fb0ef          	jal	ra,14fe4 <sigprocmask@plt+0x1f84>
   197a4:	0600006f          	j	19804 <sigprocmask@plt+0x67a4>
   197a8:	9b4fe0ef          	jal	ra,1795c <sigprocmask@plt+0x48fc>
   197ac:	07250e63          	beq	a0,s2,19828 <sigprocmask@plt+0x67c8>
   197b0:	08a94063          	blt	s2,a0,19830 <sigprocmask@plt+0x67d0>
   197b4:	02600793          	li	a5,38
   197b8:	06f50463          	beq	a0,a5,19820 <sigprocmask@plt+0x67c0>
   197bc:	03c00793          	li	a5,60
   197c0:	06f51863          	bne	a0,a5,19830 <sigprocmask@plt+0x67d0>
   197c4:	02000513          	li	a0,32
   197c8:	870fd0ef          	jal	ra,16838 <sigprocmask@plt+0x37d8>
   197cc:	01800793          	li	a5,24
   197d0:	00f52023          	sw	a5,0(a0)
   197d4:	00050493          	mv	s1,a0
   197d8:	02000513          	li	a0,32
   197dc:	85cfd0ef          	jal	ra,16838 <sigprocmask@plt+0x37d8>
   197e0:	d0018913          	addi	s2,gp,-768
   197e4:	00953423          	sd	s1,8(a0)
   197e8:	00a93023          	sd	a0,0(s2)
   197ec:	970fe0ef          	jal	ra,1795c <sigprocmask@plt+0x48fc>
   197f0:	02d00793          	li	a5,45
   197f4:	faf516e3          	bne	a0,a5,197a0 <sigprocmask@plt+0x6740>
   197f8:	00093783          	ld	a5,0(s2)
   197fc:	00100713          	li	a4,1
   19800:	00e7ac23          	sw	a4,24(a5)
   19804:	0009c463          	bltz	s3,1980c <sigprocmask@plt+0x67ac>
   19808:	0134a823          	sw	s3,16(s1)
   1980c:	d491b823          	sd	s1,-688(gp)
   19810:	00200713          	li	a4,2
   19814:	d8e1ae23          	sw	a4,-612(gp)
   19818:	00200513          	li	a0,2
   1981c:	dc5ff06f          	j	195e0 <sigprocmask@plt+0x6580>
   19820:	01700793          	li	a5,23
   19824:	d51ff06f          	j	19574 <sigprocmask@plt+0x6514>
   19828:	01400793          	li	a5,20
   1982c:	d49ff06f          	j	19574 <sigprocmask@plt+0x6514>
   19830:	01300793          	li	a5,19
   19834:	f69ff06f          	j	1979c <sigprocmask@plt+0x673c>
   19838:	924fe0ef          	jal	ra,1795c <sigprocmask@plt+0x48fc>
   1983c:	01b51863          	bne	a0,s11,1984c <sigprocmask@plt+0x67ec>
   19840:	00024537          	lui	a0,0x24
   19844:	e8050513          	addi	a0,a0,-384 # 23e80 <sigprocmask@plt+0x10e20>
   19848:	d4dff06f          	j	19594 <sigprocmask@plt+0x6534>
   1984c:	f98fb0ef          	jal	ra,14fe4 <sigprocmask@plt+0x1f84>
   19850:	0089bd83          	ld	s11,8(s3)
   19854:	00000c13          	li	s8,0
   19858:	41bd0b33          	sub	s6,s10,s11
   1985c:	03bd0263          	beq	s10,s11,19880 <sigprocmask@plt+0x6820>
   19860:	00fb0793          	addi	a5,s6,15
   19864:	ff07f793          	andi	a5,a5,-16
   19868:	40f10133          	sub	sp,sp,a5
   1986c:	00010c13          	mv	s8,sp
   19870:	000b0613          	mv	a2,s6
   19874:	000d8593          	mv	a1,s11
   19878:	000c0513          	mv	a0,s8
   1987c:	994f90ef          	jal	ra,12a10 <memcpy@plt>
   19880:	380a0263          	beqz	s4,19c04 <sigprocmask@plt+0x6ba4>
   19884:	06000c93          	li	s9,96
   19888:	da41a503          	lw	a0,-604(gp)
   1988c:	00200593          	li	a1,2
   19890:	e28fb0ef          	jal	ra,14eb8 <sigprocmask@plt+0x1e58>
   19894:	8c8fe0ef          	jal	ra,1795c <sigprocmask@plt+0x48fc>
   19898:	10000793          	li	a5,256
   1989c:	00050d13          	mv	s10,a0
   198a0:	44f50a63          	beq	a0,a5,19cf4 <sigprocmask@plt+0x6c94>
   198a4:	00a7ce63          	blt	a5,a0,198c0 <sigprocmask@plt+0x6860>
   198a8:	35950463          	beq	a0,s9,19bf0 <sigprocmask@plt+0x6b90>
   198ac:	00acca63          	blt	s9,a0,198c0 <sigprocmask@plt+0x6860>
   198b0:	00a00793          	li	a5,10
   198b4:	44f50663          	beq	a0,a5,19d00 <sigprocmask@plt+0x6ca0>
   198b8:	05c00793          	li	a5,92
   198bc:	3ef50863          	beq	a0,a5,19cac <sigprocmask@plt+0x6c4c>
   198c0:	000d8593          	mv	a1,s11
   198c4:	000d0513          	mv	a0,s10
   198c8:	ed8fd0ef          	jal	ra,16fa0 <sigprocmask@plt+0x3f40>
   198cc:	00050d93          	mv	s11,a0
   198d0:	fb9ff06f          	j	19888 <sigprocmask@plt+0x6828>
   198d4:	0004a783          	lw	a5,0(s1)
   198d8:	07b00713          	li	a4,123
   198dc:	00100c13          	li	s8,1
   198e0:	f4f43423          	sd	a5,-184(s0)
   198e4:	f8200793          	li	a5,-126
   198e8:	00fd0023          	sb	a5,0(s10)
   198ec:	0089b783          	ld	a5,8(s3)
   198f0:	f4f43823          	sd	a5,-176(s0)
   198f4:	00ed9863          	bne	s11,a4,19904 <sigprocmask@plt+0x68a4>
   198f8:	864fe0ef          	jal	ra,1795c <sigprocmask@plt+0x48fc>
   198fc:	00050d93          	mv	s11,a0
   19900:	00000c13          	li	s8,0
   19904:	002d0a13          	addi	s4,s10,2
   19908:	05f00593          	li	a1,95
   1990c:	01900613          	li	a2,25
   19910:	00900813          	li	a6,9
   19914:	07d00b13          	li	s6,125
   19918:	00bd8c63          	beq	s11,a1,19930 <sigprocmask@plt+0x68d0>
   1991c:	0ffdf713          	andi	a4,s11,255
   19920:	02076693          	ori	a3,a4,32
   19924:	f9f6869b          	addiw	a3,a3,-97
   19928:	0ff6f693          	andi	a3,a3,255
   1992c:	06d66e63          	bltu	a2,a3,199a8 <sigprocmask@plt+0x6948>
   19930:	05f00c93          	li	s9,95
   19934:	01900b13          	li	s6,25
   19938:	000a0593          	mv	a1,s4
   1993c:	000d8513          	mv	a0,s11
   19940:	e60fd0ef          	jal	ra,16fa0 <sigprocmask@plt+0x3f40>
   19944:	00050a13          	mv	s4,a0
   19948:	814fe0ef          	jal	ra,1795c <sigprocmask@plt+0x48fc>
   1994c:	00050d93          	mv	s11,a0
   19950:	00900813          	li	a6,9
   19954:	ff9502e3          	beq	a0,s9,19938 <sigprocmask@plt+0x68d8>
   19958:	0ff57713          	andi	a4,a0,255
   1995c:	fd07069b          	addiw	a3,a4,-48
   19960:	0ff6f693          	andi	a3,a3,255
   19964:	fcd87ae3          	bgeu	a6,a3,19938 <sigprocmask@plt+0x68d8>
   19968:	02076713          	ori	a4,a4,32
   1996c:	f9f7071b          	addiw	a4,a4,-97
   19970:	0ff77713          	andi	a4,a4,255
   19974:	fceb72e3          	bgeu	s6,a4,19938 <sigprocmask@plt+0x68d8>
   19978:	07d00713          	li	a4,125
   1997c:	3ced8463          	beq	s11,a4,19d44 <sigprocmask@plt+0x6ce4>
   19980:	00a00713          	li	a4,10
   19984:	12ec1863          	bne	s8,a4,19ab4 <sigprocmask@plt+0x6a54>
   19988:	00a00c13          	li	s8,10
   1998c:	1000006f          	j	19a8c <sigprocmask@plt+0x6a2c>
   19990:	00a00c13          	li	s8,10
   19994:	000c8d93          	mv	s11,s9
   19998:	f81ff06f          	j	19918 <sigprocmask@plt+0x68b8>
   1999c:	05f00d93          	li	s11,95
   199a0:	00a00c13          	li	s8,10
   199a4:	f8dff06f          	j	19930 <sigprocmask@plt+0x68d0>
   199a8:	fd07071b          	addiw	a4,a4,-48
   199ac:	0ff77713          	andi	a4,a4,255
   199b0:	04e86a63          	bltu	a6,a4,19a04 <sigprocmask@plt+0x69a4>
   199b4:	00900b13          	li	s6,9
   199b8:	000a0593          	mv	a1,s4
   199bc:	000d8513          	mv	a0,s11
   199c0:	de0fd0ef          	jal	ra,16fa0 <sigprocmask@plt+0x3f40>
   199c4:	00050a13          	mv	s4,a0
   199c8:	f95fd0ef          	jal	ra,1795c <sigprocmask@plt+0x48fc>
   199cc:	00050d93          	mv	s11,a0
   199d0:	360c1e63          	bnez	s8,19d4c <sigprocmask@plt+0x6cec>
   199d4:	fd05071b          	addiw	a4,a0,-48
   199d8:	0ff77713          	andi	a4,a4,255
   199dc:	fceb7ee3          	bgeu	s6,a4,199b8 <sigprocmask@plt+0x6958>
   199e0:	03a00793          	li	a5,58
   199e4:	0cfd8c63          	beq	s11,a5,19abc <sigprocmask@plt+0x6a5c>
   199e8:	01b7ca63          	blt	a5,s11,199fc <sigprocmask@plt+0x699c>
   199ec:	fddd8b1b          	addiw	s6,s11,-35
   199f0:	ffdb7b13          	andi	s6,s6,-3
   199f4:	000b0b1b          	sext.w	s6,s6
   199f8:	100b0463          	beqz	s6,19b00 <sigprocmask@plt+0x6aa0>
   199fc:	00000c13          	li	s8,0
   19a00:	0c80006f          	j	19ac8 <sigprocmask@plt+0x6a68>
   19a04:	096d8463          	beq	s11,s6,19a8c <sigprocmask@plt+0x6a2c>
   19a08:	f55fd0ef          	jal	ra,1795c <sigprocmask@plt+0x48fc>
   19a0c:	00050c93          	mv	s9,a0
   19a10:	040c1863          	bnez	s8,19a60 <sigprocmask@plt+0x6a00>
   19a14:	02300893          	li	a7,35
   19a18:	051d9463          	bne	s11,a7,19a60 <sigprocmask@plt+0x6a00>
   19a1c:	05f00593          	li	a1,95
   19a20:	f6b50ee3          	beq	a0,a1,1999c <sigprocmask@plt+0x693c>
   19a24:	0ff57693          	andi	a3,a0,255
   19a28:	fd06851b          	addiw	a0,a3,-48
   19a2c:	0ff57513          	andi	a0,a0,255
   19a30:	00900813          	li	a6,9
   19a34:	01900613          	li	a2,25
   19a38:	f4a87ce3          	bgeu	a6,a0,19990 <sigprocmask@plt+0x6930>
   19a3c:	0206e693          	ori	a3,a3,32
   19a40:	f9f6869b          	addiw	a3,a3,-97
   19a44:	0ff6f693          	andi	a3,a3,255
   19a48:	f4d674e3          	bgeu	a2,a3,19990 <sigprocmask@plt+0x6930>
   19a4c:	f11fd0ef          	jal	ra,1795c <sigprocmask@plt+0x48fc>
   19a50:	016c8663          	beq	s9,s6,19a5c <sigprocmask@plt+0x69fc>
   19a54:	07d00693          	li	a3,125
   19a58:	02d50e63          	beq	a0,a3,19a94 <sigprocmask@plt+0x6a34>
   19a5c:	d88fb0ef          	jal	ra,14fe4 <sigprocmask@plt+0x1f84>
   19a60:	fdfd861b          	addiw	a2,s11,-33
   19a64:	01f00693          	li	a3,31
   19a68:	00c6ec63          	bltu	a3,a2,19a80 <sigprocmask@plt+0x6a20>
   19a6c:	c1ff96b7          	lui	a3,0xc1ff9
   19a70:	20d6869b          	addiw	a3,a3,525
   19a74:	00c6d6bb          	srlw	a3,a3,a2
   19a78:	0016f693          	andi	a3,a3,1
   19a7c:	02069463          	bnez	a3,19aa4 <sigprocmask@plt+0x6a44>
   19a80:	00a00713          	li	a4,10
   19a84:	00ec1463          	bne	s8,a4,19a8c <sigprocmask@plt+0x6a2c>
   19a88:	00000c13          	li	s8,0
   19a8c:	d58fb0ef          	jal	ra,14fe4 <sigprocmask@plt+0x1f84>
   19a90:	05c0006f          	j	19aec <sigprocmask@plt+0x6a8c>
   19a94:	000c8d93          	mv	s11,s9
   19a98:	00a00c13          	li	s8,10
   19a9c:	07d00c93          	li	s9,125
   19aa0:	fc1ff06f          	j	19a60 <sigprocmask@plt+0x6a00>
   19aa4:	01bd0123          	sb	s11,2(s10)
   19aa8:	003d0a13          	addi	s4,s10,3
   19aac:	000c8d93          	mv	s11,s9
   19ab0:	ec9ff06f          	j	19978 <sigprocmask@plt+0x6918>
   19ab4:	fc0c1ce3          	bnez	s8,19a8c <sigprocmask@plt+0x6a2c>
   19ab8:	f29ff06f          	j	199e0 <sigprocmask@plt+0x6980>
   19abc:	ea1fd0ef          	jal	ra,1795c <sigprocmask@plt+0x48fc>
   19ac0:	00050d93          	mv	s11,a0
   19ac4:	01000c13          	li	s8,16
   19ac8:	c4818b13          	addi	s6,gp,-952
   19acc:	000d8593          	mv	a1,s11
   19ad0:	c4818513          	addi	a0,gp,-952
   19ad4:	cbcf90ef          	jal	ra,12f90 <strchr@plt>
   19ad8:	00050a63          	beqz	a0,19aec <sigprocmask@plt+0x6a8c>
   19adc:	41650533          	sub	a0,a0,s6
   19ae0:	0015051b          	addiw	a0,a0,1
   19ae4:	00ac67b3          	or	a5,s8,a0
   19ae8:	0ff7fc13          	andi	s8,a5,255
   19aec:	f4843b03          	ld	s6,-184(s0)
   19af0:	00300713          	li	a4,3
   19af4:	02eb1663          	bne	s6,a4,19b20 <sigprocmask@plt+0x6ac0>
   19af8:	00100b13          	li	s6,1
   19afc:	0240006f          	j	19b20 <sigprocmask@plt+0x6ac0>
   19b00:	02300713          	li	a4,35
   19b04:	00800c13          	li	s8,8
   19b08:	00ed8463          	beq	s11,a4,19b10 <sigprocmask@plt+0x6ab0>
   19b0c:	00600c13          	li	s8,6
   19b10:	e4dfd0ef          	jal	ra,1795c <sigprocmask@plt+0x48fc>
   19b14:	0cad9663          	bne	s11,a0,19be0 <sigprocmask@plt+0x6b80>
   19b18:	001c079b          	addiw	a5,s8,1
   19b1c:	0ff7fc13          	andi	s8,a5,255
   19b20:	0004a703          	lw	a4,0(s1)
   19b24:	01671863          	bne	a4,s6,19b34 <sigprocmask@plt+0x6ad4>
   19b28:	0044c703          	lbu	a4,4(s1)
   19b2c:	00177713          	andi	a4,a4,1
   19b30:	04070c63          	beqz	a4,19b88 <sigprocmask@plt+0x6b28>
   19b34:	00100713          	li	a4,1
   19b38:	04ec0863          	beq	s8,a4,19b88 <sigprocmask@plt+0x6b28>
   19b3c:	0184b703          	ld	a4,24(s1)
   19b40:	00071663          	bnez	a4,19b4c <sigprocmask@plt+0x6aec>
   19b44:	fd010113          	addi	sp,sp,-48
   19b48:	00010713          	mv	a4,sp
   19b4c:	02800613          	li	a2,40
   19b50:	00000593          	li	a1,0
   19b54:	00070513          	mv	a0,a4
   19b58:	a08f90ef          	jal	ra,12d60 <memset@plt>
   19b5c:	01652023          	sw	s6,0(a0)
   19b60:	02953023          	sd	s1,32(a0)
   19b64:	00a4bc23          	sd	a0,24(s1)
   19b68:	00454683          	lbu	a3,4(a0)
   19b6c:	01603b33          	snez	s6,s6
   19b70:	002b1b1b          	slliw	s6,s6,0x2
   19b74:	002b6b13          	ori	s6,s6,2
   19b78:	ff96f693          	andi	a3,a3,-7
   19b7c:	00db6b33          	or	s6,s6,a3
   19b80:	01650223          	sb	s6,4(a0)
   19b84:	00050493          	mv	s1,a0
   19b88:	f5043783          	ld	a5,-176(s0)
   19b8c:	0089bc83          	ld	s9,8(s3)
   19b90:	001d0d13          	addi	s10,s10,1
   19b94:	40fd0d3b          	subw	s10,s10,a5
   19b98:	01ac8cb3          	add	s9,s9,s10
   19b9c:	018c8023          	sb	s8,0(s9)
   19ba0:	00100713          	li	a4,1
   19ba4:	02ec0463          	beq	s8,a4,19bcc <sigprocmask@plt+0x6b6c>
   19ba8:	0084a783          	lw	a5,8(s1)
   19bac:	0017879b          	addiw	a5,a5,1
   19bb0:	00f4a423          	sw	a5,8(s1)
   19bb4:	0044c783          	lbu	a5,4(s1)
   19bb8:	0047f793          	andi	a5,a5,4
   19bbc:	00078863          	beqz	a5,19bcc <sigprocmask@plt+0x6b6c>
   19bc0:	00c4a783          	lw	a5,12(s1)
   19bc4:	0017879b          	addiw	a5,a5,1
   19bc8:	00f4a623          	sw	a5,12(s1)
   19bcc:	000a0593          	mv	a1,s4
   19bd0:	03d00513          	li	a0,61
   19bd4:	bccfd0ef          	jal	ra,16fa0 <sigprocmask@plt+0x3f40>
   19bd8:	00050d13          	mv	s10,a0
   19bdc:	ef0ff06f          	j	192cc <sigprocmask@plt+0x626c>
   19be0:	c04fb0ef          	jal	ra,14fe4 <sigprocmask@plt+0x1f84>
   19be4:	f3dff06f          	j	19b20 <sigprocmask@plt+0x6ac0>
   19be8:	00100a13          	li	s4,1
   19bec:	c65ff06f          	j	19850 <sigprocmask@plt+0x67f0>
   19bf0:	000d8593          	mv	a1,s11
   19bf4:	00000513          	li	a0,0
   19bf8:	ba8fd0ef          	jal	ra,16fa0 <sigprocmask@plt+0x3f40>
   19bfc:	0089b783          	ld	a5,8(s3)
   19c00:	10a79463          	bne	a5,a0,19d08 <sigprocmask@plt+0x6ca8>
   19c04:	f6043783          	ld	a5,-160(s0)
   19c08:	f6040d13          	addi	s10,s0,-160
   19c0c:	10079663          	bnez	a5,19d18 <sigprocmask@plt+0x6cb8>
   19c10:	01000513          	li	a0,16
   19c14:	c25fc0ef          	jal	ra,16838 <sigprocmask@plt+0x37d8>
   19c18:	d0818793          	addi	a5,gp,-760
   19c1c:	0007bd83          	ld	s11,0(a5)
   19c20:	00ad3023          	sd	a0,0(s10)
   19c24:	0007b023          	sd	zero,0(a5)
   19c28:	d0818c93          	addi	s9,gp,-760
   19c2c:	00000713          	li	a4,0
   19c30:	000a0863          	beqz	s4,19c40 <sigprocmask@plt+0x6be0>
   19c34:	d8c18793          	addi	a5,gp,-628
   19c38:	0007a703          	lw	a4,0(a5)
   19c3c:	0007a023          	sw	zero,0(a5)
   19c40:	00200513          	li	a0,2
   19c44:	f4e43423          	sd	a4,-184(s0)
   19c48:	ac4ff0ef          	jal	ra,18f0c <sigprocmask@plt+0x5eac>
   19c4c:	f4a43823          	sd	a0,-176(s0)
   19c50:	0c0a0a63          	beqz	s4,19d24 <sigprocmask@plt+0x6cc4>
   19c54:	f4843703          	ld	a4,-184(s0)
   19c58:	d8e1a623          	sw	a4,-628(gp)
   19c5c:	250000ef          	jal	ra,19eac <sigprocmask@plt+0x6e4c>
   19c60:	000d3783          	ld	a5,0(s10)
   19c64:	f5043703          	ld	a4,-176(s0)
   19c68:	01bcb023          	sd	s11,0(s9)
   19c6c:	00e7b423          	sd	a4,8(a5)
   19c70:	f01fb0ef          	jal	ra,15b70 <sigprocmask@plt+0x2b10>
   19c74:	000a0463          	beqz	s4,19c7c <sigprocmask@plt+0x6c1c>
   19c78:	da01aa23          	sw	zero,-588(gp)
   19c7c:	001b0513          	addi	a0,s6,1
   19c80:	e2dfc0ef          	jal	ra,16aac <sigprocmask@plt+0x3a4c>
   19c84:	00050a13          	mv	s4,a0
   19c88:	000c0a63          	beqz	s8,19c9c <sigprocmask@plt+0x6c3c>
   19c8c:	000b0613          	mv	a2,s6
   19c90:	000c0593          	mv	a1,s8
   19c94:	d7df80ef          	jal	ra,12a10 <memcpy@plt>
   19c98:	016a0a33          	add	s4,s4,s6
   19c9c:	f8400793          	li	a5,-124
   19ca0:	001a0d13          	addi	s10,s4,1
   19ca4:	00fa0023          	sb	a5,0(s4)
   19ca8:	e24ff06f          	j	192cc <sigprocmask@plt+0x626c>
   19cac:	a6dfd0ef          	jal	ra,17718 <sigprocmask@plt+0x46b8>
   19cb0:	05c00793          	li	a5,92
   19cb4:	00050d13          	mv	s10,a0
   19cb8:	c0f504e3          	beq	a0,a5,198c0 <sigprocmask@plt+0x6860>
   19cbc:	c19502e3          	beq	a0,s9,198c0 <sigprocmask@plt+0x6860>
   19cc0:	02400793          	li	a5,36
   19cc4:	bef50ee3          	beq	a0,a5,198c0 <sigprocmask@plt+0x6860>
   19cc8:	0044c683          	lbu	a3,4(s1)
   19ccc:	0046f693          	andi	a3,a3,4
   19cd0:	00068663          	beqz	a3,19cdc <sigprocmask@plt+0x6c7c>
   19cd4:	02200793          	li	a5,34
   19cd8:	bef504e3          	beq	a0,a5,198c0 <sigprocmask@plt+0x6860>
   19cdc:	000d8593          	mv	a1,s11
   19ce0:	05c00513          	li	a0,92
   19ce4:	abcfd0ef          	jal	ra,16fa0 <sigprocmask@plt+0x3f40>
   19ce8:	0ff00793          	li	a5,255
   19cec:	00050d93          	mv	s11,a0
   19cf0:	bda7d8e3          	bge	a5,s10,198c0 <sigprocmask@plt+0x6860>
   19cf4:	00024537          	lui	a0,0x24
   19cf8:	ea850513          	addi	a0,a0,-344 # 23ea8 <sigprocmask@plt+0x10e48>
   19cfc:	899ff06f          	j	19594 <sigprocmask@plt+0x6534>
   19d00:	ac8fb0ef          	jal	ra,14fc8 <sigprocmask@plt+0x1f68>
   19d04:	bbdff06f          	j	198c0 <sigprocmask@plt+0x6860>
   19d08:	40f50533          	sub	a0,a0,a5
   19d0c:	9fdfc0ef          	jal	ra,16708 <sigprocmask@plt+0x36a8>
   19d10:	910fc0ef          	jal	ra,15e20 <sigprocmask@plt+0x2dc0>
   19d14:	ef1ff06f          	j	19c04 <sigprocmask@plt+0x6ba4>
   19d18:	00078d13          	mv	s10,a5
   19d1c:	0007b783          	ld	a5,0(a5)
   19d20:	eedff06f          	j	19c0c <sigprocmask@plt+0x6bac>
   19d24:	25c000ef          	jal	ra,19f80 <sigprocmask@plt+0x6f20>
   19d28:	00a00793          	li	a5,10
   19d2c:	00f50663          	beq	a0,a5,19d38 <sigprocmask@plt+0x6cd8>
   19d30:	00a00513          	li	a0,10
   19d34:	955fe0ef          	jal	ra,18688 <sigprocmask@plt+0x5628>
   19d38:	f2043503          	ld	a0,-224(s0)
   19d3c:	8e4fc0ef          	jal	ra,15e20 <sigprocmask@plt+0x2dc0>
   19d40:	f1dff06f          	j	19c5c <sigprocmask@plt+0x6bfc>
   19d44:	d80c02e3          	beqz	s8,19ac8 <sigprocmask@plt+0x6a68>
   19d48:	d45ff06f          	j	19a8c <sigprocmask@plt+0x6a2c>
   19d4c:	07d00713          	li	a4,125
   19d50:	d2e50ee3          	beq	a0,a4,19a8c <sigprocmask@plt+0x6a2c>
   19d54:	00a00713          	li	a4,10
   19d58:	c2ec08e3          	beq	s8,a4,19988 <sigprocmask@plt+0x6928>
   19d5c:	d31ff06f          	j	19a8c <sigprocmask@plt+0x6a2c>
   19d60:	db418793          	addi	a5,gp,-588
   19d64:	0007a703          	lw	a4,0(a5)
   19d68:	00070863          	beqz	a4,19d78 <sigprocmask@plt+0x6d18>
   19d6c:	0007a023          	sw	zero,0(a5)
   19d70:	d9c1a503          	lw	a0,-612(gp)
   19d74:	00008067          	ret
   19d78:	da41a503          	lw	a0,-604(gp)
   19d7c:	fc010113          	addi	sp,sp,-64
   19d80:	00200593          	li	a1,2
   19d84:	02913423          	sd	s1,40(sp)
   19d88:	03213023          	sd	s2,32(sp)
   19d8c:	01313c23          	sd	s3,24(sp)
   19d90:	01413823          	sd	s4,16(sp)
   19d94:	01513423          	sd	s5,8(sp)
   19d98:	02113c23          	sd	ra,56(sp)
   19d9c:	02813823          	sd	s0,48(sp)
   19da0:	02000493          	li	s1,32
   19da4:	914fb0ef          	jal	ra,14eb8 <sigprocmask@plt+0x1e58>
   19da8:	00900913          	li	s2,9
   19dac:	02300993          	li	s3,35
   19db0:	00a00a13          	li	s4,10
   19db4:	10000a93          	li	s5,256
   19db8:	ba5fd0ef          	jal	ra,1795c <sigprocmask@plt+0x48fc>
   19dbc:	00050413          	mv	s0,a0
   19dc0:	fe950ce3          	beq	a0,s1,19db8 <sigprocmask@plt+0x6d58>
   19dc4:	ff250ae3          	beq	a0,s2,19db8 <sigprocmask@plt+0x6d58>
   19dc8:	01351c63          	bne	a0,s3,19de0 <sigprocmask@plt+0x6d80>
   19dcc:	94dfd0ef          	jal	ra,17718 <sigprocmask@plt+0x46b8>
   19dd0:	01450463          	beq	a0,s4,19dd8 <sigprocmask@plt+0x6d78>
   19dd4:	ff551ce3          	bne	a0,s5,19dcc <sigprocmask@plt+0x6d6c>
   19dd8:	a0cfb0ef          	jal	ra,14fe4 <sigprocmask@plt+0x1f84>
   19ddc:	fddff06f          	j	19db8 <sigprocmask@plt+0x6d58>
   19de0:	05c00793          	li	a5,92
   19de4:	08f50a63          	beq	a0,a5,19e78 <sigprocmask@plt+0x6e18>
   19de8:	10000793          	li	a5,256
   19dec:	c4e18913          	addi	s2,gp,-946
   19df0:	08f50063          	beq	a0,a5,19e70 <sigprocmask@plt+0x6e10>
   19df4:	00a00793          	li	a5,10
   19df8:	00f51463          	bne	a0,a5,19e00 <sigprocmask@plt+0x6da0>
   19dfc:	9ccfb0ef          	jal	ra,14fc8 <sigprocmask@plt+0x1f68>
   19e00:	c4e18513          	addi	a0,gp,-946
   19e04:	00040593          	mv	a1,s0
   19e08:	988f90ef          	jal	ra,12f90 <strchr@plt>
   19e0c:	00050493          	mv	s1,a0
   19e10:	06050463          	beqz	a0,19e78 <sigprocmask@plt+0x6e18>
   19e14:	412507bb          	subw	a5,a0,s2
   19e18:	00200713          	li	a4,2
   19e1c:	00f75863          	bge	a4,a5,19e2c <sigprocmask@plt+0x6dcc>
   19e20:	b3dfd0ef          	jal	ra,1795c <sigprocmask@plt+0x48fc>
   19e24:	04a41263          	bne	s0,a0,19e68 <sigprocmask@plt+0x6e08>
   19e28:	00448493          	addi	s1,s1,4
   19e2c:	00025537          	lui	a0,0x25
   19e30:	412484b3          	sub	s1,s1,s2
   19e34:	08b50513          	addi	a0,a0,139 # 2508b <sigprocmask@plt+0x1202b>
   19e38:	009504b3          	add	s1,a0,s1
   19e3c:	0004c503          	lbu	a0,0(s1)
   19e40:	03813083          	ld	ra,56(sp)
   19e44:	03013403          	ld	s0,48(sp)
   19e48:	d8a1ae23          	sw	a0,-612(gp)
   19e4c:	02813483          	ld	s1,40(sp)
   19e50:	02013903          	ld	s2,32(sp)
   19e54:	01813983          	ld	s3,24(sp)
   19e58:	01013a03          	ld	s4,16(sp)
   19e5c:	00813a83          	ld	s5,8(sp)
   19e60:	04010113          	addi	sp,sp,64
   19e64:	00008067          	ret
   19e68:	97cfb0ef          	jal	ra,14fe4 <sigprocmask@plt+0x1f84>
   19e6c:	fc1ff06f          	j	19e2c <sigprocmask@plt+0x6dcc>
   19e70:	00690493          	addi	s1,s2,6
   19e74:	fb9ff06f          	j	19e2c <sigprocmask@plt+0x6dcc>
   19e78:	00040513          	mv	a0,s0
   19e7c:	03013403          	ld	s0,48(sp)
   19e80:	03813083          	ld	ra,56(sp)
   19e84:	02813483          	ld	s1,40(sp)
   19e88:	02013903          	ld	s2,32(sp)
   19e8c:	01813983          	ld	s3,24(sp)
   19e90:	01013a03          	ld	s4,16(sp)
   19e94:	00813a83          	ld	s5,8(sp)
   19e98:	00000693          	li	a3,0
   19e9c:	00000613          	li	a2,0
   19ea0:	00000593          	li	a1,0
   19ea4:	04010113          	addi	sp,sp,64
   19ea8:	a7cff06f          	j	19124 <sigprocmask@plt+0x60c4>
   19eac:	fc010113          	addi	sp,sp,-64
   19eb0:	02813823          	sd	s0,48(sp)
   19eb4:	02913423          	sd	s1,40(sp)
   19eb8:	03213023          	sd	s2,32(sp)
   19ebc:	01313c23          	sd	s3,24(sp)
   19ec0:	01413823          	sd	s4,16(sp)
   19ec4:	01513423          	sd	s5,8(sp)
   19ec8:	01613023          	sd	s6,0(sp)
   19ecc:	d0818793          	addi	a5,gp,-760
   19ed0:	02113c23          	sd	ra,56(sp)
   19ed4:	0007b403          	ld	s0,0(a5)
   19ed8:	0007b023          	sd	zero,0(a5)
   19edc:	01800993          	li	s3,24
   19ee0:	00f00a13          	li	s4,15
   19ee4:	02041663          	bnez	s0,19f10 <sigprocmask@plt+0x6eb0>
   19ee8:	03813083          	ld	ra,56(sp)
   19eec:	03013403          	ld	s0,48(sp)
   19ef0:	02813483          	ld	s1,40(sp)
   19ef4:	02013903          	ld	s2,32(sp)
   19ef8:	01813983          	ld	s3,24(sp)
   19efc:	01013a03          	ld	s4,16(sp)
   19f00:	00813a83          	ld	s5,8(sp)
   19f04:	00013b03          	ld	s6,0(sp)
   19f08:	04010113          	addi	sp,sp,64
   19f0c:	00008067          	ret
   19f10:	da41a503          	lw	a0,-604(gp)
   19f14:	00200593          	li	a1,2
   19f18:	da01aa23          	sw	zero,-588(gp)
   19f1c:	f9dfa0ef          	jal	ra,14eb8 <sigprocmask@plt+0x1e58>
   19f20:	00843783          	ld	a5,8(s0)
   19f24:	0007a783          	lw	a5,0(a5)
   19f28:	05379263          	bne	a5,s3,19f6c <sigprocmask@plt+0x6f0c>
   19f2c:	fecfd0ef          	jal	ra,17718 <sigprocmask@plt+0x46b8>
   19f30:	01842683          	lw	a3,24(s0)
   19f34:	01043603          	ld	a2,16(s0)
   19f38:	00200593          	li	a1,2
   19f3c:	9e8ff0ef          	jal	ra,19124 <sigprocmask@plt+0x60c4>
   19f40:	02000513          	li	a0,32
   19f44:	8f5fc0ef          	jal	ra,16838 <sigprocmask@plt+0x37d8>
   19f48:	d581b783          	ld	a5,-680(gp)
   19f4c:	01452023          	sw	s4,0(a0)
   19f50:	00f53823          	sd	a5,16(a0)
   19f54:	cc01b783          	ld	a5,-832(gp)
   19f58:	00f53c23          	sd	a5,24(a0)
   19f5c:	00843783          	ld	a5,8(s0)
   19f60:	00043403          	ld	s0,0(s0)
   19f64:	00a7bc23          	sd	a0,24(a5)
   19f68:	f7dff06f          	j	19ee4 <sigprocmask@plt+0x6e84>
   19f6c:	9f1fd0ef          	jal	ra,1795c <sigprocmask@plt+0x48fc>
   19f70:	01842683          	lw	a3,24(s0)
   19f74:	01043603          	ld	a2,16(s0)
   19f78:	00100593          	li	a1,1
   19f7c:	fc1ff06f          	j	19f3c <sigprocmask@plt+0x6edc>
   19f80:	fd010113          	addi	sp,sp,-48
   19f84:	01213823          	sd	s2,16(sp)
   19f88:	00913c23          	sd	s1,24(sp)
   19f8c:	d841a483          	lw	s1,-636(gp)
   19f90:	02813023          	sd	s0,32(sp)
   19f94:	01313423          	sd	s3,8(sp)
   19f98:	02113423          	sd	ra,40(sp)
   19f9c:	dc5ff0ef          	jal	ra,19d60 <sigprocmask@plt+0x6d00>
   19fa0:	0044f793          	andi	a5,s1,4
   19fa4:	00050413          	mv	s0,a0
   19fa8:	d8418913          	addi	s2,gp,-636
   19fac:	00100993          	li	s3,1
   19fb0:	06079863          	bnez	a5,1a020 <sigprocmask@plt+0x6fc0>
   19fb4:	00300793          	li	a5,3
   19fb8:	02f41c63          	bne	s0,a5,19ff0 <sigprocmask@plt+0x6f90>
   19fbc:	dac1a783          	lw	a5,-596(gp)
   19fc0:	02079863          	bnez	a5,19ff0 <sigprocmask@plt+0x6f90>
   19fc4:	0024f493          	andi	s1,s1,2
   19fc8:	02048463          	beqz	s1,19ff0 <sigprocmask@plt+0x6f90>
   19fcc:	d581b503          	ld	a0,-680(gp)
   19fd0:	c7cfb0ef          	jal	ra,1544c <sigprocmask@plt+0x23ec>
   19fd4:	00050e63          	beqz	a0,19ff0 <sigprocmask@plt+0x6f90>
   19fd8:	00024437          	lui	s0,0x24
   19fdc:	6d840413          	addi	s0,s0,1752 # 246d8 <sigprocmask@plt+0x11678>
   19fe0:	40850433          	sub	s0,a0,s0
   19fe4:	40345413          	srai	s0,s0,0x3
   19fe8:	0004041b          	sext.w	s0,s0
   19fec:	d881ae23          	sw	s0,-612(gp)
   19ff0:	02813083          	ld	ra,40(sp)
   19ff4:	00040513          	mv	a0,s0
   19ff8:	02013403          	ld	s0,32(sp)
   19ffc:	00092023          	sw	zero,0(s2)
   1a000:	01813483          	ld	s1,24(sp)
   1a004:	01013903          	ld	s2,16(sp)
   1a008:	00813983          	ld	s3,8(sp)
   1a00c:	03010113          	addi	sp,sp,48
   1a010:	00008067          	ret
   1a014:	e99ff0ef          	jal	ra,19eac <sigprocmask@plt+0x6e4c>
   1a018:	d49ff0ef          	jal	ra,19d60 <sigprocmask@plt+0x6d00>
   1a01c:	00050413          	mv	s0,a0
   1a020:	ff340ae3          	beq	s0,s3,1a014 <sigprocmask@plt+0x6fb4>
   1a024:	f91ff06f          	j	19fb4 <sigprocmask@plt+0x6f54>
   1a028:	fe010113          	addi	sp,sp,-32
   1a02c:	00813823          	sd	s0,16(sp)
   1a030:	d501b403          	ld	s0,-688(gp)
   1a034:	00113c23          	sd	ra,24(sp)
   1a038:	00913423          	sd	s1,8(sp)
   1a03c:	00042703          	lw	a4,0(s0)
   1a040:	01800793          	li	a5,24
   1a044:	00f71663          	bne	a4,a5,1a050 <sigprocmask@plt+0x6ff0>
   1a048:	00800713          	li	a4,8
   1a04c:	d8e1a223          	sw	a4,-636(gp)
   1a050:	f31ff0ef          	jal	ra,19f80 <sigprocmask@plt+0x6f20>
   1a054:	00300793          	li	a5,3
   1a058:	00f50663          	beq	a0,a5,1a064 <sigprocmask@plt+0x7004>
   1a05c:	fff00513          	li	a0,-1
   1a060:	e28fe0ef          	jal	ra,18688 <sigprocmask@plt+0x5628>
   1a064:	00042783          	lw	a5,0(s0)
   1a068:	01800713          	li	a4,24
   1a06c:	06e79263          	bne	a5,a4,1a0d0 <sigprocmask@plt+0x7070>
   1a070:	d001b483          	ld	s1,-768(gp)
   1a074:	dac1a783          	lw	a5,-596(gp)
   1a078:	00079663          	bnez	a5,1a084 <sigprocmask@plt+0x7024>
   1a07c:	01900793          	li	a5,25
   1a080:	00f42023          	sw	a5,0(s0)
   1a084:	d5818413          	addi	s0,gp,-680
   1a088:	00043503          	ld	a0,0(s0)
   1a08c:	00000593          	li	a1,0
   1a090:	925fd0ef          	jal	ra,179b4 <sigprocmask@plt+0x4954>
   1a094:	00043783          	ld	a5,0(s0)
   1a098:	d0818713          	addi	a4,gp,-760
   1a09c:	00f4b823          	sd	a5,16(s1)
   1a0a0:	00073783          	ld	a5,0(a4)
   1a0a4:	0004b023          	sd	zero,0(s1)
   1a0a8:	00079e63          	bnez	a5,1a0c4 <sigprocmask@plt+0x7064>
   1a0ac:	00973023          	sd	s1,0(a4)
   1a0b0:	01813083          	ld	ra,24(sp)
   1a0b4:	01013403          	ld	s0,16(sp)
   1a0b8:	00813483          	ld	s1,8(sp)
   1a0bc:	02010113          	addi	sp,sp,32
   1a0c0:	00008067          	ret
   1a0c4:	00078713          	mv	a4,a5
   1a0c8:	0007b783          	ld	a5,0(a5)
   1a0cc:	fddff06f          	j	1a0a8 <sigprocmask@plt+0x7048>
   1a0d0:	fea7879b          	addiw	a5,a5,-22
   1a0d4:	00100713          	li	a4,1
   1a0d8:	04f76c63          	bltu	a4,a5,1a130 <sigprocmask@plt+0x70d0>
   1a0dc:	d581b483          	ld	s1,-680(gp)
   1a0e0:	00043c23          	sd	zero,24(s0)
   1a0e4:	00a00613          	li	a2,10
   1a0e8:	00000593          	li	a1,0
   1a0ec:	00048513          	mv	a0,s1
   1a0f0:	ac1fa0ef          	jal	ra,14bb0 <sigprocmask@plt+0x1b50>
   1a0f4:	ca01b783          	ld	a5,-864(gp)
   1a0f8:	0005051b          	sext.w	a0,a0
   1a0fc:	0007a783          	lw	a5,0(a5)
   1a100:	00079a63          	bnez	a5,1a114 <sigprocmask@plt+0x70b4>
   1a104:	0005079b          	sext.w	a5,a0
   1a108:	00054663          	bltz	a0,1a114 <sigprocmask@plt+0x70b4>
   1a10c:	00f42a23          	sw	a5,20(s0)
   1a110:	fa1ff06f          	j	1a0b0 <sigprocmask@plt+0x7050>
   1a114:	0004c703          	lbu	a4,0(s1)
   1a118:	02d00793          	li	a5,45
   1a11c:	00f71a63          	bne	a4,a5,1a130 <sigprocmask@plt+0x70d0>
   1a120:	0014c783          	lbu	a5,1(s1)
   1a124:	00079663          	bnez	a5,1a130 <sigprocmask@plt+0x70d0>
   1a128:	fff00793          	li	a5,-1
   1a12c:	fe1ff06f          	j	1a10c <sigprocmask@plt+0x70ac>
   1a130:	f2cfc0ef          	jal	ra,1685c <sigprocmask@plt+0x37fc>
   1a134:	00a43c23          	sd	a0,24(s0)
   1a138:	f79ff06f          	j	1a0b0 <sigprocmask@plt+0x7050>
   1a13c:	da01aa23          	sw	zero,-588(gp)
   1a140:	d801a223          	sw	zero,-636(gp)
   1a144:	ff010113          	addi	sp,sp,-16
   1a148:	00050593          	mv	a1,a0
   1a14c:	d001b423          	sd	zero,-760(gp)
   1a150:	00113423          	sd	ra,8(sp)
   1a154:	d8a1a623          	sw	a0,-628(gp)
   1a158:	d61fa0ef          	jal	ra,14eb8 <sigprocmask@plt+0x1e58>
   1a15c:	00813083          	ld	ra,8(sp)
   1a160:	da01a223          	sw	zero,-604(gp)
   1a164:	00100513          	li	a0,1
   1a168:	01010113          	addi	sp,sp,16
   1a16c:	da1fe06f          	j	18f0c <sigprocmask@plt+0x5eac>
   1a170:	fc010113          	addi	sp,sp,-64
   1a174:	02913423          	sd	s1,40(sp)
   1a178:	03213023          	sd	s2,32(sp)
   1a17c:	000254b7          	lui	s1,0x25
   1a180:	00025937          	lui	s2,0x25
   1a184:	01313c23          	sd	s3,24(sp)
   1a188:	01413823          	sd	s4,16(sp)
   1a18c:	02113c23          	sd	ra,56(sp)
   1a190:	02813823          	sd	s0,48(sp)
   1a194:	01513423          	sd	s5,8(sp)
   1a198:	00058a13          	mv	s4,a1
   1a19c:	f6648493          	addi	s1,s1,-154 # 24f66 <sigprocmask@plt+0x11f06>
   1a1a0:	01a00993          	li	s3,26
   1a1a4:	b7890913          	addi	s2,s2,-1160 # 24b78 <sigprocmask@plt+0x11b18>
   1a1a8:	020a0a63          	beqz	s4,1a1dc <sigprocmask@plt+0x717c>
   1a1ac:	000a2783          	lw	a5,0(s4)
   1a1b0:	00f48733          	add	a4,s1,a5
   1a1b4:	00074403          	lbu	s0,0(a4)
   1a1b8:	00a4053b          	addw	a0,s0,a0
   1a1bc:	00050413          	mv	s0,a0
   1a1c0:	00f9ee63          	bltu	s3,a5,1a1dc <sigprocmask@plt+0x717c>
   1a1c4:	00279793          	slli	a5,a5,0x2
   1a1c8:	012787b3          	add	a5,a5,s2
   1a1cc:	0007a783          	lw	a5,0(a5)
   1a1d0:	00078067          	jr	a5
   1a1d4:	008a3403          	ld	s0,8(s4)
   1a1d8:	02041463          	bnez	s0,1a200 <sigprocmask@plt+0x71a0>
   1a1dc:	03813083          	ld	ra,56(sp)
   1a1e0:	03013403          	ld	s0,48(sp)
   1a1e4:	02813483          	ld	s1,40(sp)
   1a1e8:	02013903          	ld	s2,32(sp)
   1a1ec:	01813983          	ld	s3,24(sp)
   1a1f0:	01013a03          	ld	s4,16(sp)
   1a1f4:	00813a83          	ld	s5,8(sp)
   1a1f8:	04010113          	addi	sp,sp,64
   1a1fc:	00008067          	ret
   1a200:	00843583          	ld	a1,8(s0)
   1a204:	0105051b          	addiw	a0,a0,16
   1a208:	f69ff0ef          	jal	ra,1a170 <sigprocmask@plt+0x7110>
   1a20c:	00043403          	ld	s0,0(s0)
   1a210:	fc9ff06f          	j	1a1d8 <sigprocmask@plt+0x7178>
   1a214:	018a3503          	ld	a0,24(s4)
   1a218:	d59f80ef          	jal	ra,12f70 <strlen@plt>
   1a21c:	00850513          	addi	a0,a0,8
   1a220:	010a3583          	ld	a1,16(s4)
   1a224:	ff857513          	andi	a0,a0,-8
   1a228:	00a4053b          	addw	a0,s0,a0
   1a22c:	f45ff0ef          	jal	ra,1a170 <sigprocmask@plt+0x7110>
   1a230:	0580006f          	j	1a288 <sigprocmask@plt+0x7228>
   1a234:	018a3583          	ld	a1,24(s4)
   1a238:	f39ff0ef          	jal	ra,1a170 <sigprocmask@plt+0x7110>
   1a23c:	010a3583          	ld	a1,16(s4)
   1a240:	fedff06f          	j	1a22c <sigprocmask@plt+0x71cc>
   1a244:	010a3583          	ld	a1,16(s4)
   1a248:	f29ff0ef          	jal	ra,1a170 <sigprocmask@plt+0x7110>
   1a24c:	00050413          	mv	s0,a0
   1a250:	008a3503          	ld	a0,8(s4)
   1a254:	d1df80ef          	jal	ra,12f70 <strlen@plt>
   1a258:	00850513          	addi	a0,a0,8
   1a25c:	ff857513          	andi	a0,a0,-8
   1a260:	0085053b          	addw	a0,a0,s0
   1a264:	f79ff06f          	j	1a1dc <sigprocmask@plt+0x717c>
   1a268:	018a3a83          	ld	s5,24(s4)
   1a26c:	0005041b          	sext.w	s0,a0
   1a270:	020a9063          	bnez	s5,1a290 <sigprocmask@plt+0x7230>
   1a274:	010a3503          	ld	a0,16(s4)
   1a278:	cf9f80ef          	jal	ra,12f70 <strlen@plt>
   1a27c:	00850513          	addi	a0,a0,8
   1a280:	ff857513          	andi	a0,a0,-8
   1a284:	0085053b          	addw	a0,a0,s0
   1a288:	008a3a03          	ld	s4,8(s4)
   1a28c:	f1dff06f          	j	1a1a8 <sigprocmask@plt+0x7148>
   1a290:	008ab583          	ld	a1,8(s5)
   1a294:	0104051b          	addiw	a0,s0,16
   1a298:	ed9ff0ef          	jal	ra,1a170 <sigprocmask@plt+0x7110>
   1a29c:	000aba83          	ld	s5,0(s5)
   1a2a0:	fcdff06f          	j	1a26c <sigprocmask@plt+0x720c>
   1a2a4:	018a3583          	ld	a1,24(s4)
   1a2a8:	f85ff06f          	j	1a22c <sigprocmask@plt+0x71cc>
   1a2ac:	fb010113          	addi	sp,sp,-80
   1a2b0:	02913c23          	sd	s1,56(sp)
   1a2b4:	03313423          	sd	s3,40(sp)
   1a2b8:	04113423          	sd	ra,72(sp)
   1a2bc:	04813023          	sd	s0,64(sp)
   1a2c0:	03213823          	sd	s2,48(sp)
   1a2c4:	03413023          	sd	s4,32(sp)
   1a2c8:	01513c23          	sd	s5,24(sp)
   1a2cc:	01613823          	sd	s6,16(sp)
   1a2d0:	00f5f993          	andi	s3,a1,15
   1a2d4:	00300793          	li	a5,3
   1a2d8:	00100493          	li	s1,1
   1a2dc:	00f98663          	beq	s3,a5,1a2e8 <sigprocmask@plt+0x7288>
   1a2e0:	ff698493          	addi	s1,s3,-10
   1a2e4:	0014b493          	seqz	s1,s1
   1a2e8:	40067793          	andi	a5,a2,1024
   1a2ec:	00f4e4b3          	or	s1,s1,a5
   1a2f0:	04099263          	bnez	s3,1a334 <sigprocmask@plt+0x72d4>
   1a2f4:	02048a63          	beqz	s1,1a328 <sigprocmask@plt+0x72c8>
   1a2f8:	fff00413          	li	s0,-1
   1a2fc:	04813083          	ld	ra,72(sp)
   1a300:	00040513          	mv	a0,s0
   1a304:	04013403          	ld	s0,64(sp)
   1a308:	03813483          	ld	s1,56(sp)
   1a30c:	03013903          	ld	s2,48(sp)
   1a310:	02813983          	ld	s3,40(sp)
   1a314:	02013a03          	ld	s4,32(sp)
   1a318:	01813a83          	ld	s5,24(sp)
   1a31c:	01013b03          	ld	s6,16(sp)
   1a320:	05010113          	addi	sp,sp,80
   1a324:	00008067          	ret
   1a328:	00024537          	lui	a0,0x24
   1a32c:	ec850513          	addi	a0,a0,-312 # 23ec8 <sigprocmask@plt+0x10e68>
   1a330:	e79fc0ef          	jal	ra,171a8 <sigprocmask@plt+0x4148>
   1a334:	fee00913          	li	s2,-18
   1a338:	00049463          	bnez	s1,1a340 <sigprocmask@plt+0x72e0>
   1a33c:	fff00913          	li	s2,-1
   1a340:	20066613          	ori	a2,a2,512
   1a344:	00054783          	lbu	a5,0(a0)
   1a348:	00c97933          	and	s2,s2,a2
   1a34c:	00891a1b          	slliw	s4,s2,0x8
   1a350:	04000713          	li	a4,64
   1a354:	100a7a13          	andi	s4,s4,256
   1a358:	1ae78863          	beq	a5,a4,1a508 <sigprocmask@plt+0x74a8>
   1a35c:	26f76263          	bltu	a4,a5,1a5c0 <sigprocmask@plt+0x7560>
   1a360:	03f00713          	li	a4,63
   1a364:	10e78663          	beq	a5,a4,1a470 <sigprocmask@plt+0x7410>
   1a368:	02d00713          	li	a4,45
   1a36c:	02f76a63          	bltu	a4,a5,1a3a0 <sigprocmask@plt+0x7340>
   1a370:	02000713          	li	a4,32
   1a374:	24f77663          	bgeu	a4,a5,1a5c0 <sigprocmask@plt+0x7560>
   1a378:	fdf7879b          	addiw	a5,a5,-33
   1a37c:	0ff7f793          	andi	a5,a5,255
   1a380:	00c00713          	li	a4,12
   1a384:	22f76e63          	bltu	a4,a5,1a5c0 <sigprocmask@plt+0x7560>
   1a388:	00025737          	lui	a4,0x25
   1a38c:	00279793          	slli	a5,a5,0x2
   1a390:	be470713          	addi	a4,a4,-1052 # 24be4 <sigprocmask@plt+0x11b84>
   1a394:	00e787b3          	add	a5,a5,a4
   1a398:	0007a783          	lw	a5,0(a5)
   1a39c:	00078067          	jr	a5
   1a3a0:	fd07879b          	addiw	a5,a5,-48
   1a3a4:	0ff7f793          	andi	a5,a5,255
   1a3a8:	00900713          	li	a4,9
   1a3ac:	20f76a63          	bltu	a4,a5,1a5c0 <sigprocmask@plt+0x7560>
   1a3b0:	b61f80ef          	jal	ra,12f10 <atoi@plt>
   1a3b4:	f40542e3          	bltz	a0,1a2f8 <sigprocmask@plt+0x7298>
   1a3b8:	d701b783          	ld	a5,-656(gp)
   1a3bc:	0007a703          	lw	a4,0(a5)
   1a3c0:	f2a74ce3          	blt	a4,a0,1a2f8 <sigprocmask@plt+0x7298>
   1a3c4:	1e050863          	beqz	a0,1a5b4 <sigprocmask@plt+0x7554>
   1a3c8:	0087b783          	ld	a5,8(a5)
   1a3cc:	00351513          	slli	a0,a0,0x3
   1a3d0:	00a78533          	add	a0,a5,a0
   1a3d4:	ff853a03          	ld	s4,-8(a0)
   1a3d8:	f20a00e3          	beqz	s4,1a2f8 <sigprocmask@plt+0x7298>
   1a3dc:	000a0513          	mv	a0,s4
   1a3e0:	b91f80ef          	jal	ra,12f70 <strlen@plt>
   1a3e4:	00050a93          	mv	s5,a0
   1a3e8:	00050593          	mv	a1,a0
   1a3ec:	00090613          	mv	a2,s2
   1a3f0:	000a0513          	mv	a0,s4
   1a3f4:	8c1fc0ef          	jal	ra,16cb4 <sigprocmask@plt+0x3c54>
   1a3f8:	00a00793          	li	a5,10
   1a3fc:	000a8413          	mv	s0,s5
   1a400:	04f99c63          	bne	s3,a5,1a458 <sigprocmask@plt+0x73f8>
   1a404:	05505a63          	blez	s5,1a458 <sigprocmask@plt+0x73f8>
   1a408:	ce818793          	addi	a5,gp,-792
   1a40c:	0007b503          	ld	a0,0(a5)
   1a410:	04013403          	ld	s0,64(sp)
   1a414:	04813083          	ld	ra,72(sp)
   1a418:	41550533          	sub	a0,a0,s5
   1a41c:	03813483          	ld	s1,56(sp)
   1a420:	03013903          	ld	s2,48(sp)
   1a424:	02813983          	ld	s3,40(sp)
   1a428:	01813a83          	ld	s5,24(sp)
   1a42c:	01013b03          	ld	s6,16(sp)
   1a430:	00a7b023          	sd	a0,0(a5)
   1a434:	000a0513          	mv	a0,s4
   1a438:	02013a03          	ld	s4,32(sp)
   1a43c:	05010113          	addi	sp,sp,80
   1a440:	7f10806f          	j	23430 <sigprocmask@plt+0x103d0>
   1a444:	d681b783          	ld	a5,-664(gp)
   1a448:	00c7a503          	lw	a0,12(a5)
   1a44c:	00090593          	mv	a1,s2
   1a450:	ef4fd0ef          	jal	ra,17b44 <sigprocmask@plt+0x4ae4>
   1a454:	00050413          	mv	s0,a0
   1a458:	ea0482e3          	beqz	s1,1a2fc <sigprocmask@plt+0x729c>
   1a45c:	ce818793          	addi	a5,gp,-792
   1a460:	0007b703          	ld	a4,0(a5)
   1a464:	40870733          	sub	a4,a4,s0
   1a468:	00e7b023          	sd	a4,0(a5)
   1a46c:	e91ff06f          	j	1a2fc <sigprocmask@plt+0x729c>
   1a470:	d681b783          	ld	a5,-664(gp)
   1a474:	0007c503          	lbu	a0,0(a5)
   1a478:	fd5ff06f          	j	1a44c <sigprocmask@plt+0x73ec>
   1a47c:	d701b783          	ld	a5,-656(gp)
   1a480:	0007a503          	lw	a0,0(a5)
   1a484:	fc9ff06f          	j	1a44c <sigprocmask@plt+0x73ec>
   1a488:	d681b783          	ld	a5,-664(gp)
   1a48c:	2f87a503          	lw	a0,760(a5)
   1a490:	e60504e3          	beqz	a0,1a2f8 <sigprocmask@plt+0x7298>
   1a494:	fb9ff06f          	j	1a44c <sigprocmask@plt+0x73ec>
   1a498:	ce818413          	addi	s0,gp,-792
   1a49c:	00043583          	ld	a1,0(s0)
   1a4a0:	00f00513          	li	a0,15
   1a4a4:	ce818913          	addi	s2,gp,-792
   1a4a8:	e34fc0ef          	jal	ra,16adc <sigprocmask@plt+0x3a7c>
   1a4ac:	d681b703          	ld	a4,-664(gp)
   1a4b0:	000247b7          	lui	a5,0x24
   1a4b4:	00a43023          	sd	a0,0(s0)
   1a4b8:	06370693          	addi	a3,a4,99
   1a4bc:	66078793          	addi	a5,a5,1632 # 24660 <sigprocmask@plt+0x11600>
   1a4c0:	05470713          	addi	a4,a4,84
   1a4c4:	00000613          	li	a2,0
   1a4c8:	00000413          	li	s0,0
   1a4cc:	0006c583          	lbu	a1,0(a3) # ffffffffc1ff9000 <optind+0xffffffffc1fd1a30>
   1a4d0:	02058063          	beqz	a1,1a4f0 <sigprocmask@plt+0x7490>
   1a4d4:	0707b583          	ld	a1,112(a5)
   1a4d8:	0005c583          	lbu	a1,0(a1)
   1a4dc:	00058a63          	beqz	a1,1a4f0 <sigprocmask@plt+0x7490>
   1a4e0:	00b50023          	sb	a1,0(a0)
   1a4e4:	00140413          	addi	s0,s0,1
   1a4e8:	00150513          	addi	a0,a0,1
   1a4ec:	00100613          	li	a2,1
   1a4f0:	fff68693          	addi	a3,a3,-1
   1a4f4:	ff878793          	addi	a5,a5,-8
   1a4f8:	fce69ae3          	bne	a3,a4,1a4cc <sigprocmask@plt+0x746c>
   1a4fc:	f4060ee3          	beqz	a2,1a458 <sigprocmask@plt+0x73f8>
   1a500:	00a93023          	sd	a0,0(s2)
   1a504:	f55ff06f          	j	1a458 <sigprocmask@plt+0x73f8>
   1a508:	00068463          	beqz	a3,1a510 <sigprocmask@plt+0x74b0>
   1a50c:	040a1063          	bnez	s4,1a54c <sigprocmask@plt+0x74ec>
   1a510:	d701b603          	ld	a2,-656(gp)
   1a514:	02000793          	li	a5,32
   1a518:	16062703          	lw	a4,352(a2)
   1a51c:	02077713          	andi	a4,a4,32
   1a520:	02071063          	bnez	a4,1a540 <sigprocmask@plt+0x74e0>
   1a524:	16863703          	ld	a4,360(a2)
   1a528:	fffa4793          	not	a5,s4
   1a52c:	00f6e7b3          	or	a5,a3,a5
   1a530:	00474703          	lbu	a4,4(a4)
   1a534:	03779793          	slli	a5,a5,0x37
   1a538:	43f7d793          	srai	a5,a5,0x3f
   1a53c:	00f777b3          	and	a5,a4,a5
   1a540:	fff6c693          	not	a3,a3
   1a544:	00da76b3          	and	a3,s4,a3
   1a548:	00d7ea33          	or	s4,a5,a3
   1a54c:	d701b783          	ld	a5,-656(gp)
   1a550:	014107a3          	sb	s4,15(sp)
   1a554:	0087b983          	ld	s3,8(a5)
   1a558:	da0980e3          	beqz	s3,1a2f8 <sigprocmask@plt+0x7298>
   1a55c:	00000413          	li	s0,0
   1a560:	0480006f          	j	1a5a8 <sigprocmask@plt+0x7548>
   1a564:	000b0513          	mv	a0,s6
   1a568:	a09f80ef          	jal	ra,12f70 <strlen@plt>
   1a56c:	00050a93          	mv	s5,a0
   1a570:	00050593          	mv	a1,a0
   1a574:	00090613          	mv	a2,s2
   1a578:	000b0513          	mv	a0,s6
   1a57c:	00898993          	addi	s3,s3,8
   1a580:	f34fc0ef          	jal	ra,16cb4 <sigprocmask@plt+0x3c54>
   1a584:	0009b783          	ld	a5,0(s3)
   1a588:	01540433          	add	s0,s0,s5
   1a58c:	00078e63          	beqz	a5,1a5a8 <sigprocmask@plt+0x7548>
   1a590:	000a0c63          	beqz	s4,1a5a8 <sigprocmask@plt+0x7548>
   1a594:	00090613          	mv	a2,s2
   1a598:	00100593          	li	a1,1
   1a59c:	00f10513          	addi	a0,sp,15
   1a5a0:	00140413          	addi	s0,s0,1
   1a5a4:	f10fc0ef          	jal	ra,16cb4 <sigprocmask@plt+0x3c54>
   1a5a8:	0009bb03          	ld	s6,0(s3)
   1a5ac:	fa0b1ce3          	bnez	s6,1a564 <sigprocmask@plt+0x7504>
   1a5b0:	ea9ff06f          	j	1a458 <sigprocmask@plt+0x73f8>
   1a5b4:	d681b783          	ld	a5,-664(gp)
   1a5b8:	0307ba03          	ld	s4,48(a5)
   1a5bc:	e1dff06f          	j	1a3d8 <sigprocmask@plt+0x7378>
   1a5c0:	ee4fb0ef          	jal	ra,15ca4 <sigprocmask@plt+0x2c44>
   1a5c4:	00050a13          	mv	s4,a0
   1a5c8:	e11ff06f          	j	1a3d8 <sigprocmask@plt+0x7378>
   1a5cc:	d681b783          	ld	a5,-664(gp)
   1a5d0:	fd010113          	addi	sp,sp,-48
   1a5d4:	02813023          	sd	s0,32(sp)
   1a5d8:	0407a703          	lw	a4,64(a5)
   1a5dc:	02113423          	sd	ra,40(sp)
   1a5e0:	00913c23          	sd	s1,24(sp)
   1a5e4:	01213823          	sd	s2,16(sp)
   1a5e8:	01313423          	sd	s3,8(sp)
   1a5ec:	0017071b          	addiw	a4,a4,1
   1a5f0:	00050413          	mv	s0,a0
   1a5f4:	04e7a023          	sw	a4,64(a5)
   1a5f8:	01852903          	lw	s2,24(a0)
   1a5fc:	01053983          	ld	s3,16(a0)
   1a600:	05478493          	addi	s1,a5,84
   1a604:	fff9091b          	addiw	s2,s2,-1
   1a608:	02095c63          	bgez	s2,1a640 <sigprocmask@plt+0x75e0>
   1a60c:	01043503          	ld	a0,16(s0)
   1a610:	00850463          	beq	a0,s0,1a618 <sigprocmask@plt+0x75b8>
   1a614:	a3df80ef          	jal	ra,13050 <free@plt>
   1a618:	01c45783          	lhu	a5,28(s0)
   1a61c:	dff7f793          	andi	a5,a5,-513
   1a620:	00f41e23          	sh	a5,28(s0)
   1a624:	ce01b703          	ld	a4,-800(gp)
   1a628:	ce018793          	addi	a5,gp,-800
   1a62c:	02073683          	ld	a3,32(a4)
   1a630:	02e40263          	beq	s0,a4,1a654 <sigprocmask@plt+0x75f4>
   1a634:	02070793          	addi	a5,a4,32
   1a638:	00068713          	mv	a4,a3
   1a63c:	ff1ff06f          	j	1a62c <sigprocmask@plt+0x75cc>
   1a640:	0089b503          	ld	a0,8(s3)
   1a644:	00950463          	beq	a0,s1,1a64c <sigprocmask@plt+0x75ec>
   1a648:	a09f80ef          	jal	ra,13050 <free@plt>
   1a64c:	01098993          	addi	s3,s3,16
   1a650:	fb5ff06f          	j	1a604 <sigprocmask@plt+0x75a4>
   1a654:	02013403          	ld	s0,32(sp)
   1a658:	02813083          	ld	ra,40(sp)
   1a65c:	01813483          	ld	s1,24(sp)
   1a660:	01013903          	ld	s2,16(sp)
   1a664:	00813983          	ld	s3,8(sp)
   1a668:	00d7b023          	sd	a3,0(a5)
   1a66c:	03010113          	addi	sp,sp,48
   1a670:	a98fb06f          	j	15908 <sigprocmask@plt+0x28a8>
   1a674:	fc010113          	addi	sp,sp,-64
   1a678:	01313c23          	sd	s3,24(sp)
   1a67c:	01513423          	sd	s5,8(sp)
   1a680:	da81a783          	lw	a5,-600(gp)
   1a684:	03213023          	sd	s2,32(sp)
   1a688:	d181b903          	ld	s2,-744(gp)
   1a68c:	1ff00693          	li	a3,511
   1a690:	08100613          	li	a2,129
   1a694:	02813823          	sd	s0,48(sp)
   1a698:	01413823          	sd	s4,16(sp)
   1a69c:	02113c23          	sd	ra,56(sp)
   1a6a0:	02913423          	sd	s1,40(sp)
   1a6a4:	00050a13          	mv	s4,a0
   1a6a8:	0007871b          	sext.w	a4,a5
   1a6ac:	00090413          	mv	s0,s2
   1a6b0:	da818993          	addi	s3,gp,-600
   1a6b4:	d1818a93          	addi	s5,gp,-744
   1a6b8:	02069693          	slli	a3,a3,0x20
   1a6bc:	02161613          	slli	a2,a2,0x21
   1a6c0:	fff7071b          	addiw	a4,a4,-1
   1a6c4:	12075463          	bgez	a4,1a7ec <sigprocmask@plt+0x778c>
   1a6c8:	02079793          	slli	a5,a5,0x20
   1a6cc:	0207d793          	srli	a5,a5,0x20
   1a6d0:	02800493          	li	s1,40
   1a6d4:	029784b3          	mul	s1,a5,s1
   1a6d8:	00090513          	mv	a0,s2
   1a6dc:	0a048593          	addi	a1,s1,160
   1a6e0:	e5df90ef          	jal	ra,1453c <sigprocmask@plt+0x14dc>
   1a6e4:	41250633          	sub	a2,a0,s2
   1a6e8:	00950433          	add	s0,a0,s1
   1a6ec:	03250263          	beq	a0,s2,1a710 <sigprocmask@plt+0x76b0>
   1a6f0:	00040713          	mv	a4,s0
   1a6f4:	00048793          	mv	a5,s1
   1a6f8:	0c079263          	bnez	a5,1a7bc <sigprocmask@plt+0x775c>
   1a6fc:	ce018793          	addi	a5,gp,-800
   1a700:	0007b703          	ld	a4,0(a5)
   1a704:	00070663          	beqz	a4,1a710 <sigprocmask@plt+0x76b0>
   1a708:	00c70733          	add	a4,a4,a2
   1a70c:	00e7b023          	sd	a4,0(a5)
   1a710:	0009a783          	lw	a5,0(s3)
   1a714:	00aab023          	sd	a0,0(s5)
   1a718:	0047879b          	addiw	a5,a5,4
   1a71c:	00f9a023          	sw	a5,0(s3)
   1a720:	09445783          	lhu	a5,148(s0)
   1a724:	dff7f793          	andi	a5,a5,-513
   1a728:	08f41a23          	sh	a5,148(s0)
   1a72c:	06c45783          	lhu	a5,108(s0)
   1a730:	dff7f793          	andi	a5,a5,-513
   1a734:	06f41623          	sh	a5,108(s0)
   1a738:	04445783          	lhu	a5,68(s0)
   1a73c:	dff7f793          	andi	a5,a5,-513
   1a740:	04f41223          	sh	a5,68(s0)
   1a744:	01c45783          	lhu	a5,28(s0)
   1a748:	dff7f793          	andi	a5,a5,-513
   1a74c:	00f41e23          	sh	a5,28(s0)
   1a750:	02800613          	li	a2,40
   1a754:	00000593          	li	a1,0
   1a758:	00040513          	mv	a0,s0
   1a75c:	e04f80ef          	jal	ra,12d60 <memset@plt>
   1a760:	ce018793          	addi	a5,gp,-800
   1a764:	0007b703          	ld	a4,0(a5)
   1a768:	0087b023          	sd	s0,0(a5)
   1a76c:	01c45783          	lhu	a5,28(s0)
   1a770:	02e43023          	sd	a4,32(s0)
   1a774:	00843823          	sd	s0,16(s0)
   1a778:	2007e793          	ori	a5,a5,512
   1a77c:	00f41e23          	sh	a5,28(s0)
   1a780:	00100793          	li	a5,1
   1a784:	0147d863          	bge	a5,s4,1a794 <sigprocmask@plt+0x7734>
   1a788:	004a1513          	slli	a0,s4,0x4
   1a78c:	d81f90ef          	jal	ra,1450c <sigprocmask@plt+0x14ac>
   1a790:	00a43823          	sd	a0,16(s0)
   1a794:	03813083          	ld	ra,56(sp)
   1a798:	00040513          	mv	a0,s0
   1a79c:	03013403          	ld	s0,48(sp)
   1a7a0:	02813483          	ld	s1,40(sp)
   1a7a4:	02013903          	ld	s2,32(sp)
   1a7a8:	01813983          	ld	s3,24(sp)
   1a7ac:	01013a03          	ld	s4,16(sp)
   1a7b0:	00813a83          	ld	s5,8(sp)
   1a7b4:	04010113          	addi	sp,sp,64
   1a7b8:	00008067          	ret
   1a7bc:	fe873683          	ld	a3,-24(a4)
   1a7c0:	fd878793          	addi	a5,a5,-40
   1a7c4:	00f905b3          	add	a1,s2,a5
   1a7c8:	00b69663          	bne	a3,a1,1a7d4 <sigprocmask@plt+0x7774>
   1a7cc:	00c686b3          	add	a3,a3,a2
   1a7d0:	fed73423          	sd	a3,-24(a4)
   1a7d4:	ff873683          	ld	a3,-8(a4)
   1a7d8:	00068663          	beqz	a3,1a7e4 <sigprocmask@plt+0x7784>
   1a7dc:	00c686b3          	add	a3,a3,a2
   1a7e0:	fed73c23          	sd	a3,-8(a4)
   1a7e4:	fd870713          	addi	a4,a4,-40
   1a7e8:	f11ff06f          	j	1a6f8 <sigprocmask@plt+0x7698>
   1a7ec:	01c45583          	lhu	a1,28(s0)
   1a7f0:	2005f593          	andi	a1,a1,512
   1a7f4:	f4058ee3          	beqz	a1,1a750 <sigprocmask@plt+0x76f0>
   1a7f8:	01843583          	ld	a1,24(s0)
   1a7fc:	00d5f5b3          	and	a1,a1,a3
   1a800:	00c58663          	beq	a1,a2,1a80c <sigprocmask@plt+0x77ac>
   1a804:	02840413          	addi	s0,s0,40
   1a808:	eb9ff06f          	j	1a6c0 <sigprocmask@plt+0x7660>
   1a80c:	00040513          	mv	a0,s0
   1a810:	dbdff0ef          	jal	ra,1a5cc <sigprocmask@plt+0x756c>
   1a814:	f3dff06f          	j	1a750 <sigprocmask@plt+0x76f0>
   1a818:	fe010113          	addi	sp,sp,-32
   1a81c:	00813823          	sd	s0,16(sp)
   1a820:	00050593          	mv	a1,a0
   1a824:	00050413          	mv	s0,a0
   1a828:	00a03533          	snez	a0,a0
   1a82c:	00113c23          	sd	ra,24(sp)
   1a830:	00913423          	sd	s1,8(sp)
   1a834:	921fd0ef          	jal	ra,18154 <sigprocmask@plt+0x50f4>
   1a838:	02041263          	bnez	s0,1a85c <sigprocmask@plt+0x77fc>
   1a83c:	d681b783          	ld	a5,-664(gp)
   1a840:	0007c483          	lbu	s1,0(a5)
   1a844:	01813083          	ld	ra,24(sp)
   1a848:	01013403          	ld	s0,16(sp)
   1a84c:	00048513          	mv	a0,s1
   1a850:	00813483          	ld	s1,8(sp)
   1a854:	02010113          	addi	sp,sp,32
   1a858:	00008067          	ret
   1a85c:	00040513          	mv	a0,s0
   1a860:	e9cfa0ef          	jal	ra,14efc <sigprocmask@plt+0x1e9c>
   1a864:	00050493          	mv	s1,a0
   1a868:	00040513          	mv	a0,s0
   1a86c:	d61ff0ef          	jal	ra,1a5cc <sigprocmask@plt+0x756c>
   1a870:	fd5ff06f          	j	1a844 <sigprocmask@plt+0x77e4>
   1a874:	fb010113          	addi	sp,sp,-80
   1a878:	03413023          	sd	s4,32(sp)
   1a87c:	04813023          	sd	s0,64(sp)
   1a880:	d681b403          	ld	s0,-664(gp)
   1a884:	01613823          	sd	s6,16(sp)
   1a888:	02913c23          	sd	s1,56(sp)
   1a88c:	01042b03          	lw	s6,16(s0)
   1a890:	03213823          	sd	s2,48(sp)
   1a894:	03313423          	sd	s3,40(sp)
   1a898:	01513c23          	sd	s5,24(sp)
   1a89c:	001b079b          	addiw	a5,s6,1
   1a8a0:	04113423          	sd	ra,72(sp)
   1a8a4:	01713423          	sd	s7,8(sp)
   1a8a8:	00050a93          	mv	s5,a0
   1a8ac:	00f42823          	sw	a5,16(s0)
   1a8b0:	e2018513          	addi	a0,gp,-480
   1a8b4:	00058493          	mv	s1,a1
   1a8b8:	00060913          	mv	s2,a2
   1a8bc:	c7818993          	addi	s3,gp,-904
   1a8c0:	b3cfb0ef          	jal	ra,15bfc <sigprocmask@plt+0x2b9c>
   1a8c4:	0009b783          	ld	a5,0(s3)
   1a8c8:	00c7a503          	lw	a0,12(a5)
   1a8cc:	00a05863          	blez	a0,1a8dc <sigprocmask@plt+0x787c>
   1a8d0:	f30f80ef          	jal	ra,13000 <close@plt>
   1a8d4:	0009b783          	ld	a5,0(s3)
   1a8d8:	0007a623          	sw	zero,12(a5)
   1a8dc:	00200793          	li	a5,2
   1a8e0:	04f91263          	bne	s2,a5,1a924 <sigprocmask@plt+0x78c4>
   1a8e4:	04048063          	beqz	s1,1a924 <sigprocmask@plt+0x78c4>
   1a8e8:	0004a783          	lw	a5,0(s1)
   1a8ec:	02079c63          	bnez	a5,1a924 <sigprocmask@plt+0x78c4>
   1a8f0:	0104b483          	ld	s1,16(s1)
   1a8f4:	02048863          	beqz	s1,1a924 <sigprocmask@plt+0x78c4>
   1a8f8:	0104b503          	ld	a0,16(s1)
   1a8fc:	000245b7          	lui	a1,0x24
   1a900:	ee058593          	addi	a1,a1,-288 # 23ee0 <sigprocmask@plt+0x10e80>
   1a904:	cecf80ef          	jal	ra,12df0 <strcmp@plt>
   1a908:	00051e63          	bnez	a0,1a924 <sigprocmask@plt+0x78c4>
   1a90c:	0084b783          	ld	a5,8(s1)
   1a910:	00079a63          	bnez	a5,1a924 <sigprocmask@plt+0x78c4>
   1a914:	20800593          	li	a1,520
   1a918:	0e840513          	addi	a0,s0,232
   1a91c:	cd1f90ef          	jal	ra,145ec <sigprocmask@plt+0x158c>
   1a920:	2ea43823          	sd	a0,752(s0)
   1a924:	04042783          	lw	a5,64(s0)
   1a928:	0017879b          	addiw	a5,a5,1
   1a92c:	04f42023          	sw	a5,64(s0)
   1a930:	d681b983          	ld	s3,-664(gp)
   1a934:	0e898a13          	addi	s4,s3,232
   1a938:	2f098b93          	addi	s7,s3,752
   1a93c:	000a0493          	mv	s1,s4
   1a940:	05749c63          	bne	s1,s7,1a998 <sigprocmask@plt+0x7938>
   1a944:	0e098223          	sb	zero,228(s3)
   1a948:	fc1fa0ef          	jal	ra,15908 <sigprocmask@plt+0x28a8>
   1a94c:	00100793          	li	a5,1
   1a950:	08f91263          	bne	s2,a5,1a9d4 <sigprocmask@plt+0x7974>
   1a954:	00200513          	li	a0,2
   1a958:	e85fa0ef          	jal	ra,157dc <sigprocmask@plt+0x277c>
   1a95c:	00300513          	li	a0,3
   1a960:	e7dfa0ef          	jal	ra,157dc <sigprocmask@plt+0x277c>
   1a964:	018aa783          	lw	a5,24(s5)
   1a968:	06079663          	bnez	a5,1a9d4 <sigprocmask@plt+0x7974>
   1a96c:	00000513          	li	a0,0
   1a970:	e90f80ef          	jal	ra,13000 <close@plt>
   1a974:	000244b7          	lui	s1,0x24
   1a978:	00000593          	li	a1,0
   1a97c:	ee848513          	addi	a0,s1,-280 # 23ee8 <sigprocmask@plt+0x10e88>
   1a980:	e00f80ef          	jal	ra,12f80 <open@plt>
   1a984:	04050863          	beqz	a0,1a9d4 <sigprocmask@plt+0x7974>
   1a988:	00024537          	lui	a0,0x24
   1a98c:	ee848593          	addi	a1,s1,-280
   1a990:	c8050513          	addi	a0,a0,-896 # 23c80 <sigprocmask@plt+0x10c20>
   1a994:	8d1fb0ef          	jal	ra,16264 <sigprocmask@plt+0x3204>
   1a998:	0004b503          	ld	a0,0(s1)
   1a99c:	02050863          	beqz	a0,1a9cc <sigprocmask@plt+0x796c>
   1a9a0:	00054783          	lbu	a5,0(a0)
   1a9a4:	02078463          	beqz	a5,1a9cc <sigprocmask@plt+0x796c>
   1a9a8:	2f09b783          	ld	a5,752(s3)
   1a9ac:	00fa1463          	bne	s4,a5,1a9b4 <sigprocmask@plt+0x7954>
   1a9b0:	ea0f80ef          	jal	ra,13050 <free@plt>
   1a9b4:	0004b023          	sd	zero,0(s1)
   1a9b8:	009a0a63          	beq	s4,s1,1a9cc <sigprocmask@plt+0x796c>
   1a9bc:	41448533          	sub	a0,s1,s4
   1a9c0:	40355513          	srai	a0,a0,0x3
   1a9c4:	0005051b          	sext.w	a0,a0
   1a9c8:	c95fa0ef          	jal	ra,1565c <sigprocmask@plt+0x25fc>
   1a9cc:	00848493          	addi	s1,s1,8
   1a9d0:	f71ff06f          	j	1a940 <sigprocmask@plt+0x78e0>
   1a9d4:	020b1263          	bnez	s6,1a9f8 <sigprocmask@plt+0x7998>
   1a9d8:	05844783          	lbu	a5,88(s0)
   1a9dc:	00078a63          	beqz	a5,1a9f0 <sigprocmask@plt+0x7990>
   1a9e0:	00200513          	li	a0,2
   1a9e4:	c79fa0ef          	jal	ra,1565c <sigprocmask@plt+0x25fc>
   1a9e8:	00f00513          	li	a0,15
   1a9ec:	c71fa0ef          	jal	ra,1565c <sigprocmask@plt+0x25fc>
   1a9f0:	00300513          	li	a0,3
   1a9f4:	c69fa0ef          	jal	ra,1565c <sigprocmask@plt+0x25fc>
   1a9f8:	ce01b403          	ld	s0,-800(gp)
   1a9fc:	02041863          	bnez	s0,1aa2c <sigprocmask@plt+0x79cc>
   1aa00:	04813083          	ld	ra,72(sp)
   1aa04:	04013403          	ld	s0,64(sp)
   1aa08:	03813483          	ld	s1,56(sp)
   1aa0c:	03013903          	ld	s2,48(sp)
   1aa10:	02813983          	ld	s3,40(sp)
   1aa14:	02013a03          	ld	s4,32(sp)
   1aa18:	01813a83          	ld	s5,24(sp)
   1aa1c:	01013b03          	ld	s6,16(sp)
   1aa20:	00813b83          	ld	s7,8(sp)
   1aa24:	05010113          	addi	sp,sp,80
   1aa28:	00008067          	ret
   1aa2c:	00040513          	mv	a0,s0
   1aa30:	b9dff0ef          	jal	ra,1a5cc <sigprocmask@plt+0x756c>
   1aa34:	02043403          	ld	s0,32(s0)
   1aa38:	fc5ff06f          	j	1a9fc <sigprocmask@plt+0x799c>
   1aa3c:	fd010113          	addi	sp,sp,-48
   1aa40:	02813023          	sd	s0,32(sp)
   1aa44:	00b13423          	sd	a1,8(sp)
   1aa48:	00c13023          	sd	a2,0(sp)
   1aa4c:	02113423          	sd	ra,40(sp)
   1aa50:	00913c23          	sd	s1,24(sp)
   1aa54:	00050413          	mv	s0,a0
   1aa58:	a78f80ef          	jal	ra,12cd0 <fork@plt>
   1aa5c:	00013603          	ld	a2,0(sp)
   1aa60:	00813583          	ld	a1,8(sp)
   1aa64:	00055e63          	bgez	a0,1aa80 <sigprocmask@plt+0x7a20>
   1aa68:	00040663          	beqz	s0,1aa74 <sigprocmask@plt+0x7a14>
   1aa6c:	00040513          	mv	a0,s0
   1aa70:	b5dff0ef          	jal	ra,1a5cc <sigprocmask@plt+0x756c>
   1aa74:	00024537          	lui	a0,0x24
   1aa78:	ef850513          	addi	a0,a0,-264 # 23ef8 <sigprocmask@plt+0x10e98>
   1aa7c:	fe8fb0ef          	jal	ra,16264 <sigprocmask@plt+0x3204>
   1aa80:	00050493          	mv	s1,a0
   1aa84:	02051263          	bnez	a0,1aaa8 <sigprocmask@plt+0x7a48>
   1aa88:	00040513          	mv	a0,s0
   1aa8c:	de9ff0ef          	jal	ra,1a874 <sigprocmask@plt+0x7814>
   1aa90:	02813083          	ld	ra,40(sp)
   1aa94:	02013403          	ld	s0,32(sp)
   1aa98:	00048513          	mv	a0,s1
   1aa9c:	01813483          	ld	s1,24(sp)
   1aaa0:	03010113          	addi	sp,sp,48
   1aaa4:	00008067          	ret
   1aaa8:	fe0404e3          	beqz	s0,1aa90 <sigprocmask@plt+0x7a30>
   1aaac:	d681b683          	ld	a3,-664(gp)
   1aab0:	00100793          	li	a5,1
   1aab4:	02f61c63          	bne	a2,a5,1aaec <sigprocmask@plt+0x7a8c>
   1aab8:	ce01b703          	ld	a4,-800(gp)
   1aabc:	ce018613          	addi	a2,gp,-800
   1aac0:	2ea6ac23          	sw	a0,760(a3)
   1aac4:	ce018793          	addi	a5,gp,-800
   1aac8:	02073583          	ld	a1,32(a4)
   1aacc:	00e40863          	beq	s0,a4,1aadc <sigprocmask@plt+0x7a7c>
   1aad0:	02070613          	addi	a2,a4,32
   1aad4:	00058713          	mv	a4,a1
   1aad8:	ff1ff06f          	j	1aac8 <sigprocmask@plt+0x7a68>
   1aadc:	00b63023          	sd	a1,0(a2)
   1aae0:	0007b703          	ld	a4,0(a5)
   1aae4:	0087b023          	sd	s0,0(a5)
   1aae8:	02e43023          	sd	a4,32(s0)
   1aaec:	01842783          	lw	a5,24(s0)
   1aaf0:	01043703          	ld	a4,16(s0)
   1aaf4:	05468693          	addi	a3,a3,84
   1aaf8:	0017861b          	addiw	a2,a5,1
   1aafc:	02079793          	slli	a5,a5,0x20
   1ab00:	01c7d793          	srli	a5,a5,0x1c
   1ab04:	00f707b3          	add	a5,a4,a5
   1ab08:	00c42c23          	sw	a2,24(s0)
   1ab0c:	fff00713          	li	a4,-1
   1ab10:	0097a023          	sw	s1,0(a5)
   1ab14:	00e7a223          	sw	a4,4(a5)
   1ab18:	00d7b423          	sd	a3,8(a5)
   1ab1c:	f75ff06f          	j	1aa90 <sigprocmask@plt+0x7a30>
   1ab20:	fb010113          	addi	sp,sp,-80
   1ab24:	00024537          	lui	a0,0x24
   1ab28:	02010593          	addi	a1,sp,32
   1ab2c:	f0850513          	addi	a0,a0,-248 # 23f08 <sigprocmask@plt+0x10ea8>
   1ab30:	00113c23          	sd	ra,24(sp)
   1ab34:	02c13023          	sd	a2,32(sp)
   1ab38:	02d13423          	sd	a3,40(sp)
   1ab3c:	02e13823          	sd	a4,48(sp)
   1ab40:	02f13c23          	sd	a5,56(sp)
   1ab44:	05013023          	sd	a6,64(sp)
   1ab48:	05113423          	sd	a7,72(sp)
   1ab4c:	00b13423          	sd	a1,8(sp)
   1ab50:	e4cfb0ef          	jal	ra,1619c <sigprocmask@plt+0x313c>
   1ab54:	f71fa0ef          	jal	ra,15ac4 <sigprocmask@plt+0x2a64>
   1ab58:	00300513          	li	a0,3
   1ab5c:	df0fa0ef          	jal	ra,1514c <sigprocmask@plt+0x20ec>
   1ab60:	f9010113          	addi	sp,sp,-112
   1ab64:	06813023          	sd	s0,96(sp)
   1ab68:	05213823          	sd	s2,80(sp)
   1ab6c:	00050413          	mv	s0,a0
   1ab70:	00c13423          	sd	a2,8(sp)
   1ab74:	00058913          	mv	s2,a1
   1ab78:	00000613          	li	a2,0
   1ab7c:	02000593          	li	a1,32
   1ab80:	00100513          	li	a0,1
   1ab84:	05313423          	sd	s3,72(sp)
   1ab88:	05413023          	sd	s4,64(sp)
   1ab8c:	06113423          	sd	ra,104(sp)
   1ab90:	04913c23          	sd	s1,88(sp)
   1ab94:	03513c23          	sd	s5,56(sp)
   1ab98:	03613823          	sd	s6,48(sp)
   1ab9c:	03713423          	sd	s7,40(sp)
   1aba0:	03813023          	sd	s8,32(sp)
   1aba4:	01913c23          	sd	s9,24(sp)
   1aba8:	00068993          	mv	s3,a3
   1abac:	a30fc0ef          	jal	ra,16ddc <sigprocmask@plt+0x3d7c>
   1abb0:	00050a13          	mv	s4,a0
   1abb4:	02f00593          	li	a1,47
   1abb8:	00040513          	mv	a0,s0
   1abbc:	bd4f80ef          	jal	ra,12f90 <strchr@plt>
   1abc0:	0a050c63          	beqz	a0,1ac78 <sigprocmask@plt+0x7c18>
   1abc4:	000a0613          	mv	a2,s4
   1abc8:	00090593          	mv	a1,s2
   1abcc:	00040513          	mv	a0,s0
   1abd0:	9e9fa0ef          	jal	ra,155b8 <sigprocmask@plt+0x2558>
   1abd4:	ca01b783          	ld	a5,-864(gp)
   1abd8:	0007a483          	lw	s1,0(a5)
   1abdc:	02800693          	li	a3,40
   1abe0:	0004871b          	sext.w	a4,s1
   1abe4:	07e00793          	li	a5,126
   1abe8:	0096ee63          	bltu	a3,s1,1ac04 <sigprocmask@plt+0x7ba4>
   1abec:	00100793          	li	a5,1
   1abf0:	00e797b3          	sll	a5,a5,a4
   1abf4:	c181b703          	ld	a4,-1000(gp)
   1abf8:	00e7f7b3          	and	a5,a5,a4
   1abfc:	00f037b3          	snez	a5,a5
   1ac00:	07e78793          	addi	a5,a5,126
   1ac04:	d681b703          	ld	a4,-664(gp)
   1ac08:	000245b7          	lui	a1,0x24
   1ac0c:	f1058593          	addi	a1,a1,-240 # 23f10 <sigprocmask@plt+0x10eb0>
   1ac10:	00f70023          	sb	a5,0(a4)
   1ac14:	00048513          	mv	a0,s1
   1ac18:	965fa0ef          	jal	ra,1557c <sigprocmask@plt+0x251c>
   1ac1c:	000245b7          	lui	a1,0x24
   1ac20:	00050693          	mv	a3,a0
   1ac24:	00040613          	mv	a2,s0
   1ac28:	f0858593          	addi	a1,a1,-248 # 23f08 <sigprocmask@plt+0x10ea8>
   1ac2c:	00300513          	li	a0,3
   1ac30:	ef1ff0ef          	jal	ra,1ab20 <sigprocmask@plt+0x7ac0>
   1ac34:	fff9899b          	addiw	s3,s3,-1
   1ac38:	0209d663          	bgez	s3,1ac64 <sigprocmask@plt+0x7c04>
   1ac3c:	d481b783          	ld	a5,-696(gp)
   1ac40:	02079263          	bnez	a5,1ac64 <sigprocmask@plt+0x7c04>
   1ac44:	008c3503          	ld	a0,8(s8)
   1ac48:	000a0613          	mv	a2,s4
   1ac4c:	00090593          	mv	a1,s2
   1ac50:	969fa0ef          	jal	ra,155b8 <sigprocmask@plt+0x2558>
   1ac54:	000ca783          	lw	a5,0(s9)
   1ac58:	01678663          	beq	a5,s6,1ac64 <sigprocmask@plt+0x7c04>
   1ac5c:	01778463          	beq	a5,s7,1ac64 <sigprocmask@plt+0x7c04>
   1ac60:	00078493          	mv	s1,a5
   1ac64:	00093583          	ld	a1,0(s2)
   1ac68:	00810513          	addi	a0,sp,8
   1ac6c:	9c4fd0ef          	jal	ra,17e30 <sigprocmask@plt+0x4dd0>
   1ac70:	fc0552e3          	bgez	a0,1ac34 <sigprocmask@plt+0x7bd4>
   1ac74:	f69ff06f          	j	1abdc <sigprocmask@plt+0x7b7c>
   1ac78:	d601b783          	ld	a5,-672(gp)
   1ac7c:	00200493          	li	s1,2
   1ac80:	00078c13          	mv	s8,a5
   1ac84:	ca01b783          	ld	a5,-864(gp)
   1ac88:	00200b13          	li	s6,2
   1ac8c:	01400b93          	li	s7,20
   1ac90:	00078c93          	mv	s9,a5
   1ac94:	fd1ff06f          	j	1ac64 <sigprocmask@plt+0x7c04>
   1ac98:	fd010113          	addi	sp,sp,-48
   1ac9c:	02813023          	sd	s0,32(sp)
   1aca0:	00913c23          	sd	s1,24(sp)
   1aca4:	02113423          	sd	ra,40(sp)
   1aca8:	d201bc23          	sd	zero,-712(gp)
   1acac:	d3818413          	addi	s0,gp,-712
   1acb0:	000244b7          	lui	s1,0x24
   1acb4:	f2048513          	addi	a0,s1,-224 # 23f20 <sigprocmask@plt+0x10ec0>
   1acb8:	df4fb0ef          	jal	ra,162ac <sigprocmask@plt+0x324c>
   1acbc:	fe051ce3          	bnez	a0,1acb4 <sigprocmask@plt+0x7c54>
   1acc0:	cb81b583          	ld	a1,-840(gp)
   1acc4:	0005b783          	ld	a5,0(a1)
   1acc8:	00b13423          	sd	a1,8(sp)
   1accc:	04078663          	beqz	a5,1ad18 <sigprocmask@plt+0x7cb8>
   1acd0:	d681b483          	ld	s1,-664(gp)
   1acd4:	04049c23          	sh	zero,88(s1)
   1acd8:	b0cfb0ef          	jal	ra,15fe4 <sigprocmask@plt+0x2f84>
   1acdc:	0104a783          	lw	a5,16(s1)
   1ace0:	00300513          	li	a0,3
   1ace4:	0017879b          	addiw	a5,a5,1
   1ace8:	00f4a823          	sw	a5,16(s1)
   1acec:	971fa0ef          	jal	ra,1565c <sigprocmask@plt+0x25fc>
   1acf0:	00813583          	ld	a1,8(sp)
   1acf4:	00043783          	ld	a5,0(s0)
   1acf8:	0005b503          	ld	a0,0(a1)
   1acfc:	00078463          	beqz	a5,1ad04 <sigprocmask@plt+0x7ca4>
   1ad00:	00f5b023          	sd	a5,0(a1)
   1ad04:	d701b783          	ld	a5,-656(gp)
   1ad08:	00000693          	li	a3,0
   1ad0c:	1887b603          	ld	a2,392(a5)
   1ad10:	00560613          	addi	a2,a2,5
   1ad14:	e4dff0ef          	jal	ra,1ab60 <sigprocmask@plt+0x7b00>
   1ad18:	02813083          	ld	ra,40(sp)
   1ad1c:	02013403          	ld	s0,32(sp)
   1ad20:	01813483          	ld	s1,24(sp)
   1ad24:	03010113          	addi	sp,sp,48
   1ad28:	00008067          	ret
   1ad2c:	000277b7          	lui	a5,0x27
   1ad30:	e387b583          	ld	a1,-456(a5) # 26e38 <stdout>
   1ad34:	d681b703          	ld	a4,-664(gp)
   1ad38:	ff010113          	addi	sp,sp,-16
   1ad3c:	00113423          	sd	ra,8(sp)
   1ad40:	04072783          	lw	a5,64(a4)
   1ad44:	0017879b          	addiw	a5,a5,1
   1ad48:	04f72023          	sw	a5,64(a4)
   1ad4c:	e55f70ef          	jal	ra,12ba0 <fputs_unlocked@plt>
   1ad50:	00813083          	ld	ra,8(sp)
   1ad54:	01010113          	addi	sp,sp,16
   1ad58:	bb1fa06f          	j	15908 <sigprocmask@plt+0x28a8>
   1ad5c:	fc010113          	addi	sp,sp,-64
   1ad60:	02113c23          	sd	ra,56(sp)
   1ad64:	02813823          	sd	s0,48(sp)
   1ad68:	02913423          	sd	s1,40(sp)
   1ad6c:	03213023          	sd	s2,32(sp)
   1ad70:	00058493          	mv	s1,a1
   1ad74:	01313c23          	sd	s3,24(sp)
   1ad78:	01413823          	sd	s4,16(sp)
   1ad7c:	00050913          	mv	s2,a0
   1ad80:	890fa0ef          	jal	ra,14e10 <sigprocmask@plt+0x1db0>
   1ad84:	d681ba03          	ld	s4,-664(gp)
   1ad88:	00090593          	mv	a1,s2
   1ad8c:	8d4fa0ef          	jal	ra,14e60 <sigprocmask@plt+0x1e00>
   1ad90:	060a4403          	lbu	s0,96(s4)
   1ad94:	00050993          	mv	s3,a0
   1ad98:	00147413          	andi	s0,s0,1
   1ad9c:	00946433          	or	s0,s0,s1
   1ada0:	00053483          	ld	s1,0(a0)
   1ada4:	08047713          	andi	a4,s0,128
   1ada8:	12048263          	beqz	s1,1aecc <sigprocmask@plt+0x7e6c>
   1adac:	0084a783          	lw	a5,8(s1)
   1adb0:	0027f793          	andi	a5,a5,2
   1adb4:	04078263          	beqz	a5,1adf8 <sigprocmask@plt+0x7d98>
   1adb8:	10047413          	andi	s0,s0,256
   1adbc:	00040663          	beqz	s0,1adc8 <sigprocmask@plt+0x7d68>
   1adc0:	00090513          	mv	a0,s2
   1adc4:	a8cf80ef          	jal	ra,13050 <free@plt>
   1adc8:	0104b603          	ld	a2,16(s1)
   1adcc:	00100793          	li	a5,1
   1add0:	03d00593          	li	a1,61
   1add4:	00060513          	mv	a0,a2
   1add8:	00fa0023          	sb	a5,0(s4)
   1addc:	00c13423          	sd	a2,8(sp)
   1ade0:	9e0f80ef          	jal	ra,12fc0 <strchrnul@plt>
   1ade4:	00813603          	ld	a2,8(sp)
   1ade8:	40c505b3          	sub	a1,a0,a2
   1adec:	00024537          	lui	a0,0x24
   1adf0:	f2850513          	addi	a0,a0,-216 # 23f28 <sigprocmask@plt+0x10ec8>
   1adf4:	c70fb0ef          	jal	ra,16264 <sigprocmask@plt+0x3204>
   1adf8:	06071263          	bnez	a4,1ae5c <sigprocmask@plt+0x7dfc>
   1adfc:	0184b783          	ld	a5,24(s1)
   1ae00:	00078663          	beqz	a5,1ae0c <sigprocmask@plt+0x7dac>
   1ae04:	04047713          	andi	a4,s0,64
   1ae08:	08070863          	beqz	a4,1ae98 <sigprocmask@plt+0x7e38>
   1ae0c:	0084a783          	lw	a5,8(s1)
   1ae10:	0187f793          	andi	a5,a5,24
   1ae14:	00079663          	bnez	a5,1ae20 <sigprocmask@plt+0x7dc0>
   1ae18:	0104b503          	ld	a0,16(s1)
   1ae1c:	a34f80ef          	jal	ra,13050 <free@plt>
   1ae20:	0084a703          	lw	a4,8(s1)
   1ae24:	02747793          	andi	a5,s0,39
   1ae28:	00477693          	andi	a3,a4,4
   1ae2c:	00d7e7b3          	or	a5,a5,a3
   1ae30:	02000693          	li	a3,32
   1ae34:	06d79863          	bne	a5,a3,1aea4 <sigprocmask@plt+0x7e44>
   1ae38:	0004b783          	ld	a5,0(s1)
   1ae3c:	00048513          	mv	a0,s1
   1ae40:	00f9b023          	sd	a5,0(s3)
   1ae44:	a0cf80ef          	jal	ra,13050 <free@plt>
   1ae48:	11847413          	andi	s0,s0,280
   1ae4c:	10000793          	li	a5,256
   1ae50:	00f41663          	bne	s0,a5,1ae5c <sigprocmask@plt+0x7dfc>
   1ae54:	00090513          	mv	a0,s2
   1ae58:	9f8f80ef          	jal	ra,13050 <free@plt>
   1ae5c:	03813083          	ld	ra,56(sp)
   1ae60:	03013403          	ld	s0,48(sp)
   1ae64:	02013903          	ld	s2,32(sp)
   1ae68:	01813983          	ld	s3,24(sp)
   1ae6c:	01013a03          	ld	s4,16(sp)
   1ae70:	00048513          	mv	a0,s1
   1ae74:	02813483          	ld	s1,40(sp)
   1ae78:	04010113          	addi	sp,sp,64
   1ae7c:	00008067          	ret
   1ae80:	00150513          	addi	a0,a0,1
   1ae84:	00d70663          	beq	a4,a3,1ae90 <sigprocmask@plt+0x7e30>
   1ae88:	00054703          	lbu	a4,0(a0)
   1ae8c:	fe071ae3          	bnez	a4,1ae80 <sigprocmask@plt+0x7e20>
   1ae90:	000780e7          	jalr	a5
   1ae94:	f79ff06f          	j	1ae0c <sigprocmask@plt+0x7dac>
   1ae98:	00090513          	mv	a0,s2
   1ae9c:	03d00693          	li	a3,61
   1aea0:	fe9ff06f          	j	1ae88 <sigprocmask@plt+0x7e28>
   1aea4:	ec777713          	andi	a4,a4,-313
   1aea8:	00e46433          	or	s0,s0,a4
   1aeac:	11847793          	andi	a5,s0,280
   1aeb0:	00079863          	bnez	a5,1aec0 <sigprocmask@plt+0x7e60>
   1aeb4:	00090513          	mv	a0,s2
   1aeb8:	eecf90ef          	jal	ra,145a4 <sigprocmask@plt+0x1544>
   1aebc:	00050913          	mv	s2,a0
   1aec0:	0124b823          	sd	s2,16(s1)
   1aec4:	0084a423          	sw	s0,8(s1)
   1aec8:	f95ff06f          	j	1ae5c <sigprocmask@plt+0x7dfc>
   1aecc:	f80718e3          	bnez	a4,1ae5c <sigprocmask@plt+0x7dfc>
   1aed0:	02747793          	andi	a5,s0,39
   1aed4:	02000713          	li	a4,32
   1aed8:	f6e788e3          	beq	a5,a4,1ae48 <sigprocmask@plt+0x7de8>
   1aedc:	02000513          	li	a0,32
   1aee0:	e8cf90ef          	jal	ra,1456c <sigprocmask@plt+0x150c>
   1aee4:	0009b783          	ld	a5,0(s3)
   1aee8:	00050493          	mv	s1,a0
   1aeec:	00f53023          	sd	a5,0(a0)
   1aef0:	00a9b023          	sd	a0,0(s3)
   1aef4:	fb9ff06f          	j	1aeac <sigprocmask@plt+0x7e4c>
   1aef8:	fb010113          	addi	sp,sp,-80
   1aefc:	04113423          	sd	ra,72(sp)
   1af00:	04813023          	sd	s0,64(sp)
   1af04:	02913c23          	sd	s1,56(sp)
   1af08:	03213823          	sd	s2,48(sp)
   1af0c:	03313423          	sd	s3,40(sp)
   1af10:	03413023          	sd	s4,32(sp)
   1af14:	00050493          	mv	s1,a0
   1af18:	00058413          	mv	s0,a1
   1af1c:	00060913          	mv	s2,a2
   1af20:	01513c23          	sd	s5,24(sp)
   1af24:	581040ef          	jal	ra,1fca4 <sigprocmask@plt+0xcc44>
   1af28:	03d00593          	li	a1,61
   1af2c:	00050993          	mv	s3,a0
   1af30:	890f80ef          	jal	ra,12fc0 <strchrnul@plt>
   1af34:	40950a33          	sub	s4,a0,s1
   1af38:	00950463          	beq	a0,s1,1af40 <sigprocmask@plt+0x7ee0>
   1af3c:	00a98c63          	beq	s3,a0,1af54 <sigprocmask@plt+0x7ef4>
   1af40:	00024537          	lui	a0,0x24
   1af44:	00048613          	mv	a2,s1
   1af48:	000a0593          	mv	a1,s4
   1af4c:	f4050513          	addi	a0,a0,-192 # 23f40 <sigprocmask@plt+0x10ee0>
   1af50:	b14fb0ef          	jal	ra,16264 <sigprocmask@plt+0x3204>
   1af54:	08041a63          	bnez	s0,1afe8 <sigprocmask@plt+0x7f88>
   1af58:	02096913          	ori	s2,s2,32
   1af5c:	00000993          	li	s3,0
   1af60:	d681b703          	ld	a4,-664(gp)
   1af64:	04072783          	lw	a5,64(a4)
   1af68:	0017879b          	addiw	a5,a5,1
   1af6c:	04f72023          	sw	a5,64(a4)
   1af70:	002a0513          	addi	a0,s4,2
   1af74:	01350533          	add	a0,a0,s3
   1af78:	df4f90ef          	jal	ra,1456c <sigprocmask@plt+0x150c>
   1af7c:	000a0613          	mv	a2,s4
   1af80:	00048593          	mv	a1,s1
   1af84:	00050a93          	mv	s5,a0
   1af88:	a89f70ef          	jal	ra,12a10 <memcpy@plt>
   1af8c:	01450533          	add	a0,a0,s4
   1af90:	00040e63          	beqz	s0,1afac <sigprocmask@plt+0x7f4c>
   1af94:	03d00713          	li	a4,61
   1af98:	00e50023          	sb	a4,0(a0)
   1af9c:	00098613          	mv	a2,s3
   1afa0:	00040593          	mv	a1,s0
   1afa4:	00150513          	addi	a0,a0,1
   1afa8:	a69f70ef          	jal	ra,12a10 <memcpy@plt>
   1afac:	10096593          	ori	a1,s2,256
   1afb0:	000a8513          	mv	a0,s5
   1afb4:	da9ff0ef          	jal	ra,1ad5c <sigprocmask@plt+0x7cfc>
   1afb8:	00a13423          	sd	a0,8(sp)
   1afbc:	94dfa0ef          	jal	ra,15908 <sigprocmask@plt+0x28a8>
   1afc0:	04813083          	ld	ra,72(sp)
   1afc4:	04013403          	ld	s0,64(sp)
   1afc8:	00813503          	ld	a0,8(sp)
   1afcc:	03813483          	ld	s1,56(sp)
   1afd0:	03013903          	ld	s2,48(sp)
   1afd4:	02813983          	ld	s3,40(sp)
   1afd8:	02013a03          	ld	s4,32(sp)
   1afdc:	01813a83          	ld	s5,24(sp)
   1afe0:	05010113          	addi	sp,sp,80
   1afe4:	00008067          	ret
   1afe8:	00040513          	mv	a0,s0
   1afec:	f85f70ef          	jal	ra,12f70 <strlen@plt>
   1aff0:	00050993          	mv	s3,a0
   1aff4:	f6dff06f          	j	1af60 <sigprocmask@plt+0x7f00>
   1aff8:	fd010113          	addi	sp,sp,-48
   1affc:	01313423          	sd	s3,8(sp)
   1b000:	d681b983          	ld	s3,-664(gp)
   1b004:	02813023          	sd	s0,32(sp)
   1b008:	00913c23          	sd	s1,24(sp)
   1b00c:	01213823          	sd	s2,16(sp)
   1b010:	02113423          	sd	ra,40(sp)
   1b014:	01413023          	sd	s4,0(sp)
   1b018:	0209b483          	ld	s1,32(s3)
   1b01c:	00050913          	mv	s2,a0
   1b020:	00078413          	mv	s0,a5
   1b024:	00058c63          	beqz	a1,1b03c <sigprocmask@plt+0x7fdc>
   1b028:	00024537          	lui	a0,0x24
   1b02c:	00100613          	li	a2,1
   1b030:	00048593          	mv	a1,s1
   1b034:	f5850513          	addi	a0,a0,-168 # 23f58 <sigprocmask@plt+0x10ef8>
   1b038:	ec1ff0ef          	jal	ra,1aef8 <sigprocmask@plt+0x7e98>
   1b03c:	0409a783          	lw	a5,64(s3)
   1b040:	0017879b          	addiw	a5,a5,1
   1b044:	04f9a023          	sw	a5,64(s3)
   1b048:	d681b983          	ld	s3,-664(gp)
   1b04c:	0289b503          	ld	a0,40(s3)
   1b050:	05498a13          	addi	s4,s3,84
   1b054:	01450863          	beq	a0,s4,1b064 <sigprocmask@plt+0x8004>
   1b058:	00950463          	beq	a0,s1,1b060 <sigprocmask@plt+0x8000>
   1b05c:	ff5f70ef          	jal	ra,13050 <free@plt>
   1b060:	0349b423          	sd	s4,40(s3)
   1b064:	01248463          	beq	s1,s2,1b06c <sigprocmask@plt+0x800c>
   1b068:	04091e63          	bnez	s2,1b0c4 <sigprocmask@plt+0x8064>
   1b06c:	00000593          	li	a1,0
   1b070:	00000513          	li	a0,0
   1b074:	d9df70ef          	jal	ra,12e10 <getcwd@plt>
   1b078:	00050413          	mv	s0,a0
   1b07c:	00051463          	bnez	a0,1b084 <sigprocmask@plt+0x8024>
   1b080:	000a0413          	mv	s0,s4
   1b084:	0289b423          	sd	s0,40(s3)
   1b088:	04090463          	beqz	s2,1b0d0 <sigprocmask@plt+0x8070>
   1b08c:	0299b023          	sd	s1,32(s3)
   1b090:	879fa0ef          	jal	ra,15908 <sigprocmask@plt+0x28a8>
   1b094:	02013403          	ld	s0,32(sp)
   1b098:	02813083          	ld	ra,40(sp)
   1b09c:	01013903          	ld	s2,16(sp)
   1b0a0:	00813983          	ld	s3,8(sp)
   1b0a4:	00013a03          	ld	s4,0(sp)
   1b0a8:	00048593          	mv	a1,s1
   1b0ac:	01813483          	ld	s1,24(sp)
   1b0b0:	00024537          	lui	a0,0x24
   1b0b4:	00100613          	li	a2,1
   1b0b8:	f6050513          	addi	a0,a0,-160 # 23f60 <sigprocmask@plt+0x10f00>
   1b0bc:	03010113          	addi	sp,sp,48
   1b0c0:	e39ff06f          	j	1aef8 <sigprocmask@plt+0x7e98>
   1b0c4:	00090513          	mv	a0,s2
   1b0c8:	cdcf90ef          	jal	ra,145a4 <sigprocmask@plt+0x1544>
   1b0cc:	00050413          	mv	s0,a0
   1b0d0:	fa940ee3          	beq	s0,s1,1b08c <sigprocmask@plt+0x802c>
   1b0d4:	009a0663          	beq	s4,s1,1b0e0 <sigprocmask@plt+0x8080>
   1b0d8:	00048513          	mv	a0,s1
   1b0dc:	f75f70ef          	jal	ra,13050 <free@plt>
   1b0e0:	00040493          	mv	s1,s0
   1b0e4:	fa9ff06f          	j	1b08c <sigprocmask@plt+0x802c>
   1b0e8:	fe010113          	addi	sp,sp,-32
   1b0ec:	00813823          	sd	s0,16(sp)
   1b0f0:	d681b403          	ld	s0,-664(gp)
   1b0f4:	00913423          	sd	s1,8(sp)
   1b0f8:	00113c23          	sd	ra,24(sp)
   1b0fc:	02043483          	ld	s1,32(s0)
   1b100:	aa8fb0ef          	jal	ra,163a8 <sigprocmask@plt+0x3348>
   1b104:	02050063          	beqz	a0,1b124 <sigprocmask@plt+0x80c4>
   1b108:	02843703          	ld	a4,40(s0)
   1b10c:	05440793          	addi	a5,s0,84
   1b110:	00f71863          	bne	a4,a5,1b120 <sigprocmask@plt+0x80c0>
   1b114:	00000593          	li	a1,0
   1b118:	00048513          	mv	a0,s1
   1b11c:	eddff0ef          	jal	ra,1aff8 <sigprocmask@plt+0x7f98>
   1b120:	02843483          	ld	s1,40(s0)
   1b124:	00024537          	lui	a0,0x24
   1b128:	00048593          	mv	a1,s1
   1b12c:	d6050513          	addi	a0,a0,-672 # 23d60 <sigprocmask@plt+0x10d00>
   1b130:	e5dfa0ef          	jal	ra,15f8c <sigprocmask@plt+0x2f2c>
   1b134:	01813083          	ld	ra,24(sp)
   1b138:	01013403          	ld	s0,16(sp)
   1b13c:	00813483          	ld	s1,8(sp)
   1b140:	00000513          	li	a0,0
   1b144:	02010113          	addi	sp,sp,32
   1b148:	00008067          	ret
   1b14c:	f0010113          	addi	sp,sp,-256
   1b150:	0e813823          	sd	s0,240(sp)
   1b154:	0d313c23          	sd	s3,216(sp)
   1b158:	0e113c23          	sd	ra,248(sp)
   1b15c:	0e913423          	sd	s1,232(sp)
   1b160:	0f213023          	sd	s2,224(sp)
   1b164:	0d413823          	sd	s4,208(sp)
   1b168:	0d513423          	sd	s5,200(sp)
   1b16c:	0d613023          	sd	s6,192(sp)
   1b170:	0b713c23          	sd	s7,184(sp)
   1b174:	0b813823          	sd	s8,176(sp)
   1b178:	0b913423          	sd	s9,168(sp)
   1b17c:	a2cfb0ef          	jal	ra,163a8 <sigprocmask@plt+0x3348>
   1b180:	cb81b783          	ld	a5,-840(gp)
   1b184:	00050993          	mv	s3,a0
   1b188:	0007b403          	ld	s0,0(a5)
   1b18c:	08041a63          	bnez	s0,1b220 <sigprocmask@plt+0x81c0>
   1b190:	00024537          	lui	a0,0x24
   1b194:	f7050513          	addi	a0,a0,-144 # 23f70 <sigprocmask@plt+0x10f10>
   1b198:	b0dfa0ef          	jal	ra,15ca4 <sigprocmask@plt+0x2c44>
   1b19c:	00050413          	mv	s0,a0
   1b1a0:	00041663          	bnez	s0,1b1ac <sigprocmask@plt+0x814c>
   1b1a4:	d681b403          	ld	s0,-664(gp)
   1b1a8:	05440413          	addi	s0,s0,84
   1b1ac:	00044783          	lbu	a5,0(s0)
   1b1b0:	02f00713          	li	a4,47
   1b1b4:	00040913          	mv	s2,s0
   1b1b8:	0ee78263          	beq	a5,a4,1b29c <sigprocmask@plt+0x823c>
   1b1bc:	02e00713          	li	a4,46
   1b1c0:	08e79863          	bne	a5,a4,1b250 <sigprocmask@plt+0x81f0>
   1b1c4:	00144783          	lbu	a5,1(s0)
   1b1c8:	02f00713          	li	a4,47
   1b1cc:	02e00613          	li	a2,46
   1b1d0:	00078693          	mv	a3,a5
   1b1d4:	04e78263          	beq	a5,a4,1b218 <sigprocmask@plt+0x81b8>
   1b1d8:	00f76a63          	bltu	a4,a5,1b1ec <sigprocmask@plt+0x818c>
   1b1dc:	02078e63          	beqz	a5,1b218 <sigprocmask@plt+0x81b8>
   1b1e0:	00c79663          	bne	a5,a2,1b1ec <sigprocmask@plt+0x818c>
   1b1e4:	00244783          	lbu	a5,2(s0)
   1b1e8:	fed794e3          	bne	a5,a3,1b1d0 <sigprocmask@plt+0x8170>
   1b1ec:	00024537          	lui	a0,0x24
   1b1f0:	f7850513          	addi	a0,a0,-136 # 23f78 <sigprocmask@plt+0x10f18>
   1b1f4:	ab1fa0ef          	jal	ra,15ca4 <sigprocmask@plt+0x2c44>
   1b1f8:	00a13823          	sd	a0,16(sp)
   1b1fc:	0000fa37          	lui	s4,0xf
   1b200:	00004ab7          	lui	s5,0x4
   1b204:	00040593          	mv	a1,s0
   1b208:	01010513          	addi	a0,sp,16
   1b20c:	01013483          	ld	s1,16(sp)
   1b210:	c21fc0ef          	jal	ra,17e30 <sigprocmask@plt+0x4dd0>
   1b214:	04055663          	bgez	a0,1b260 <sigprocmask@plt+0x8200>
   1b218:	00040913          	mv	s2,s0
   1b21c:	0800006f          	j	1b29c <sigprocmask@plt+0x823c>
   1b220:	00044703          	lbu	a4,0(s0)
   1b224:	02d00793          	li	a5,45
   1b228:	f8f712e3          	bne	a4,a5,1b1ac <sigprocmask@plt+0x814c>
   1b22c:	00144783          	lbu	a5,1(s0)
   1b230:	f6079ee3          	bnez	a5,1b1ac <sigprocmask@plt+0x814c>
   1b234:	00024537          	lui	a0,0x24
   1b238:	f5850513          	addi	a0,a0,-168 # 23f58 <sigprocmask@plt+0x10ef8>
   1b23c:	a69fa0ef          	jal	ra,15ca4 <sigprocmask@plt+0x2c44>
   1b240:	0029e993          	ori	s3,s3,2
   1b244:	00050413          	mv	s0,a0
   1b248:	0009899b          	sext.w	s3,s3
   1b24c:	f55ff06f          	j	1b1a0 <sigprocmask@plt+0x8140>
   1b250:	f8079ee3          	bnez	a5,1b1ec <sigprocmask@plt+0x818c>
   1b254:	00024437          	lui	s0,0x24
   1b258:	f6840413          	addi	s0,s0,-152 # 23f68 <sigprocmask@plt+0x10f08>
   1b25c:	f91ff06f          	j	1b1ec <sigprocmask@plt+0x818c>
   1b260:	0004c483          	lbu	s1,0(s1)
   1b264:	ca4fb0ef          	jal	ra,16708 <sigprocmask@plt+0x36a8>
   1b268:	02010593          	addi	a1,sp,32
   1b26c:	00050913          	mv	s2,a0
   1b270:	c51f70ef          	jal	ra,12ec0 <stat@plt>
   1b274:	f80548e3          	bltz	a0,1b204 <sigprocmask@plt+0x81a4>
   1b278:	03012783          	lw	a5,48(sp)
   1b27c:	0147f7b3          	and	a5,a5,s4
   1b280:	0007879b          	sext.w	a5,a5
   1b284:	f95790e3          	bne	a5,s5,1b204 <sigprocmask@plt+0x81a4>
   1b288:	00048a63          	beqz	s1,1b29c <sigprocmask@plt+0x823c>
   1b28c:	03a00793          	li	a5,58
   1b290:	00f48663          	beq	s1,a5,1b29c <sigprocmask@plt+0x823c>
   1b294:	0029e993          	ori	s3,s3,2
   1b298:	0009899b          	sext.w	s3,s3
   1b29c:	d681b483          	ld	s1,-664(gp)
   1b2a0:	0404a783          	lw	a5,64(s1)
   1b2a4:	0017879b          	addiw	a5,a5,1
   1b2a8:	04f4a023          	sw	a5,64(s1)
   1b2ac:	0019f793          	andi	a5,s3,1
   1b2b0:	00000b13          	li	s6,0
   1b2b4:	0c079263          	bnez	a5,1b378 <sigprocmask@plt+0x8318>
   1b2b8:	00090513          	mv	a0,s2
   1b2bc:	d48fb0ef          	jal	ra,16804 <sigprocmask@plt+0x37a4>
   1b2c0:	00a13c23          	sd	a0,24(sp)
   1b2c4:	d601ba83          	ld	s5,-672(gp)
   1b2c8:	00094703          	lbu	a4,0(s2)
   1b2cc:	02f00793          	li	a5,47
   1b2d0:	008ab583          	ld	a1,8(s5) # 4008 <longjmp@plt-0xe878>
   1b2d4:	00f70c63          	beq	a4,a5,1b2ec <sigprocmask@plt+0x828c>
   1b2d8:	0204b503          	ld	a0,32(s1)
   1b2dc:	05448493          	addi	s1,s1,84
   1b2e0:	08950c63          	beq	a0,s1,1b378 <sigprocmask@plt+0x8318>
   1b2e4:	985fb0ef          	jal	ra,16c68 <sigprocmask@plt+0x3c08>
   1b2e8:	00050593          	mv	a1,a0
   1b2ec:	00090513          	mv	a0,s2
   1b2f0:	00b13423          	sd	a1,8(sp)
   1b2f4:	c7df70ef          	jal	ra,12f70 <strlen@plt>
   1b2f8:	00813583          	ld	a1,8(sp)
   1b2fc:	00250513          	addi	a0,a0,2
   1b300:	fdcfb0ef          	jal	ra,16adc <sigprocmask@plt+0x3a7c>
   1b304:	008ab783          	ld	a5,8(s5)
   1b308:	00094683          	lbu	a3,0(s2)
   1b30c:	02f00713          	li	a4,47
   1b310:	00178b13          	addi	s6,a5,1
   1b314:	08e68663          	beq	a3,a4,1b3a0 <sigprocmask@plt+0x8340>
   1b318:	fff54683          	lbu	a3,-1(a0)
   1b31c:	00050493          	mv	s1,a0
   1b320:	00e68663          	beq	a3,a4,1b32c <sigprocmask@plt+0x82cc>
   1b324:	00150493          	addi	s1,a0,1
   1b328:	00e50023          	sb	a4,0(a0)
   1b32c:	009b7a63          	bgeu	s6,s1,1b340 <sigprocmask@plt+0x82e0>
   1b330:	0017c683          	lbu	a3,1(a5)
   1b334:	02f00713          	li	a4,47
   1b338:	00e69463          	bne	a3,a4,1b340 <sigprocmask@plt+0x82e0>
   1b33c:	00278b13          	addi	s6,a5,2
   1b340:	01813503          	ld	a0,24(sp)
   1b344:	00024bb7          	lui	s7,0x24
   1b348:	01810613          	addi	a2,sp,24
   1b34c:	ae8b8593          	addi	a1,s7,-1304 # 23ae8 <sigprocmask@plt+0x10a88>
   1b350:	da0f70ef          	jal	ra,128f0 <strtok_r@plt>
   1b354:	02e00c13          	li	s8,46
   1b358:	02f00c93          	li	s9,47
   1b35c:	08051063          	bnez	a0,1b3dc <sigprocmask@plt+0x837c>
   1b360:	009b7463          	bgeu	s6,s1,1b368 <sigprocmask@plt+0x8308>
   1b364:	fff48493          	addi	s1,s1,-1
   1b368:	00048023          	sb	zero,0(s1)
   1b36c:	008abb03          	ld	s6,8(s5)
   1b370:	000b0463          	beqz	s6,1b378 <sigprocmask@plt+0x8318>
   1b374:	000b0913          	mv	s2,s6
   1b378:	00090513          	mv	a0,s2
   1b37c:	865f70ef          	jal	ra,12be0 <chdir@plt>
   1b380:	00050493          	mv	s1,a0
   1b384:	0a050863          	beqz	a0,1b434 <sigprocmask@plt+0x83d4>
   1b388:	d80fa0ef          	jal	ra,15908 <sigprocmask@plt+0x28a8>
   1b38c:	10048663          	beqz	s1,1b498 <sigprocmask@plt+0x8438>
   1b390:	00024537          	lui	a0,0x24
   1b394:	00040593          	mv	a1,s0
   1b398:	f8050513          	addi	a0,a0,-128 # 23f80 <sigprocmask@plt+0x10f20>
   1b39c:	ec9fa0ef          	jal	ra,16264 <sigprocmask@plt+0x3204>
   1b3a0:	00d50023          	sb	a3,0(a0)
   1b3a4:	01813703          	ld	a4,24(sp)
   1b3a8:	00150493          	addi	s1,a0,1
   1b3ac:	00170713          	addi	a4,a4,1
   1b3b0:	00e13c23          	sd	a4,24(sp)
   1b3b4:	00194703          	lbu	a4,1(s2)
   1b3b8:	f8d714e3          	bne	a4,a3,1b340 <sigprocmask@plt+0x82e0>
   1b3bc:	00294683          	lbu	a3,2(s2)
   1b3c0:	f8e680e3          	beq	a3,a4,1b340 <sigprocmask@plt+0x82e0>
   1b3c4:	00e500a3          	sb	a4,1(a0)
   1b3c8:	01813703          	ld	a4,24(sp)
   1b3cc:	00250493          	addi	s1,a0,2
   1b3d0:	00170713          	addi	a4,a4,1
   1b3d4:	00e13c23          	sd	a4,24(sp)
   1b3d8:	f65ff06f          	j	1b33c <sigprocmask@plt+0x82dc>
   1b3dc:	00054783          	lbu	a5,0(a0)
   1b3e0:	01879a63          	bne	a5,s8,1b3f4 <sigprocmask@plt+0x8394>
   1b3e4:	00154783          	lbu	a5,1(a0)
   1b3e8:	05879263          	bne	a5,s8,1b42c <sigprocmask@plt+0x83cc>
   1b3ec:	00254783          	lbu	a5,2(a0)
   1b3f0:	02078263          	beqz	a5,1b414 <sigprocmask@plt+0x83b4>
   1b3f4:	00048593          	mv	a1,s1
   1b3f8:	871fb0ef          	jal	ra,16c68 <sigprocmask@plt+0x3c08>
   1b3fc:	00150493          	addi	s1,a0,1
   1b400:	01950023          	sb	s9,0(a0)
   1b404:	0140006f          	j	1b418 <sigprocmask@plt+0x83b8>
   1b408:	ffe4c783          	lbu	a5,-2(s1)
   1b40c:	fff48493          	addi	s1,s1,-1
   1b410:	01978463          	beq	a5,s9,1b418 <sigprocmask@plt+0x83b8>
   1b414:	fe9b6ae3          	bltu	s6,s1,1b408 <sigprocmask@plt+0x83a8>
   1b418:	01810613          	addi	a2,sp,24
   1b41c:	ae8b8593          	addi	a1,s7,-1304
   1b420:	00000513          	li	a0,0
   1b424:	cccf70ef          	jal	ra,128f0 <strtok_r@plt>
   1b428:	f35ff06f          	j	1b35c <sigprocmask@plt+0x82fc>
   1b42c:	fe0786e3          	beqz	a5,1b418 <sigprocmask@plt+0x83b8>
   1b430:	fc5ff06f          	j	1b3f4 <sigprocmask@plt+0x8394>
   1b434:	00100593          	li	a1,1
   1b438:	000b0513          	mv	a0,s6
   1b43c:	bbdff0ef          	jal	ra,1aff8 <sigprocmask@plt+0x7f98>
   1b440:	cd01b703          	ld	a4,-816(gp)
   1b444:	c841a583          	lw	a1,-892(gp)
   1b448:	0f870613          	addi	a2,a4,248
   1b44c:	00100513          	li	a0,1
   1b450:	00200813          	li	a6,2
   1b454:	f2c70ae3          	beq	a4,a2,1b388 <sigprocmask@plt+0x8328>
   1b458:	00073783          	ld	a5,0(a4)
   1b45c:	00079663          	bnez	a5,1b468 <sigprocmask@plt+0x8408>
   1b460:	00870713          	addi	a4,a4,8
   1b464:	ff1ff06f          	j	1b454 <sigprocmask@plt+0x83f4>
   1b468:	0107a683          	lw	a3,16(a5)
   1b46c:	02068063          	beqz	a3,1b48c <sigprocmask@plt+0x842c>
   1b470:	03069063          	bne	a3,a6,1b490 <sigprocmask@plt+0x8430>
   1b474:	0087b683          	ld	a3,8(a5)
   1b478:	0006b683          	ld	a3,0(a3)
   1b47c:	0006c683          	lbu	a3,0(a3)
   1b480:	0026f693          	andi	a3,a3,2
   1b484:	00069663          	bnez	a3,1b490 <sigprocmask@plt+0x8430>
   1b488:	00b05463          	blez	a1,1b490 <sigprocmask@plt+0x8430>
   1b48c:	00a78a23          	sb	a0,20(a5)
   1b490:	0007b783          	ld	a5,0(a5)
   1b494:	fc9ff06f          	j	1b45c <sigprocmask@plt+0x83fc>
   1b498:	0029f993          	andi	s3,s3,2
   1b49c:	02099e63          	bnez	s3,1b4d8 <sigprocmask@plt+0x8478>
   1b4a0:	0f813083          	ld	ra,248(sp)
   1b4a4:	0f013403          	ld	s0,240(sp)
   1b4a8:	0e813483          	ld	s1,232(sp)
   1b4ac:	0e013903          	ld	s2,224(sp)
   1b4b0:	0d813983          	ld	s3,216(sp)
   1b4b4:	0d013a03          	ld	s4,208(sp)
   1b4b8:	0c813a83          	ld	s5,200(sp)
   1b4bc:	0c013b03          	ld	s6,192(sp)
   1b4c0:	0b813b83          	ld	s7,184(sp)
   1b4c4:	0b013c03          	ld	s8,176(sp)
   1b4c8:	0a813c83          	ld	s9,168(sp)
   1b4cc:	00000513          	li	a0,0
   1b4d0:	10010113          	addi	sp,sp,256
   1b4d4:	00008067          	ret
   1b4d8:	d681b783          	ld	a5,-664(gp)
   1b4dc:	00024537          	lui	a0,0x24
   1b4e0:	d6050513          	addi	a0,a0,-672 # 23d60 <sigprocmask@plt+0x10d00>
   1b4e4:	0207b583          	ld	a1,32(a5)
   1b4e8:	aa5fa0ef          	jal	ra,15f8c <sigprocmask@plt+0x2f2c>
   1b4ec:	fb5ff06f          	j	1b4a0 <sigprocmask@plt+0x8440>
   1b4f0:	fd010113          	addi	sp,sp,-48
   1b4f4:	02813023          	sd	s0,32(sp)
   1b4f8:	00913c23          	sd	s1,24(sp)
   1b4fc:	01213823          	sd	s2,16(sp)
   1b500:	01313423          	sd	s3,8(sp)
   1b504:	02113423          	sd	ra,40(sp)
   1b508:	01413023          	sd	s4,0(sp)
   1b50c:	00058413          	mv	s0,a1
   1b510:	00000493          	li	s1,0
   1b514:	00024937          	lui	s2,0x24
   1b518:	06e00993          	li	s3,110
   1b51c:	f9890513          	addi	a0,s2,-104 # 23f98 <sigprocmask@plt+0x10f38>
   1b520:	d8dfa0ef          	jal	ra,162ac <sigprocmask@plt+0x324c>
   1b524:	0ff57513          	andi	a0,a0,255
   1b528:	0a051063          	bnez	a0,1b5c8 <sigprocmask@plt+0x8568>
   1b52c:	00043503          	ld	a0,0(s0)
   1b530:	07200793          	li	a5,114
   1b534:	00100913          	li	s2,1
   1b538:	00054703          	lbu	a4,0(a0)
   1b53c:	00f71663          	bne	a4,a5,1b548 <sigprocmask@plt+0x84e8>
   1b540:	00000493          	li	s1,0
   1b544:	00200913          	li	s2,2
   1b548:	cb81b983          	ld	s3,-840(gp)
   1b54c:	0009b403          	ld	s0,0(s3)
   1b550:	08040a63          	beqz	s0,1b5e4 <sigprocmask@plt+0x8584>
   1b554:	fff4c493          	not	s1,s1
   1b558:	00997a33          	and	s4,s2,s1
   1b55c:	03d00593          	li	a1,61
   1b560:	00040513          	mv	a0,s0
   1b564:	a2df70ef          	jal	ra,12f90 <strchr@plt>
   1b568:	00150593          	addi	a1,a0,1
   1b56c:	06051463          	bnez	a0,1b5d4 <sigprocmask@plt+0x8574>
   1b570:	00040513          	mv	a0,s0
   1b574:	89df90ef          	jal	ra,14e10 <sigprocmask@plt+0x1db0>
   1b578:	00040593          	mv	a1,s0
   1b57c:	8e5f90ef          	jal	ra,14e60 <sigprocmask@plt+0x1e00>
   1b580:	00053583          	ld	a1,0(a0)
   1b584:	04058863          	beqz	a1,1b5d4 <sigprocmask@plt+0x8574>
   1b588:	0085a783          	lw	a5,8(a1)
   1b58c:	00f967b3          	or	a5,s2,a5
   1b590:	00f4f7b3          	and	a5,s1,a5
   1b594:	00f5a423          	sw	a5,8(a1)
   1b598:	0089b403          	ld	s0,8(s3)
   1b59c:	00898993          	addi	s3,s3,8
   1b5a0:	fa041ee3          	bnez	s0,1b55c <sigprocmask@plt+0x84fc>
   1b5a4:	02813083          	ld	ra,40(sp)
   1b5a8:	02013403          	ld	s0,32(sp)
   1b5ac:	01813483          	ld	s1,24(sp)
   1b5b0:	01013903          	ld	s2,16(sp)
   1b5b4:	00813983          	ld	s3,8(sp)
   1b5b8:	00013a03          	ld	s4,0(sp)
   1b5bc:	00000513          	li	a0,0
   1b5c0:	03010113          	addi	sp,sp,48
   1b5c4:	00008067          	ret
   1b5c8:	f5351ae3          	bne	a0,s3,1b51c <sigprocmask@plt+0x84bc>
   1b5cc:	00100493          	li	s1,1
   1b5d0:	f4dff06f          	j	1b51c <sigprocmask@plt+0x84bc>
   1b5d4:	000a0613          	mv	a2,s4
   1b5d8:	00040513          	mv	a0,s0
   1b5dc:	91dff0ef          	jal	ra,1aef8 <sigprocmask@plt+0x7e98>
   1b5e0:	fb9ff06f          	j	1b598 <sigprocmask@plt+0x8538>
   1b5e4:	00000613          	li	a2,0
   1b5e8:	00090593          	mv	a1,s2
   1b5ec:	8b9fb0ef          	jal	ra,16ea4 <sigprocmask@plt+0x3e44>
   1b5f0:	fb5ff06f          	j	1b5a4 <sigprocmask@plt+0x8544>
   1b5f4:	fd010113          	addi	sp,sp,-48
   1b5f8:	02813023          	sd	s0,32(sp)
   1b5fc:	02113423          	sd	ra,40(sp)
   1b600:	00913c23          	sd	s1,24(sp)
   1b604:	01213823          	sd	s2,16(sp)
   1b608:	01313423          	sd	s3,8(sp)
   1b60c:	00000513          	li	a0,0
   1b610:	00024437          	lui	s0,0x24
   1b614:	00050493          	mv	s1,a0
   1b618:	fa040513          	addi	a0,s0,-96 # 23fa0 <sigprocmask@plt+0x10f40>
   1b61c:	c91fa0ef          	jal	ra,162ac <sigprocmask@plt+0x324c>
   1b620:	fe051ae3          	bnez	a0,1b614 <sigprocmask@plt+0x85b4>
   1b624:	cb81b403          	ld	s0,-840(gp)
   1b628:	06600913          	li	s2,102
   1b62c:	00100993          	li	s3,1
   1b630:	00043503          	ld	a0,0(s0)
   1b634:	02051063          	bnez	a0,1b654 <sigprocmask@plt+0x85f4>
   1b638:	02813083          	ld	ra,40(sp)
   1b63c:	02013403          	ld	s0,32(sp)
   1b640:	01813483          	ld	s1,24(sp)
   1b644:	01013903          	ld	s2,16(sp)
   1b648:	00813983          	ld	s3,8(sp)
   1b64c:	03010113          	addi	sp,sp,48
   1b650:	00008067          	ret
   1b654:	01248c63          	beq	s1,s2,1b66c <sigprocmask@plt+0x860c>
   1b658:	00000613          	li	a2,0
   1b65c:	00000593          	li	a1,0
   1b660:	899ff0ef          	jal	ra,1aef8 <sigprocmask@plt+0x7e98>
   1b664:	00840413          	addi	s0,s0,8
   1b668:	fc9ff06f          	j	1b630 <sigprocmask@plt+0x85d0>
   1b66c:	00000593          	li	a1,0
   1b670:	b05f90ef          	jal	ra,15174 <sigprocmask@plt+0x2114>
   1b674:	fe0508e3          	beqz	a0,1b664 <sigprocmask@plt+0x8604>
   1b678:	01052783          	lw	a5,16(a0)
   1b67c:	ff3794e3          	bne	a5,s3,1b664 <sigprocmask@plt+0x8604>
   1b680:	f48fa0ef          	jal	ra,15dc8 <sigprocmask@plt+0x2d68>
   1b684:	fe1ff06f          	j	1b664 <sigprocmask@plt+0x8604>
   1b688:	00000613          	li	a2,0
   1b68c:	86dff06f          	j	1aef8 <sigprocmask@plt+0x7e98>
   1b690:	fa010113          	addi	sp,sp,-96
   1b694:	04813823          	sd	s0,80(sp)
   1b698:	05213023          	sd	s2,64(sp)
   1b69c:	03513423          	sd	s5,40(sp)
   1b6a0:	01713c23          	sd	s7,24(sp)
   1b6a4:	01813823          	sd	s8,16(sp)
   1b6a8:	01913423          	sd	s9,8(sp)
   1b6ac:	01a13023          	sd	s10,0(sp)
   1b6b0:	4007f413          	andi	s0,a5,1024
   1b6b4:	00058d13          	mv	s10,a1
   1b6b8:	04113c23          	sd	ra,88(sp)
   1b6bc:	04913423          	sd	s1,72(sp)
   1b6c0:	03313c23          	sd	s3,56(sp)
   1b6c4:	03413823          	sd	s4,48(sp)
   1b6c8:	03613023          	sd	s6,32(sp)
   1b6cc:	00050a93          	mv	s5,a0
   1b6d0:	00060c93          	mv	s9,a2
   1b6d4:	00068913          	mv	s2,a3
   1b6d8:	00070c13          	mv	s8,a4
   1b6dc:	00078b93          	mv	s7,a5
   1b6e0:	00246593          	ori	a1,s0,2
   1b6e4:	000d1463          	bnez	s10,1b6ec <sigprocmask@plt+0x868c>
   1b6e8:	01246593          	ori	a1,s0,18
   1b6ec:	000a8513          	mv	a0,s5
   1b6f0:	4dc000ef          	jal	ra,1bbcc <sigprocmask@plt+0x8b6c>
   1b6f4:	00050993          	mv	s3,a0
   1b6f8:	06041863          	bnez	s0,1b768 <sigprocmask@plt+0x8708>
   1b6fc:	d601b483          	ld	s1,-672(gp)
   1b700:	00fc7a13          	andi	s4,s8,15
   1b704:	00400793          	li	a5,4
   1b708:	0084bb03          	ld	s6,8(s1)
   1b70c:	012b0433          	add	s0,s6,s2
   1b710:	08fa0a63          	beq	s4,a5,1b7a4 <sigprocmask@plt+0x8744>
   1b714:	00500793          	li	a5,5
   1b718:	ce818a93          	addi	s5,gp,-792
   1b71c:	0cfa1e63          	bne	s4,a5,1b7f8 <sigprocmask@plt+0x8798>
   1b720:	00040593          	mv	a1,s0
   1b724:	000d0513          	mv	a0,s10
   1b728:	f61ff0ef          	jal	ra,1b688 <sigprocmask@plt+0x8628>
   1b72c:	00040593          	mv	a1,s0
   1b730:	d101b783          	ld	a5,-752(gp)
   1b734:	00bab023          	sd	a1,0(s5)
   1b738:	d1018413          	addi	s0,gp,-752
   1b73c:	02078663          	beqz	a5,1b768 <sigprocmask@plt+0x8708>
   1b740:	ea018713          	addi	a4,gp,-352
   1b744:	00c72683          	lw	a3,12(a4)
   1b748:	ea018493          	addi	s1,gp,-352
   1b74c:	1ad95263          	bge	s2,a3,1b8f0 <sigprocmask@plt+0x8890>
   1b750:	d681ba03          	ld	s4,-664(gp)
   1b754:	0004b783          	ld	a5,0(s1)
   1b758:	16079463          	bnez	a5,1b8c0 <sigprocmask@plt+0x8860>
   1b75c:	0084a783          	lw	a5,8(s1)
   1b760:	18f95263          	bge	s2,a5,1b8e4 <sigprocmask@plt+0x8884>
   1b764:	00043023          	sd	zero,0(s0)
   1b768:	05813083          	ld	ra,88(sp)
   1b76c:	05013403          	ld	s0,80(sp)
   1b770:	04813483          	ld	s1,72(sp)
   1b774:	04013903          	ld	s2,64(sp)
   1b778:	03013a03          	ld	s4,48(sp)
   1b77c:	02813a83          	ld	s5,40(sp)
   1b780:	02013b03          	ld	s6,32(sp)
   1b784:	01813b83          	ld	s7,24(sp)
   1b788:	01013c03          	ld	s8,16(sp)
   1b78c:	00813c83          	ld	s9,8(sp)
   1b790:	00013d03          	ld	s10,0(sp)
   1b794:	00098513          	mv	a0,s3
   1b798:	03813983          	ld	s3,56(sp)
   1b79c:	06010113          	addi	sp,sp,96
   1b7a0:	00008067          	ret
   1b7a4:	d681b783          	ld	a5,-664(gp)
   1b7a8:	05478713          	addi	a4,a5,84
   1b7ac:	000247b7          	lui	a5,0x24
   1b7b0:	04040063          	beqz	s0,1b7f0 <sigprocmask@plt+0x8790>
   1b7b4:	000ac603          	lbu	a2,0(s5)
   1b7b8:	08300693          	li	a3,131
   1b7bc:	00d61c63          	bne	a2,a3,1b7d4 <sigprocmask@plt+0x8774>
   1b7c0:	010c7c13          	andi	s8,s8,16
   1b7c4:	fa878413          	addi	s0,a5,-88 # 23fa8 <sigprocmask@plt+0x10f48>
   1b7c8:	000c0663          	beqz	s8,1b7d4 <sigprocmask@plt+0x8774>
   1b7cc:	00024737          	lui	a4,0x24
   1b7d0:	fc070713          	addi	a4,a4,-64 # 23fc0 <sigprocmask@plt+0x10f60>
   1b7d4:	41aa8ab3          	sub	s5,s5,s10
   1b7d8:	00024537          	lui	a0,0x24
   1b7dc:	00040693          	mv	a3,s0
   1b7e0:	000d0613          	mv	a2,s10
   1b7e4:	fffa859b          	addiw	a1,s5,-1
   1b7e8:	fd050513          	addi	a0,a0,-48 # 23fd0 <sigprocmask@plt+0x10f70>
   1b7ec:	a79fa0ef          	jal	ra,16264 <sigprocmask@plt+0x3204>
   1b7f0:	fa878413          	addi	s0,a5,-88
   1b7f4:	fe1ff06f          	j	1b7d4 <sigprocmask@plt+0x8774>
   1b7f8:	000ab783          	ld	a5,0(s5)
   1b7fc:	011bfb93          	andi	s7,s7,17
   1b800:	00040c13          	mv	s8,s0
   1b804:	416787bb          	subw	a5,a5,s6
   1b808:	00fb07b3          	add	a5,s6,a5
   1b80c:	00fab023          	sd	a5,0(s5)
   1b810:	019b0b33          	add	s6,s6,s9
   1b814:	020b8263          	beqz	s7,1b838 <sigprocmask@plt+0x87d8>
   1b818:	00900593          	li	a1,9
   1b81c:	00040513          	mv	a0,s0
   1b820:	994fc0ef          	jal	ra,179b4 <sigprocmask@plt+0x4954>
   1b824:	00050c13          	mv	s8,a0
   1b828:	00a40863          	beq	s0,a0,1b838 <sigprocmask@plt+0x87d8>
   1b82c:	0084b403          	ld	s0,8(s1)
   1b830:	000abb03          	ld	s6,0(s5)
   1b834:	01240433          	add	s0,s0,s2
   1b838:	0084b483          	ld	s1,8(s1)
   1b83c:	ffaa0a1b          	addiw	s4,s4,-6
   1b840:	00200593          	li	a1,2
   1b844:	019484b3          	add	s1,s1,s9
   1b848:	00048513          	mv	a0,s1
   1b84c:	401a5c9b          	sraiw	s9,s4,0x1
   1b850:	001a7a13          	andi	s4,s4,1
   1b854:	960fc0ef          	jal	ra,179b4 <sigprocmask@plt+0x4954>
   1b858:	059a1a63          	bne	s4,s9,1b8ac <sigprocmask@plt+0x884c>
   1b85c:	00018837          	lui	a6,0x18
   1b860:	b9080813          	addi	a6,a6,-1136 # 17b90 <sigprocmask@plt+0x4b30>
   1b864:	000c0593          	mv	a1,s8
   1b868:	000c8793          	mv	a5,s9
   1b86c:	000b8713          	mv	a4,s7
   1b870:	00048693          	mv	a3,s1
   1b874:	fffb0613          	addi	a2,s6,-1
   1b878:	00040513          	mv	a0,s0
   1b87c:	000800e7          	jalr	a6
   1b880:	00050593          	mv	a1,a0
   1b884:	02050a63          	beqz	a0,1b8b8 <sigprocmask@plt+0x8858>
   1b888:	000c8e63          	beqz	s9,1b8a4 <sigprocmask@plt+0x8844>
   1b88c:	40a484b3          	sub	s1,s1,a0
   1b890:	00048613          	mv	a2,s1
   1b894:	00040513          	mv	a0,s0
   1b898:	8d8f70ef          	jal	ra,12970 <memmove@plt>
   1b89c:	fff48493          	addi	s1,s1,-1
   1b8a0:	009405b3          	add	a1,s0,s1
   1b8a4:	00058023          	sb	zero,0(a1)
   1b8a8:	e89ff06f          	j	1b730 <sigprocmask@plt+0x86d0>
   1b8ac:	00018837          	lui	a6,0x18
   1b8b0:	d2080813          	addi	a6,a6,-736 # 17d20 <sigprocmask@plt+0x4cc0>
   1b8b4:	fb1ff06f          	j	1b864 <sigprocmask@plt+0x8804>
   1b8b8:	fff48593          	addi	a1,s1,-1
   1b8bc:	e75ff06f          	j	1b730 <sigprocmask@plt+0x86d0>
   1b8c0:	040a2783          	lw	a5,64(s4) # f040 <longjmp@plt-0x3840>
   1b8c4:	0017879b          	addiw	a5,a5,1
   1b8c8:	04fa2023          	sw	a5,64(s4)
   1b8cc:	0004b503          	ld	a0,0(s1)
   1b8d0:	00053a83          	ld	s5,0(a0)
   1b8d4:	f7cf70ef          	jal	ra,13050 <free@plt>
   1b8d8:	0154b023          	sd	s5,0(s1)
   1b8dc:	82cfa0ef          	jal	ra,15908 <sigprocmask@plt+0x28a8>
   1b8e0:	e75ff06f          	j	1b754 <sigprocmask@plt+0x86f4>
   1b8e4:	00943023          	sd	s1,0(s0)
   1b8e8:	0124a623          	sw	s2,12(s1)
   1b8ec:	e7dff06f          	j	1b768 <sigprocmask@plt+0x8708>
   1b8f0:	00e43023          	sd	a4,0(s0)
   1b8f4:	ea018793          	addi	a5,gp,-352
   1b8f8:	00000713          	li	a4,0
   1b8fc:	00078693          	mv	a3,a5
   1b900:	0007b783          	ld	a5,0(a5)
   1b904:	02079663          	bnez	a5,1b930 <sigprocmask@plt+0x88d0>
   1b908:	00070463          	beqz	a4,1b910 <sigprocmask@plt+0x88b0>
   1b90c:	00d43023          	sd	a3,0(s0)
   1b910:	d681b483          	ld	s1,-664(gp)
   1b914:	00043783          	ld	a5,0(s0)
   1b918:	0007b703          	ld	a4,0(a5)
   1b91c:	02071263          	bnez	a4,1b940 <sigprocmask@plt+0x88e0>
   1b920:	00c7a703          	lw	a4,12(a5)
   1b924:	e4e952e3          	bge	s2,a4,1b768 <sigprocmask@plt+0x8708>
   1b928:	0127a623          	sw	s2,12(a5)
   1b92c:	e3dff06f          	j	1b768 <sigprocmask@plt+0x8708>
   1b930:	0087a603          	lw	a2,8(a5)
   1b934:	fd265ae3          	bge	a2,s2,1b908 <sigprocmask@plt+0x88a8>
   1b938:	00100713          	li	a4,1
   1b93c:	fc1ff06f          	j	1b8fc <sigprocmask@plt+0x889c>
   1b940:	0404a783          	lw	a5,64(s1)
   1b944:	0017879b          	addiw	a5,a5,1
   1b948:	04f4a023          	sw	a5,64(s1)
   1b94c:	00043a03          	ld	s4,0(s0)
   1b950:	000a3503          	ld	a0,0(s4)
   1b954:	00053a83          	ld	s5,0(a0)
   1b958:	ef8f70ef          	jal	ra,13050 <free@plt>
   1b95c:	015a3023          	sd	s5,0(s4)
   1b960:	fa9f90ef          	jal	ra,15908 <sigprocmask@plt+0x28a8>
   1b964:	fb1ff06f          	j	1b914 <sigprocmask@plt+0x88b4>
   1b968:	f8010113          	addi	sp,sp,-128
   1b96c:	03713c23          	sd	s7,56(sp)
   1b970:	d601bb83          	ld	s7,-672(gp)
   1b974:	05313c23          	sd	s3,88(sp)
   1b978:	008bb783          	ld	a5,8(s7)
   1b97c:	05413823          	sd	s4,80(sp)
   1b980:	ce81ba03          	ld	s4,-792(gp)
   1b984:	06813823          	sd	s0,112(sp)
   1b988:	06913423          	sd	s1,104(sp)
   1b98c:	05513423          	sd	s5,72(sp)
   1b990:	05613023          	sd	s6,64(sp)
   1b994:	03813823          	sd	s8,48(sp)
   1b998:	03913423          	sd	s9,40(sp)
   1b99c:	01b13c23          	sd	s11,24(sp)
   1b9a0:	06113c23          	sd	ra,120(sp)
   1b9a4:	07213023          	sd	s2,96(sp)
   1b9a8:	03a13023          	sd	s10,32(sp)
   1b9ac:	00150c93          	addi	s9,a0,1
   1b9b0:	00054d03          	lbu	s10,0(a0)
   1b9b4:	00058493          	mv	s1,a1
   1b9b8:	00050a93          	mv	s5,a0
   1b9bc:	1005fb13          	andi	s6,a1,256
   1b9c0:	000c8513          	mv	a0,s9
   1b9c4:	03d00593          	li	a1,61
   1b9c8:	40fa0a3b          	subw	s4,s4,a5
   1b9cc:	dc4f70ef          	jal	ra,12f90 <strchr@plt>
   1b9d0:	fee4f793          	andi	a5,s1,-18
   1b9d4:	00fd7d93          	andi	s11,s10,15
   1b9d8:	00150413          	addi	s0,a0,1
   1b9dc:	ce818993          	addi	s3,gp,-792
   1b9e0:	00300c13          	li	s8,3
   1b9e4:	00f13023          	sd	a5,0(sp)
   1b9e8:	000d071b          	sext.w	a4,s10
   1b9ec:	00070593          	mv	a1,a4
   1b9f0:	000b0693          	mv	a3,s6
   1b9f4:	00048613          	mv	a2,s1
   1b9f8:	000c8513          	mv	a0,s9
   1b9fc:	00e13423          	sd	a4,8(sp)
   1ba00:	8adfe0ef          	jal	ra,1a2ac <sigprocmask@plt+0x724c>
   1ba04:	010d7793          	andi	a5,s10,16
   1ba08:	00813703          	ld	a4,8(sp)
   1ba0c:	00078463          	beqz	a5,1ba14 <sigprocmask@plt+0x89b4>
   1ba10:	fff50513          	addi	a0,a0,-1
   1ba14:	43555913          	srai	s2,a0,0x35
   1ba18:	00500793          	li	a5,5
   1ba1c:	40097913          	andi	s2,s2,1024
   1ba20:	01b7ea63          	bltu	a5,s11,1ba34 <sigprocmask@plt+0x89d4>
   1ba24:	0bbc6c63          	bltu	s8,s11,1badc <sigprocmask@plt+0x8a7c>
   1ba28:	058d8463          	beq	s11,s8,1ba70 <sigprocmask@plt+0x8a10>
   1ba2c:	001df793          	andi	a5,s11,1
   1ba30:	04078263          	beqz	a5,1ba74 <sigprocmask@plt+0x8a14>
   1ba34:	fff4c793          	not	a5,s1
   1ba38:	00f977b3          	and	a5,s2,a5
   1ba3c:	0e078063          	beqz	a5,1bb1c <sigprocmask@plt+0x8abc>
   1ba40:	d681b783          	ld	a5,-664(gp)
   1ba44:	0627c683          	lbu	a3,98(a5)
   1ba48:	0c068a63          	beqz	a3,1bb1c <sigprocmask@plt+0x8abc>
   1ba4c:	419405b3          	sub	a1,s0,s9
   1ba50:	000246b7          	lui	a3,0x24
   1ba54:	00024537          	lui	a0,0x24
   1ba58:	05478713          	addi	a4,a5,84
   1ba5c:	fa868693          	addi	a3,a3,-88 # 23fa8 <sigprocmask@plt+0x10f48>
   1ba60:	000c8613          	mv	a2,s9
   1ba64:	fff5859b          	addiw	a1,a1,-1
   1ba68:	fd050513          	addi	a0,a0,-48 # 23fd0 <sigprocmask@plt+0x10f70>
   1ba6c:	ff8fa0ef          	jal	ra,16264 <sigprocmask@plt+0x3204>
   1ba70:	40094913          	xori	s2,s2,1024
   1ba74:	40094593          	xori	a1,s2,1024
   1ba78:	00b4e5b3          	or	a1,s1,a1
   1ba7c:	0425e593          	ori	a1,a1,66
   1ba80:	0005859b          	sext.w	a1,a1
   1ba84:	00040513          	mv	a0,s0
   1ba88:	144000ef          	jal	ra,1bbcc <sigprocmask@plt+0x8b6c>
   1ba8c:	00050413          	mv	s0,a0
   1ba90:	0124e4b3          	or	s1,s1,s2
   1ba94:	4004f493          	andi	s1,s1,1024
   1ba98:	0a048463          	beqz	s1,1bb40 <sigprocmask@plt+0x8ae0>
   1ba9c:	07813083          	ld	ra,120(sp)
   1baa0:	00040513          	mv	a0,s0
   1baa4:	07013403          	ld	s0,112(sp)
   1baa8:	06813483          	ld	s1,104(sp)
   1baac:	06013903          	ld	s2,96(sp)
   1bab0:	05813983          	ld	s3,88(sp)
   1bab4:	05013a03          	ld	s4,80(sp)
   1bab8:	04813a83          	ld	s5,72(sp)
   1babc:	04013b03          	ld	s6,64(sp)
   1bac0:	03813b83          	ld	s7,56(sp)
   1bac4:	03013c03          	ld	s8,48(sp)
   1bac8:	02813c83          	ld	s9,40(sp)
   1bacc:	02013d03          	ld	s10,32(sp)
   1bad0:	01813d83          	ld	s11,24(sp)
   1bad4:	08010113          	addi	sp,sp,128
   1bad8:	00008067          	ret
   1badc:	00013683          	ld	a3,0(sp)
   1bae0:	40094793          	xori	a5,s2,1024
   1bae4:	00040513          	mv	a0,s0
   1bae8:	00d7e7b3          	or	a5,a5,a3
   1baec:	00000613          	li	a2,0
   1baf0:	000a0693          	mv	a3,s4
   1baf4:	000c8593          	mv	a1,s9
   1baf8:	b99ff0ef          	jal	ra,1b690 <sigprocmask@plt+0x8630>
   1bafc:	fff94793          	not	a5,s2
   1bb00:	00f4e7b3          	or	a5,s1,a5
   1bb04:	4007f793          	andi	a5,a5,1024
   1bb08:	00050413          	mv	s0,a0
   1bb0c:	f80792e3          	bnez	a5,1ba90 <sigprocmask@plt+0x8a30>
   1bb10:	0efd7d13          	andi	s10,s10,239
   1bb14:	00100d93          	li	s11,1
   1bb18:	ed1ff06f          	j	1b9e8 <sigprocmask@plt+0x8988>
   1bb1c:	00a00793          	li	a5,10
   1bb20:	04fd9e63          	bne	s11,a5,1bb7c <sigprocmask@plt+0x8b1c>
   1bb24:	4004f793          	andi	a5,s1,1024
   1bb28:	00140413          	addi	s0,s0,1
   1bb2c:	f60798e3          	bnez	a5,1ba9c <sigprocmask@plt+0x8a3c>
   1bb30:	00055463          	bgez	a0,1bb38 <sigprocmask@plt+0x8ad8>
   1bb34:	00000513          	li	a0,0
   1bb38:	00048593          	mv	a1,s1
   1bb3c:	808fc0ef          	jal	ra,17b44 <sigprocmask@plt+0x4ae4>
   1bb40:	020b0063          	beqz	s6,1bb60 <sigprocmask@plt+0x8b00>
   1bb44:	001ac703          	lbu	a4,1(s5)
   1bb48:	04000793          	li	a5,64
   1bb4c:	f4f718e3          	bne	a4,a5,1ba9c <sigprocmask@plt+0x8a3c>
   1bb50:	d701b783          	ld	a5,-656(gp)
   1bb54:	0007a783          	lw	a5,0(a5)
   1bb58:	f40782e3          	beqz	a5,1ba9c <sigprocmask@plt+0x8a3c>
   1bb5c:	00100b13          	li	s6,1
   1bb60:	0009b583          	ld	a1,0(s3)
   1bb64:	008bb783          	ld	a5,8(s7)
   1bb68:	000b0613          	mv	a2,s6
   1bb6c:	000a0513          	mv	a0,s4
   1bb70:	40f585bb          	subw	a1,a1,a5
   1bb74:	b08fa0ef          	jal	ra,15e7c <sigprocmask@plt+0x2e1c>
   1bb78:	f25ff06f          	j	1ba9c <sigprocmask@plt+0x8a3c>
   1bb7c:	00100793          	li	a5,1
   1bb80:	f0fd88e3          	beq	s11,a5,1ba90 <sigprocmask@plt+0x8a30>
   1bb84:	0124e4b3          	or	s1,s1,s2
   1bb88:	4004f793          	andi	a5,s1,1024
   1bb8c:	00079e63          	bnez	a5,1bba8 <sigprocmask@plt+0x8b48>
   1bb90:	0009b583          	ld	a1,0(s3)
   1bb94:	00000513          	li	a0,0
   1bb98:	00e13023          	sd	a4,0(sp)
   1bb9c:	c04fb0ef          	jal	ra,16fa0 <sigprocmask@plt+0x3f40>
   1bba0:	00013703          	ld	a4,0(sp)
   1bba4:	00a9b023          	sd	a0,0(s3)
   1bba8:	0009b583          	ld	a1,0(s3)
   1bbac:	008bb603          	ld	a2,8(s7)
   1bbb0:	00048793          	mv	a5,s1
   1bbb4:	000a0693          	mv	a3,s4
   1bbb8:	40c5863b          	subw	a2,a1,a2
   1bbbc:	00040513          	mv	a0,s0
   1bbc0:	00000593          	li	a1,0
   1bbc4:	acdff0ef          	jal	ra,1b690 <sigprocmask@plt+0x8630>
   1bbc8:	ec5ff06f          	j	1ba8c <sigprocmask@plt+0x8a2c>
   1bbcc:	0045f793          	andi	a5,a1,4
   1bbd0:	0017b713          	seqz	a4,a5
   1bbd4:	4055d793          	srai	a5,a1,0x5
   1bbd8:	00171713          	slli	a4,a4,0x1
   1bbdc:	0017f793          	andi	a5,a5,1
   1bbe0:	00e787b3          	add	a5,a5,a4
   1bbe4:	c4018713          	addi	a4,gp,-960
   1bbe8:	eb010113          	addi	sp,sp,-336
   1bbec:	00f707b3          	add	a5,a4,a5
   1bbf0:	12913c23          	sd	s1,312(sp)
   1bbf4:	13213823          	sd	s2,304(sp)
   1bbf8:	13313423          	sd	s3,296(sp)
   1bbfc:	0f913c23          	sd	s9,248(sp)
   1bc00:	14113423          	sd	ra,328(sp)
   1bc04:	14813023          	sd	s0,320(sp)
   1bc08:	13413023          	sd	s4,288(sp)
   1bc0c:	11513c23          	sd	s5,280(sp)
   1bc10:	11613823          	sd	s6,272(sp)
   1bc14:	11713423          	sd	s7,264(sp)
   1bc18:	11813023          	sd	s8,256(sp)
   1bc1c:	0fa13823          	sd	s10,240(sp)
   1bc20:	0fb13423          	sd	s11,232(sp)
   1bc24:	00f13423          	sd	a5,8(sp)
   1bc28:	0025f913          	andi	s2,a1,2
   1bc2c:	00050c93          	mv	s9,a0
   1bc30:	00058993          	mv	s3,a1
   1bc34:	00058493          	mv	s1,a1
   1bc38:	00090c63          	beqz	s2,1bc50 <sigprocmask@plt+0x8bf0>
   1bc3c:	ffd5f493          	andi	s1,a1,-3
   1bc40:	00000913          	li	s2,0
   1bc44:	000cc703          	lbu	a4,0(s9)
   1bc48:	07e00793          	li	a5,126
   1bc4c:	20f70263          	beq	a4,a5,1be50 <sigprocmask@plt+0x8df0>
   1bc50:	1409f793          	andi	a5,s3,320
   1bc54:	02f13423          	sd	a5,40(sp)
   1bc58:	d601b783          	ld	a5,-672(gp)
   1bc5c:	00f13823          	sd	a5,16(sp)
   1bc60:	c3418793          	addi	a5,gp,-972
   1bc64:	02f13c23          	sd	a5,56(sp)
   1bc68:	d681b783          	ld	a5,-664(gp)
   1bc6c:	02f13023          	sd	a5,32(sp)
   1bc70:	01013783          	ld	a5,16(sp)
   1bc74:	ce81b803          	ld	a6,-792(gp)
   1bc78:	0087b783          	ld	a5,8(a5)
   1bc7c:	00000a93          	li	s5,0
   1bc80:	ce818a13          	addi	s4,gp,-792
   1bc84:	40f80c3b          	subw	s8,a6,a5
   1bc88:	00813583          	ld	a1,8(sp)
   1bc8c:	015c8533          	add	a0,s9,s5
   1bc90:	9d0f70ef          	jal	ra,12e60 <strcspn@plt>
   1bc94:	01550b33          	add	s6,a0,s5
   1bc98:	016c87b3          	add	a5,s9,s6
   1bc9c:	0007ca83          	lbu	s5,0(a5)
   1bca0:	018a979b          	slliw	a5,s5,0x18
   1bca4:	4187d79b          	sraiw	a5,a5,0x18
   1bca8:	0007d663          	bgez	a5,1bcb4 <sigprocmask@plt+0x8c54>
   1bcac:	08300793          	li	a5,131
   1bcb0:	3cfa9c63          	bne	s5,a5,1c088 <sigprocmask@plt+0x9028>
   1bcb4:	fffa841b          	addiw	s0,s5,-1
   1bcb8:	4074541b          	sraiw	s0,s0,0x7
   1bcbc:	001b0b13          	addi	s6,s6,1
   1bcc0:	00147413          	andi	s0,s0,1
   1bcc4:	000c0b93          	mv	s7,s8
   1bcc8:	080b0463          	beqz	s6,1bd50 <sigprocmask@plt+0x8cf0>
   1bccc:	4004f613          	andi	a2,s1,1024
   1bcd0:	000c0b93          	mv	s7,s8
   1bcd4:	06061e63          	bnez	a2,1bd50 <sigprocmask@plt+0x8cf0>
   1bcd8:	000a3583          	ld	a1,0(s4)
   1bcdc:	000b0513          	mv	a0,s6
   1bce0:	dfdfa0ef          	jal	ra,16adc <sigprocmask@plt+0x3a7c>
   1bce4:	000b0613          	mv	a2,s6
   1bce8:	000c8593          	mv	a1,s9
   1bcec:	d25f60ef          	jal	ra,12a10 <memcpy@plt>
   1bcf0:	01650533          	add	a0,a0,s6
   1bcf4:	fff54603          	lbu	a2,-1(a0)
   1bcf8:	fff4079b          	addiw	a5,s0,-1
   1bcfc:	00f677b3          	and	a5,a2,a5
   1bd00:	fef50fa3          	sb	a5,-1(a0)
   1bd04:	0404f613          	andi	a2,s1,64
   1bd08:	00000793          	li	a5,0
   1bd0c:	00060463          	beqz	a2,1bd14 <sigprocmask@plt+0x8cb4>
   1bd10:	408007b3          	neg	a5,s0
   1bd14:	00f507b3          	add	a5,a0,a5
   1bd18:	00fa3023          	sd	a5,0(s4)
   1bd1c:	01013783          	ld	a5,16(sp)
   1bd20:	04000713          	li	a4,64
   1bd24:	0087b783          	ld	a5,8(a5)
   1bd28:	40f507b3          	sub	a5,a0,a5
   1bd2c:	40878bbb          	subw	s7,a5,s0
   1bd30:	02813783          	ld	a5,40(sp)
   1bd34:	00e79e63          	bne	a5,a4,1bd50 <sigprocmask@plt+0x8cf0>
   1bd38:	00091c63          	bnez	s2,1bd50 <sigprocmask@plt+0x8cf0>
   1bd3c:	017c5a63          	bge	s8,s7,1bd50 <sigprocmask@plt+0x8cf0>
   1bd40:	00000613          	li	a2,0
   1bd44:	000b8593          	mv	a1,s7
   1bd48:	000c0513          	mv	a0,s8
   1bd4c:	930fa0ef          	jal	ra,15e7c <sigprocmask@plt+0x2e1c>
   1bd50:	34041463          	bnez	s0,1c098 <sigprocmask@plt+0x9038>
   1bd54:	001b0413          	addi	s0,s6,1
   1bd58:	08800793          	li	a5,136
   1bd5c:	008c8433          	add	s0,s9,s0
   1bd60:	12fa8263          	beq	s5,a5,1be84 <sigprocmask@plt+0x8e24>
   1bd64:	0557ee63          	bltu	a5,s5,1bdc0 <sigprocmask@plt+0x8d60>
   1bd68:	08400793          	li	a5,132
   1bd6c:	18fa8463          	beq	s5,a5,1bef4 <sigprocmask@plt+0x8e94>
   1bd70:	0557e863          	bltu	a5,s5,1bdc0 <sigprocmask@plt+0x8d60>
   1bd74:	08200613          	li	a2,130
   1bd78:	16ca8463          	beq	s5,a2,1bee0 <sigprocmask@plt+0x8e80>
   1bd7c:	05566263          	bltu	a2,s5,1bdc0 <sigprocmask@plt+0x8d60>
   1bd80:	08100593          	li	a1,129
   1bd84:	14ba8863          	beq	s5,a1,1bed4 <sigprocmask@plt+0x8e74>
   1bd88:	02ca8c63          	beq	s5,a2,1bdc0 <sigprocmask@plt+0x8d60>
   1bd8c:	03a00613          	li	a2,58
   1bd90:	00ca8e63          	beq	s5,a2,1bdac <sigprocmask@plt+0x8d4c>
   1bd94:	03d00613          	li	a2,61
   1bd98:	02ca9463          	bne	s5,a2,1bdc0 <sigprocmask@plt+0x8d60>
   1bd9c:	00813783          	ld	a5,8(sp)
   1bda0:	0204e493          	ori	s1,s1,32
   1bda4:	00178793          	addi	a5,a5,1
   1bda8:	00f13423          	sd	a5,8(sp)
   1bdac:	fff44683          	lbu	a3,-1(s0)
   1bdb0:	07e00713          	li	a4,126
   1bdb4:	016c8cb3          	add	s9,s9,s6
   1bdb8:	e8e686e3          	beq	a3,a4,1bc44 <sigprocmask@plt+0x8be4>
   1bdbc:	000c8413          	mv	s0,s9
   1bdc0:	00000a93          	li	s5,0
   1bdc4:	000b8c13          	mv	s8,s7
   1bdc8:	00040c93          	mv	s9,s0
   1bdcc:	ebdff06f          	j	1bc88 <sigprocmask@plt+0x8c28>
   1bdd0:	e8f400e3          	beq	s0,a5,1bc50 <sigprocmask@plt+0x8bf0>
   1bdd4:	0287e063          	bltu	a5,s0,1bdf4 <sigprocmask@plt+0x8d94>
   1bdd8:	02e40663          	beq	s0,a4,1be04 <sigprocmask@plt+0x8da4>
   1bddc:	00876c63          	bltu	a4,s0,1bdf4 <sigprocmask@plt+0x8d94>
   1bde0:	e6d408e3          	beq	s0,a3,1bc50 <sigprocmask@plt+0x8bf0>
   1bde4:	0086e863          	bltu	a3,s0,1bdf4 <sigprocmask@plt+0x8d94>
   1bde8:	00c40e63          	beq	s0,a2,1be04 <sigprocmask@plt+0x8da4>
   1bdec:	00b41463          	bne	s0,a1,1bdf4 <sigprocmask@plt+0x8d94>
   1bdf0:	00051a63          	bnez	a0,1be04 <sigprocmask@plt+0x8da4>
   1bdf4:	000a0b13          	mv	s6,s4
   1bdf8:	001a4403          	lbu	s0,1(s4)
   1bdfc:	001a0a13          	addi	s4,s4,1
   1be00:	fc0418e3          	bnez	s0,1bdd0 <sigprocmask@plt+0x8d70>
   1be04:	4004f793          	andi	a5,s1,1024
   1be08:	04079063          	bnez	a5,1be48 <sigprocmask@plt+0x8de8>
   1be0c:	000b00a3          	sb	zero,1(s6)
   1be10:	001cc783          	lbu	a5,1(s9)
   1be14:	04079e63          	bnez	a5,1be70 <sigprocmask@plt+0x8e10>
   1be18:	00024537          	lui	a0,0x24
   1be1c:	f7050513          	addi	a0,a0,-144 # 23f70 <sigprocmask@plt+0x10f10>
   1be20:	e85f90ef          	jal	ra,15ca4 <sigprocmask@plt+0x2c44>
   1be24:	00050a93          	mv	s5,a0
   1be28:	008b00a3          	sb	s0,1(s6)
   1be2c:	e20a82e3          	beqz	s5,1bc50 <sigprocmask@plt+0x8bf0>
   1be30:	000a8513          	mv	a0,s5
   1be34:	93cf70ef          	jal	ra,12f70 <strlen@plt>
   1be38:	00050593          	mv	a1,a0
   1be3c:	1004e613          	ori	a2,s1,256
   1be40:	000a8513          	mv	a0,s5
   1be44:	e71fa0ef          	jal	ra,16cb4 <sigprocmask@plt+0x3c54>
   1be48:	000a0c93          	mv	s9,s4
   1be4c:	e05ff06f          	j	1bc50 <sigprocmask@plt+0x8bf0>
   1be50:	000c8a13          	mv	s4,s9
   1be54:	08800793          	li	a5,136
   1be58:	08300713          	li	a4,131
   1be5c:	08100693          	li	a3,129
   1be60:	02f00613          	li	a2,47
   1be64:	03a00593          	li	a1,58
   1be68:	0044f513          	andi	a0,s1,4
   1be6c:	f89ff06f          	j	1bdf4 <sigprocmask@plt+0x8d94>
   1be70:	001c8513          	addi	a0,s9,1
   1be74:	fbdf60ef          	jal	ra,12e30 <getpwnam@plt>
   1be78:	dc050ce3          	beqz	a0,1bc50 <sigprocmask@plt+0x8bf0>
   1be7c:	02053a83          	ld	s5,32(a0)
   1be80:	fa9ff06f          	j	1be28 <sigprocmask@plt+0x8dc8>
   1be84:	02091863          	bnez	s2,1beb4 <sigprocmask@plt+0x8e54>
   1be88:	03813583          	ld	a1,56(sp)
   1be8c:	00500613          	li	a2,5
   1be90:	00040513          	mv	a0,s0
   1be94:	e1df60ef          	jal	ra,12cb0 <memcmp@plt>
   1be98:	00051e63          	bnez	a0,1beb4 <sigprocmask@plt+0x8e54>
   1be9c:	00140513          	addi	a0,s0,1
   1bea0:	1004e593          	ori	a1,s1,256
   1bea4:	ac5ff0ef          	jal	ra,1b968 <sigprocmask@plt+0x8908>
   1bea8:	00150413          	addi	s0,a0,1
   1beac:	00040c93          	mv	s9,s0
   1beb0:	dc1ff06f          	j	1bc70 <sigprocmask@plt+0x8c10>
   1beb4:	10094913          	xori	s2,s2,256
   1beb8:	00000a93          	li	s5,0
   1bebc:	0114f613          	andi	a2,s1,17
   1bec0:	f00602e3          	beqz	a2,1bdc4 <sigprocmask@plt+0x8d64>
   1bec4:	016c8433          	add	s0,s9,s6
   1bec8:	001a8a93          	addi	s5,s5,1
   1becc:	001b8b9b          	addiw	s7,s7,1
   1bed0:	ef5ff06f          	j	1bdc4 <sigprocmask@plt+0x8d64>
   1bed4:	001b8b9b          	addiw	s7,s7,1
   1bed8:	00100a93          	li	s5,1
   1bedc:	fe1ff06f          	j	1bebc <sigprocmask@plt+0x8e5c>
   1bee0:	00040513          	mv	a0,s0
   1bee4:	0124e5b3          	or	a1,s1,s2
   1bee8:	a81ff0ef          	jal	ra,1b968 <sigprocmask@plt+0x8908>
   1beec:	00050413          	mv	s0,a0
   1bef0:	fbdff06f          	j	1beac <sigprocmask@plt+0x8e4c>
   1bef4:	0124e7b3          	or	a5,s1,s2
   1bef8:	00f13c23          	sd	a5,24(sp)
   1befc:	4007f793          	andi	a5,a5,1024
   1bf00:	cb018b93          	addi	s7,gp,-848
   1bf04:	16079a63          	bnez	a5,1c078 <sigprocmask@plt+0x9018>
   1bf08:	000bb783          	ld	a5,0(s7)
   1bf0c:	02013703          	ld	a4,32(sp)
   1bf10:	0087ba83          	ld	s5,8(a5)
   1bf14:	02013783          	ld	a5,32(sp)
   1bf18:	0407a783          	lw	a5,64(a5)
   1bf1c:	0017879b          	addiw	a5,a5,1
   1bf20:	04f72023          	sw	a5,64(a4)
   1bf24:	d601bc83          	ld	s9,-672(gp)
   1bf28:	000a3b03          	ld	s6,0(s4)
   1bf2c:	008cb783          	ld	a5,8(s9)
   1bf30:	000cb703          	ld	a4,0(s9)
   1bf34:	40fb0b3b          	subw	s6,s6,a5
   1bf38:	04f13823          	sd	a5,80(sp)
   1bf3c:	018cb783          	ld	a5,24(s9)
   1bf40:	000b0513          	mv	a0,s6
   1bf44:	04e13423          	sd	a4,72(sp)
   1bf48:	04f13c23          	sd	a5,88(sp)
   1bf4c:	fbcfa0ef          	jal	ra,16708 <sigprocmask@plt+0x36a8>
   1bf50:	0a0a8e63          	beqz	s5,1c00c <sigprocmask@plt+0x8fac>
   1bf54:	06010513          	addi	a0,sp,96
   1bf58:	bc9f60ef          	jal	ra,12b20 <pipe@plt>
   1bf5c:	00055863          	bgez	a0,1bf6c <sigprocmask@plt+0x8f0c>
   1bf60:	00024537          	lui	a0,0x24
   1bf64:	fe050513          	addi	a0,a0,-32 # 23fe0 <sigprocmask@plt+0x10f80>
   1bf68:	afcfa0ef          	jal	ra,16264 <sigprocmask@plt+0x3204>
   1bf6c:	00100513          	li	a0,1
   1bf70:	f04fe0ef          	jal	ra,1a674 <sigprocmask@plt+0x7614>
   1bf74:	00200613          	li	a2,2
   1bf78:	000a8593          	mv	a1,s5
   1bf7c:	02a13823          	sd	a0,48(sp)
   1bf80:	abdfe0ef          	jal	ra,1aa3c <sigprocmask@plt+0x79dc>
   1bf84:	04051263          	bnez	a0,1bfc8 <sigprocmask@plt+0x8f68>
   1bf88:	95df90ef          	jal	ra,158e4 <sigprocmask@plt+0x2884>
   1bf8c:	06012503          	lw	a0,96(sp)
   1bf90:	870f70ef          	jal	ra,13000 <close@plt>
   1bf94:	06412503          	lw	a0,100(sp)
   1bf98:	00100793          	li	a5,1
   1bf9c:	00f50a63          	beq	a0,a5,1bfb0 <sigprocmask@plt+0x8f50>
   1bfa0:	00100593          	li	a1,1
   1bfa4:	ffdfb0ef          	jal	ra,17fa0 <sigprocmask@plt+0x4f40>
   1bfa8:	06412503          	lw	a0,100(sp)
   1bfac:	854f70ef          	jal	ra,13000 <close@plt>
   1bfb0:	d681b783          	ld	a5,-664(gp)
   1bfb4:	04078aa3          	sb	zero,85(a5)
   1bfb8:	ab1f90ef          	jal	ra,15a68 <sigprocmask@plt+0x2a08>
   1bfbc:	00100593          	li	a1,1
   1bfc0:	000a8513          	mv	a0,s5
   1bfc4:	41d000ef          	jal	ra,1cbe0 <sigprocmask@plt+0x9b80>
   1bfc8:	06412503          	lw	a0,100(sp)
   1bfcc:	834f70ef          	jal	ra,13000 <close@plt>
   1bfd0:	06012c03          	lw	s8,96(sp)
   1bfd4:	03013a83          	ld	s5,48(sp)
   1bfd8:	04810513          	addi	a0,sp,72
   1bfdc:	f35f90ef          	jal	ra,15f10 <sigprocmask@plt+0x2eb0>
   1bfe0:	060c4863          	bltz	s8,1c050 <sigprocmask@plt+0x8ff0>
   1bfe4:	06010593          	addi	a1,sp,96
   1bfe8:	08000613          	li	a2,128
   1bfec:	000c0513          	mv	a0,s8
   1bff0:	45d060ef          	jal	ra,22c4c <sigprocmask@plt+0xfbec>
   1bff4:	0005059b          	sext.w	a1,a0
   1bff8:	04b05063          	blez	a1,1c038 <sigprocmask@plt+0x8fd8>
   1bffc:	01813603          	ld	a2,24(sp)
   1c000:	06010513          	addi	a0,sp,96
   1c004:	cb1fa0ef          	jal	ra,16cb4 <sigprocmask@plt+0x3c54>
   1c008:	fd9ff06f          	j	1bfe0 <sigprocmask@plt+0x8f80>
   1c00c:	fff00c13          	li	s8,-1
   1c010:	fc9ff06f          	j	1bfd8 <sigprocmask@plt+0x8f78>
   1c014:	fff7c683          	lbu	a3,-1(a5)
   1c018:	04e69863          	bne	a3,a4,1c068 <sigprocmask@plt+0x9008>
   1c01c:	fff78793          	addi	a5,a5,-1
   1c020:	0440006f          	j	1c064 <sigprocmask@plt+0x9004>
   1c024:	00000613          	li	a2,0
   1c028:	40b785bb          	subw	a1,a5,a1
   1c02c:	000b0513          	mv	a0,s6
   1c030:	e4df90ef          	jal	ra,15e7c <sigprocmask@plt+0x2e1c>
   1c034:	0440006f          	j	1c078 <sigprocmask@plt+0x9018>
   1c038:	000c0513          	mv	a0,s8
   1c03c:	fc5f60ef          	jal	ra,13000 <close@plt>
   1c040:	000a8513          	mv	a0,s5
   1c044:	fd4fe0ef          	jal	ra,1a818 <sigprocmask@plt+0x77b8>
   1c048:	d681b783          	ld	a5,-664(gp)
   1c04c:	00a780a3          	sb	a0,1(a5)
   1c050:	8b9f90ef          	jal	ra,15908 <sigprocmask@plt+0x28a8>
   1c054:	008cb583          	ld	a1,8(s9)
   1c058:	000a3783          	ld	a5,0(s4)
   1c05c:	00a00713          	li	a4,10
   1c060:	01658633          	add	a2,a1,s6
   1c064:	faf668e3          	bltu	a2,a5,1c014 <sigprocmask@plt+0x8fb4>
   1c068:	01813703          	ld	a4,24(sp)
   1c06c:	00fa3023          	sd	a5,0(s4)
   1c070:	10077713          	andi	a4,a4,256
   1c074:	fa0708e3          	beqz	a4,1c024 <sigprocmask@plt+0x8fc4>
   1c078:	000bb783          	ld	a5,0(s7)
   1c07c:	0007b783          	ld	a5,0(a5)
   1c080:	00fbb023          	sd	a5,0(s7)
   1c084:	e29ff06f          	j	1beac <sigprocmask@plt+0x8e4c>
   1c088:	000c0b93          	mv	s7,s8
   1c08c:	cc0b04e3          	beqz	s6,1bd54 <sigprocmask@plt+0x8cf4>
   1c090:	00000413          	li	s0,0
   1c094:	c39ff06f          	j	1bccc <sigprocmask@plt+0x8c6c>
   1c098:	14813083          	ld	ra,328(sp)
   1c09c:	14013403          	ld	s0,320(sp)
   1c0a0:	016c8533          	add	a0,s9,s6
   1c0a4:	13813483          	ld	s1,312(sp)
   1c0a8:	13013903          	ld	s2,304(sp)
   1c0ac:	12813983          	ld	s3,296(sp)
   1c0b0:	12013a03          	ld	s4,288(sp)
   1c0b4:	11813a83          	ld	s5,280(sp)
   1c0b8:	11013b03          	ld	s6,272(sp)
   1c0bc:	10813b83          	ld	s7,264(sp)
   1c0c0:	10013c03          	ld	s8,256(sp)
   1c0c4:	0f813c83          	ld	s9,248(sp)
   1c0c8:	0f013d03          	ld	s10,240(sp)
   1c0cc:	0e813d83          	ld	s11,232(sp)
   1c0d0:	15010113          	addi	sp,sp,336
   1c0d4:	00008067          	ret
   1c0d8:	01853703          	ld	a4,24(a0)
   1c0dc:	f3010113          	addi	sp,sp,-208
   1c0e0:	cae1b823          	sd	a4,-848(gp)
   1c0e4:	0b213823          	sd	s2,176(sp)
   1c0e8:	d601b903          	ld	s2,-672(gp)
   1c0ec:	01053503          	ld	a0,16(a0)
   1c0f0:	0c813023          	sd	s0,192(sp)
   1c0f4:	00893783          	ld	a5,8(s2)
   1c0f8:	0a913c23          	sd	s1,184(sp)
   1c0fc:	09613823          	sd	s6,144(sp)
   1c100:	0c113423          	sd	ra,200(sp)
   1c104:	0b313423          	sd	s3,168(sp)
   1c108:	0b413023          	sd	s4,160(sp)
   1c10c:	09513c23          	sd	s5,152(sp)
   1c110:	09713423          	sd	s7,136(sp)
   1c114:	09813023          	sd	s8,128(sp)
   1c118:	07913c23          	sd	s9,120(sp)
   1c11c:	07a13823          	sd	s10,112(sp)
   1c120:	07b13423          	sd	s11,104(sp)
   1c124:	00058b13          	mv	s6,a1
   1c128:	ce818413          	addi	s0,gp,-792
   1c12c:	00060593          	mv	a1,a2
   1c130:	00060493          	mv	s1,a2
   1c134:	00f43023          	sd	a5,0(s0)
   1c138:	a95ff0ef          	jal	ra,1bbcc <sigprocmask@plt+0x8b6c>
   1c13c:	0e0b0e63          	beqz	s6,1c238 <sigprocmask@plt+0x91d8>
   1c140:	00893783          	ld	a5,8(s2)
   1c144:	00043503          	ld	a0,0(s0)
   1c148:	0014f493          	andi	s1,s1,1
   1c14c:	40f50533          	sub	a0,a0,a5
   1c150:	db8fa0ef          	jal	ra,16708 <sigprocmask@plt+0x36a8>
   1c154:	e9018793          	addi	a5,gp,-368
   1c158:	00f7b423          	sd	a5,8(a5)
   1c15c:	00050913          	mv	s2,a0
   1c160:	e9018413          	addi	s0,gp,-368
   1c164:	36048463          	beqz	s1,1c4cc <sigprocmask@plt+0x946c>
   1c168:	d101b783          	ld	a5,-752(gp)
   1c16c:	1e078663          	beqz	a5,1c358 <sigprocmask@plt+0x92f8>
   1c170:	d701b703          	ld	a4,-656(gp)
   1c174:	16072783          	lw	a5,352(a4)
   1c178:	0207f793          	andi	a5,a5,32
   1c17c:	0e079c63          	bnez	a5,1c274 <sigprocmask@plt+0x9214>
   1c180:	16873a03          	ld	s4,360(a4)
   1c184:	004a0a13          	addi	s4,s4,4
   1c188:	d681b703          	ld	a4,-664(gp)
   1c18c:	00090d13          	mv	s10,s2
   1c190:	05470793          	addi	a5,a4,84
   1c194:	00000993          	li	s3,0
   1c198:	ea018493          	addi	s1,gp,-352
   1c19c:	00f13023          	sd	a5,0(sp)
   1c1a0:	00098c13          	mv	s8,s3
   1c1a4:	0104a983          	lw	s3,16(s1)
   1c1a8:	000a0b93          	mv	s7,s4
   1c1ac:	00098463          	beqz	s3,1c1b4 <sigprocmask@plt+0x9154>
   1c1b0:	00013b83          	ld	s7,0(sp)
   1c1b4:	0084a703          	lw	a4,8(s1)
   1c1b8:	00000a93          	li	s5,0
   1c1bc:	0189ec33          	or	s8,s3,s8
   1c1c0:	00e90db3          	add	s11,s2,a4
   1c1c4:	00c4a683          	lw	a3,12(s1)
   1c1c8:	00d906b3          	add	a3,s2,a3
   1c1cc:	0adde863          	bltu	s11,a3,1c27c <sigprocmask@plt+0x921c>
   1c1d0:	0004b483          	ld	s1,0(s1)
   1c1d4:	fc0496e3          	bnez	s1,1c1a0 <sigprocmask@plt+0x9140>
   1c1d8:	00099663          	bnez	s3,1c1e4 <sigprocmask@plt+0x9184>
   1c1dc:	000d4703          	lbu	a4,0(s10)
   1c1e0:	00070e63          	beqz	a4,1c1fc <sigprocmask@plt+0x919c>
   1c1e4:	01000513          	li	a0,16
   1c1e8:	e50fa0ef          	jal	ra,16838 <sigprocmask@plt+0x37d8>
   1c1ec:	00843783          	ld	a5,8(s0)
   1c1f0:	01a53423          	sd	s10,8(a0)
   1c1f4:	00a7b023          	sd	a0,0(a5)
   1c1f8:	00a43423          	sd	a0,8(s0)
   1c1fc:	00843783          	ld	a5,8(s0)
   1c200:	08800a13          	li	s4,136
   1c204:	0007b023          	sd	zero,0(a5)
   1c208:	00043903          	ld	s2,0(s0)
   1c20c:	d681b983          	ld	s3,-664(gp)
   1c210:	00843423          	sd	s0,8(s0)
   1c214:	08100a93          	li	s5,129
   1c218:	14091463          	bnez	s2,1c360 <sigprocmask@plt+0x9300>
   1c21c:	00843783          	ld	a5,8(s0)
   1c220:	0007b023          	sd	zero,0(a5)
   1c224:	00043703          	ld	a4,0(s0)
   1c228:	00070863          	beqz	a4,1c238 <sigprocmask@plt+0x91d8>
   1c22c:	008b3683          	ld	a3,8(s6)
   1c230:	00e6b023          	sd	a4,0(a3)
   1c234:	00fb3423          	sd	a5,8(s6)
   1c238:	0c013403          	ld	s0,192(sp)
   1c23c:	0c813083          	ld	ra,200(sp)
   1c240:	0b813483          	ld	s1,184(sp)
   1c244:	0b013903          	ld	s2,176(sp)
   1c248:	0a813983          	ld	s3,168(sp)
   1c24c:	0a013a03          	ld	s4,160(sp)
   1c250:	09813a83          	ld	s5,152(sp)
   1c254:	09013b03          	ld	s6,144(sp)
   1c258:	08813b83          	ld	s7,136(sp)
   1c25c:	08013c03          	ld	s8,128(sp)
   1c260:	07813c83          	ld	s9,120(sp)
   1c264:	07013d03          	ld	s10,112(sp)
   1c268:	06813d83          	ld	s11,104(sp)
   1c26c:	0d010113          	addi	sp,sp,208
   1c270:	ff8f906f          	j	15a68 <sigprocmask@plt+0x2a08>
   1c274:	c5918a13          	addi	s4,gp,-935
   1c278:	f11ff06f          	j	1c188 <sigprocmask@plt+0x9128>
   1c27c:	000dc683          	lbu	a3,0(s11)
   1c280:	08100793          	li	a5,129
   1c284:	000d8c93          	mv	s9,s11
   1c288:	00f69463          	bne	a3,a5,1c290 <sigprocmask@plt+0x9230>
   1c28c:	001d8c93          	addi	s9,s11,1
   1c290:	000cc583          	lbu	a1,0(s9)
   1c294:	000b8513          	mv	a0,s7
   1c298:	001c8c93          	addi	s9,s9,1
   1c29c:	00b13423          	sd	a1,8(sp)
   1c2a0:	cf1f60ef          	jal	ra,12f90 <strchr@plt>
   1c2a4:	0a050263          	beqz	a0,1c348 <sigprocmask@plt+0x92e8>
   1c2a8:	000c1a63          	bnez	s8,1c2bc <sigprocmask@plt+0x925c>
   1c2ac:	00813583          	ld	a1,8(sp)
   1c2b0:	c5918513          	addi	a0,gp,-935
   1c2b4:	cddf60ef          	jal	ra,12f90 <strchr@plt>
   1c2b8:	00a03ab3          	snez	s5,a0
   1c2bc:	01ad9463          	bne	s11,s10,1c2c4 <sigprocmask@plt+0x9264>
   1c2c0:	080a9263          	bnez	s5,1c344 <sigprocmask@plt+0x92e4>
   1c2c4:	000d8023          	sb	zero,0(s11)
   1c2c8:	01000513          	li	a0,16
   1c2cc:	d6cfa0ef          	jal	ra,16838 <sigprocmask@plt+0x37d8>
   1c2d0:	00843783          	ld	a5,8(s0)
   1c2d4:	01a53423          	sd	s10,8(a0)
   1c2d8:	000c8d13          	mv	s10,s9
   1c2dc:	00a7b023          	sd	a0,0(a5)
   1c2e0:	00a43423          	sd	a0,8(s0)
   1c2e4:	06099263          	bnez	s3,1c348 <sigprocmask@plt+0x92e8>
   1c2e8:	00c4ac83          	lw	s9,12(s1)
   1c2ec:	01990cb3          	add	s9,s2,s9
   1c2f0:	079d7063          	bgeu	s10,s9,1c350 <sigprocmask@plt+0x92f0>
   1c2f4:	000d4683          	lbu	a3,0(s10)
   1c2f8:	08100793          	li	a5,129
   1c2fc:	000d0d93          	mv	s11,s10
   1c300:	00f69463          	bne	a3,a5,1c308 <sigprocmask@plt+0x92a8>
   1c304:	001d0d93          	addi	s11,s10,1
   1c308:	000dc583          	lbu	a1,0(s11)
   1c30c:	000b8513          	mv	a0,s7
   1c310:	00b13423          	sd	a1,8(sp)
   1c314:	c7df60ef          	jal	ra,12f90 <strchr@plt>
   1c318:	02050c63          	beqz	a0,1c350 <sigprocmask@plt+0x92f0>
   1c31c:	00813583          	ld	a1,8(sp)
   1c320:	c5918513          	addi	a0,gp,-935
   1c324:	c6df60ef          	jal	ra,12f90 <strchr@plt>
   1c328:	00051a63          	bnez	a0,1c33c <sigprocmask@plt+0x92dc>
   1c32c:	020a8263          	beqz	s5,1c350 <sigprocmask@plt+0x92f0>
   1c330:	001d8d13          	addi	s10,s11,1
   1c334:	00000a93          	li	s5,0
   1c338:	fb9ff06f          	j	1c2f0 <sigprocmask@plt+0x9290>
   1c33c:	001d8d13          	addi	s10,s11,1
   1c340:	fb1ff06f          	j	1c2f0 <sigprocmask@plt+0x9290>
   1c344:	000c8d13          	mv	s10,s9
   1c348:	000c8d93          	mv	s11,s9
   1c34c:	e79ff06f          	j	1c1c4 <sigprocmask@plt+0x9164>
   1c350:	000d0c93          	mv	s9,s10
   1c354:	ff5ff06f          	j	1c348 <sigprocmask@plt+0x92e8>
   1c358:	00050d13          	mv	s10,a0
   1c35c:	e81ff06f          	j	1c1dc <sigprocmask@plt+0x917c>
   1c360:	0569c783          	lbu	a5,86(s3)
   1c364:	0c079063          	bnez	a5,1c424 <sigprocmask@plt+0x93c4>
   1c368:	00893503          	ld	a0,8(s2)
   1c36c:	05b00c13          	li	s8,91
   1c370:	05c00c93          	li	s9,92
   1c374:	c2c18593          	addi	a1,gp,-980
   1c378:	ca9f60ef          	jal	ra,13020 <strpbrk@plt>
   1c37c:	00050493          	mv	s1,a0
   1c380:	0a050263          	beqz	a0,1c424 <sigprocmask@plt+0x93c4>
   1c384:	00054783          	lbu	a5,0(a0)
   1c388:	07478e63          	beq	a5,s4,1c404 <sigprocmask@plt+0x93a4>
   1c38c:	00fa6a63          	bltu	s4,a5,1c3a0 <sigprocmask@plt+0x9340>
   1c390:	0b578863          	beq	a5,s5,1c440 <sigprocmask@plt+0x93e0>
   1c394:	00fae663          	bltu	s5,a5,1c3a0 <sigprocmask@plt+0x9340>
   1c398:	0b878e63          	beq	a5,s8,1c454 <sigprocmask@plt+0x93f4>
   1c39c:	0b978263          	beq	a5,s9,1c440 <sigprocmask@plt+0x93e0>
   1c3a0:	0409a783          	lw	a5,64(s3)
   1c3a4:	0017879b          	addiw	a5,a5,1
   1c3a8:	04f9a023          	sw	a5,64(s3)
   1c3ac:	00893503          	ld	a0,8(s2)
   1c3b0:	01300593          	li	a1,19
   1c3b4:	e00fb0ef          	jal	ra,179b4 <sigprocmask@plt+0x4954>
   1c3b8:	01810693          	addi	a3,sp,24
   1c3bc:	00000613          	li	a2,0
   1c3c0:	00000593          	li	a1,0
   1c3c4:	00050c13          	mv	s8,a0
   1c3c8:	e58f60ef          	jal	ra,12a20 <glob@plt>
   1c3cc:	00893783          	ld	a5,8(s2)
   1c3d0:	00050493          	mv	s1,a0
   1c3d4:	00fc0663          	beq	s8,a5,1c3e0 <sigprocmask@plt+0x9380>
   1c3d8:	000c0513          	mv	a0,s8
   1c3dc:	c75f60ef          	jal	ra,13050 <free@plt>
   1c3e0:	08048863          	beqz	s1,1c470 <sigprocmask@plt+0x9410>
   1c3e4:	00300793          	li	a5,3
   1c3e8:	0cf48a63          	beq	s1,a5,1c4bc <sigprocmask@plt+0x945c>
   1c3ec:	01810513          	addi	a0,sp,24
   1c3f0:	aa1f60ef          	jal	ra,12e90 <globfree@plt>
   1c3f4:	d14f90ef          	jal	ra,15908 <sigprocmask@plt+0x28a8>
   1c3f8:	00025537          	lui	a0,0x25
   1c3fc:	f3650513          	addi	a0,a0,-202 # 24f36 <sigprocmask@plt+0x11ed6>
   1c400:	e65f90ef          	jal	ra,16264 <sigprocmask@plt+0x3204>
   1c404:	0014c703          	lbu	a4,1(s1)
   1c408:	00148793          	addi	a5,s1,1
   1c40c:	05470e63          	beq	a4,s4,1c468 <sigprocmask@plt+0x9408>
   1c410:	00248493          	addi	s1,s1,2
   1c414:	01570463          	beq	a4,s5,1c41c <sigprocmask@plt+0x93bc>
   1c418:	00078493          	mv	s1,a5
   1c41c:	0004c783          	lbu	a5,0(s1)
   1c420:	fe0792e3          	bnez	a5,1c404 <sigprocmask@plt+0x93a4>
   1c424:	00843783          	ld	a5,8(s0)
   1c428:	00893503          	ld	a0,8(s2)
   1c42c:	00000593          	li	a1,0
   1c430:	0127b023          	sd	s2,0(a5)
   1c434:	d80fb0ef          	jal	ra,179b4 <sigprocmask@plt+0x4954>
   1c438:	01243423          	sd	s2,8(s0)
   1c43c:	0780006f          	j	1c4b4 <sigprocmask@plt+0x9454>
   1c440:	0014c783          	lbu	a5,1(s1)
   1c444:	fe0780e3          	beqz	a5,1c424 <sigprocmask@plt+0x93c4>
   1c448:	00148493          	addi	s1,s1,1
   1c44c:	00148513          	addi	a0,s1,1
   1c450:	f25ff06f          	j	1c374 <sigprocmask@plt+0x9314>
   1c454:	05d00593          	li	a1,93
   1c458:	00150513          	addi	a0,a0,1
   1c45c:	b35f60ef          	jal	ra,12f90 <strchr@plt>
   1c460:	f40510e3          	bnez	a0,1c3a0 <sigprocmask@plt+0x9340>
   1c464:	fe9ff06f          	j	1c44c <sigprocmask@plt+0x93ec>
   1c468:	00078493          	mv	s1,a5
   1c46c:	fe1ff06f          	j	1c44c <sigprocmask@plt+0x93ec>
   1c470:	02013c03          	ld	s8,32(sp)
   1c474:	000c3c83          	ld	s9,0(s8)
   1c478:	01000513          	li	a0,16
   1c47c:	bbcfa0ef          	jal	ra,16838 <sigprocmask@plt+0x37d8>
   1c480:	00050493          	mv	s1,a0
   1c484:	000c8513          	mv	a0,s9
   1c488:	b7cfa0ef          	jal	ra,16804 <sigprocmask@plt+0x37a4>
   1c48c:	00843783          	ld	a5,8(s0)
   1c490:	00a4b423          	sd	a0,8(s1)
   1c494:	008c0c13          	addi	s8,s8,8
   1c498:	0097b023          	sd	s1,0(a5)
   1c49c:	000c3783          	ld	a5,0(s8)
   1c4a0:	00943423          	sd	s1,8(s0)
   1c4a4:	fc0798e3          	bnez	a5,1c474 <sigprocmask@plt+0x9414>
   1c4a8:	01810513          	addi	a0,sp,24
   1c4ac:	9e5f60ef          	jal	ra,12e90 <globfree@plt>
   1c4b0:	c58f90ef          	jal	ra,15908 <sigprocmask@plt+0x28a8>
   1c4b4:	00093903          	ld	s2,0(s2)
   1c4b8:	d61ff06f          	j	1c218 <sigprocmask@plt+0x91b8>
   1c4bc:	01810513          	addi	a0,sp,24
   1c4c0:	9d1f60ef          	jal	ra,12e90 <globfree@plt>
   1c4c4:	c44f90ef          	jal	ra,15908 <sigprocmask@plt+0x28a8>
   1c4c8:	f5dff06f          	j	1c424 <sigprocmask@plt+0x93c4>
   1c4cc:	01000513          	li	a0,16
   1c4d0:	b68fa0ef          	jal	ra,16838 <sigprocmask@plt+0x37d8>
   1c4d4:	00843783          	ld	a5,8(s0)
   1c4d8:	01253423          	sd	s2,8(a0)
   1c4dc:	00a7b023          	sd	a0,0(a5)
   1c4e0:	00a43423          	sd	a0,8(s0)
   1c4e4:	d39ff06f          	j	1c21c <sigprocmask@plt+0x91bc>
   1c4e8:	4e050e63          	beqz	a0,1c9e4 <sigprocmask@plt+0x9984>
   1c4ec:	f0010113          	addi	sp,sp,-256
   1c4f0:	0d513423          	sd	s5,200(sp)
   1c4f4:	d681b703          	ld	a4,-664(gp)
   1c4f8:	0d313c23          	sd	s3,216(sp)
   1c4fc:	0e113c23          	sd	ra,248(sp)
   1c500:	04072783          	lw	a5,64(a4)
   1c504:	0e813823          	sd	s0,240(sp)
   1c508:	0e913423          	sd	s1,232(sp)
   1c50c:	0f213023          	sd	s2,224(sp)
   1c510:	0d413823          	sd	s4,208(sp)
   1c514:	0d613023          	sd	s6,192(sp)
   1c518:	0b713c23          	sd	s7,184(sp)
   1c51c:	0b813823          	sd	s8,176(sp)
   1c520:	0b913423          	sd	s9,168(sp)
   1c524:	0ba13023          	sd	s10,160(sp)
   1c528:	09b13c23          	sd	s11,152(sp)
   1c52c:	0017879b          	addiw	a5,a5,1
   1c530:	00050993          	mv	s3,a0
   1c534:	04f72023          	sw	a5,64(a4)
   1c538:	00000a13          	li	s4,0
   1c53c:	00058663          	beqz	a1,1c548 <sigprocmask@plt+0x94e8>
   1c540:	d701b783          	ld	a5,-656(gp)
   1c544:	0107ba03          	ld	s4,16(a5)
   1c548:	d701bb83          	ld	s7,-656(gp)
   1c54c:	ca01bc03          	ld	s8,-864(gp)
   1c550:	d601b783          	ld	a5,-672(gp)
   1c554:	00f13023          	sd	a5,0(sp)
   1c558:	0009a783          	lw	a5,0(s3)
   1c55c:	00100693          	li	a3,1
   1c560:	0109a483          	lw	s1,16(s3)
   1c564:	fea7861b          	addiw	a2,a5,-22
   1c568:	0007871b          	sext.w	a4,a5
   1c56c:	04c6e863          	bltu	a3,a2,1c5bc <sigprocmask@plt+0x955c>
   1c570:	0149a403          	lw	s0,20(s3)
   1c574:	2a849863          	bne	s1,s0,1c824 <sigprocmask@plt+0x97c4>
   1c578:	0089b983          	ld	s3,8(s3)
   1c57c:	fc099ee3          	bnez	s3,1c558 <sigprocmask@plt+0x94f8>
   1c580:	0f013403          	ld	s0,240(sp)
   1c584:	0f813083          	ld	ra,248(sp)
   1c588:	0e813483          	ld	s1,232(sp)
   1c58c:	0e013903          	ld	s2,224(sp)
   1c590:	0d813983          	ld	s3,216(sp)
   1c594:	0d013a03          	ld	s4,208(sp)
   1c598:	0c813a83          	ld	s5,200(sp)
   1c59c:	0c013b03          	ld	s6,192(sp)
   1c5a0:	0b813b83          	ld	s7,184(sp)
   1c5a4:	0b013c03          	ld	s8,176(sp)
   1c5a8:	0a813c83          	ld	s9,168(sp)
   1c5ac:	0a013d03          	ld	s10,160(sp)
   1c5b0:	09813d83          	ld	s11,152(sp)
   1c5b4:	10010113          	addi	sp,sp,256
   1c5b8:	b50f906f          	j	15908 <sigprocmask@plt+0x28a8>
   1c5bc:	fe87071b          	addiw	a4,a4,-24
   1c5c0:	10e6e663          	bltu	a3,a4,1c6cc <sigprocmask@plt+0x966c>
   1c5c4:	01010513          	addi	a0,sp,16
   1c5c8:	d58f60ef          	jal	ra,12b20 <pipe@plt>
   1c5cc:	00055863          	bgez	a0,1c5dc <sigprocmask@plt+0x957c>
   1c5d0:	00024537          	lui	a0,0x24
   1c5d4:	fe050513          	addi	a0,a0,-32 # 23fe0 <sigprocmask@plt+0x10f80>
   1c5d8:	c8df90ef          	jal	ra,16264 <sigprocmask@plt+0x3204>
   1c5dc:	0009a703          	lw	a4,0(s3)
   1c5e0:	01900793          	li	a5,25
   1c5e4:	0189b503          	ld	a0,24(s3)
   1c5e8:	06f70663          	beq	a4,a5,1c654 <sigprocmask@plt+0x95f4>
   1c5ec:	01053903          	ld	s2,16(a0)
   1c5f0:	00090513          	mv	a0,s2
   1c5f4:	97df60ef          	jal	ra,12f70 <strlen@plt>
   1c5f8:	000017b7          	lui	a5,0x1
   1c5fc:	00050413          	mv	s0,a0
   1c600:	06a7e663          	bltu	a5,a0,1c66c <sigprocmask@plt+0x960c>
   1c604:	00050613          	mv	a2,a0
   1c608:	01412503          	lw	a0,20(sp)
   1c60c:	00090593          	mv	a1,s2
   1c610:	810f80ef          	jal	ra,14620 <sigprocmask@plt+0x15c0>
   1c614:	01412503          	lw	a0,20(sp)
   1c618:	9e9f60ef          	jal	ra,13000 <close@plt>
   1c61c:	01012403          	lw	s0,16(sp)
   1c620:	28849c63          	bne	s1,s0,1c8b8 <sigprocmask@plt+0x9858>
   1c624:	f40a0ae3          	beqz	s4,1c578 <sigprocmask@plt+0x9518>
   1c628:	00ca0713          	addi	a4,s4,12
   1c62c:	00000793          	li	a5,0
   1c630:	ffe00613          	li	a2,-2
   1c634:	00072683          	lw	a3,0(a4)
   1c638:	1cc69e63          	bne	a3,a2,1c814 <sigprocmask@plt+0x97b4>
   1c63c:	00379793          	slli	a5,a5,0x3
   1c640:	00fa07b3          	add	a5,s4,a5
   1c644:	fff00713          	li	a4,-1
   1c648:	0087a623          	sw	s0,12(a5) # 100c <longjmp@plt-0x11874>
   1c64c:	00e7a823          	sw	a4,16(a5)
   1c650:	f29ff06f          	j	1c578 <sigprocmask@plt+0x9518>
   1c654:	10000613          	li	a2,256
   1c658:	00000593          	li	a1,0
   1c65c:	a7dff0ef          	jal	ra,1c0d8 <sigprocmask@plt+0x9078>
   1c660:	00013783          	ld	a5,0(sp)
   1c664:	0087b903          	ld	s2,8(a5)
   1c668:	f89ff06f          	j	1c5f0 <sigprocmask@plt+0x9590>
   1c66c:	00200613          	li	a2,2
   1c670:	00000593          	li	a1,0
   1c674:	00000513          	li	a0,0
   1c678:	bc4fe0ef          	jal	ra,1aa3c <sigprocmask@plt+0x79dc>
   1c67c:	f8051ce3          	bnez	a0,1c614 <sigprocmask@plt+0x95b4>
   1c680:	01012503          	lw	a0,16(sp)
   1c684:	97df60ef          	jal	ra,13000 <close@plt>
   1c688:	00200513          	li	a0,2
   1c68c:	950f90ef          	jal	ra,157dc <sigprocmask@plt+0x277c>
   1c690:	00300513          	li	a0,3
   1c694:	948f90ef          	jal	ra,157dc <sigprocmask@plt+0x277c>
   1c698:	00100513          	li	a0,1
   1c69c:	940f90ef          	jal	ra,157dc <sigprocmask@plt+0x277c>
   1c6a0:	01400513          	li	a0,20
   1c6a4:	938f90ef          	jal	ra,157dc <sigprocmask@plt+0x277c>
   1c6a8:	00000593          	li	a1,0
   1c6ac:	00d00513          	li	a0,13
   1c6b0:	d90f60ef          	jal	ra,12c40 <signal@plt>
   1c6b4:	01412503          	lw	a0,20(sp)
   1c6b8:	00040613          	mv	a2,s0
   1c6bc:	00090593          	mv	a1,s2
   1c6c0:	f61f70ef          	jal	ra,14620 <sigprocmask@plt+0x15c0>
   1c6c4:	00000513          	li	a0,0
   1c6c8:	879f60ef          	jal	ra,12f40 <_exit@plt>
   1c6cc:	01500713          	li	a4,21
   1c6d0:	0209b903          	ld	s2,32(s3)
   1c6d4:	12e78a63          	beq	a5,a4,1c808 <sigprocmask@plt+0x97a8>
   1c6d8:	00f74e63          	blt	a4,a5,1c6f4 <sigprocmask@plt+0x9694>
   1c6dc:	01400713          	li	a4,20
   1c6e0:	04e78863          	beq	a5,a4,1c730 <sigprocmask@plt+0x96d0>
   1c6e4:	01000713          	li	a4,16
   1c6e8:	06e78263          	beq	a5,a4,1c74c <sigprocmask@plt+0x96ec>
   1c6ec:	01200713          	li	a4,18
   1c6f0:	10e78663          	beq	a5,a4,1c7fc <sigprocmask@plt+0x979c>
   1c6f4:	00000593          	li	a1,0
   1c6f8:	00090513          	mv	a0,s2
   1c6fc:	885f60ef          	jal	ra,12f80 <open@plt>
   1c700:	00050413          	mv	s0,a0
   1c704:	f0055ee3          	bgez	a0,1c620 <sigprocmask@plt+0x95c0>
   1c708:	ca01b783          	ld	a5,-864(gp)
   1c70c:	000245b7          	lui	a1,0x24
   1c710:	ff858593          	addi	a1,a1,-8 # 23ff8 <sigprocmask@plt+0x10f98>
   1c714:	0007a503          	lw	a0,0(a5)
   1c718:	e65f80ef          	jal	ra,1557c <sigprocmask@plt+0x251c>
   1c71c:	00050613          	mv	a2,a0
   1c720:	00024537          	lui	a0,0x24
   1c724:	00090593          	mv	a1,s2
   1c728:	00850513          	addi	a0,a0,8 # 24008 <sigprocmask@plt+0x10fa8>
   1c72c:	b39f90ef          	jal	ra,16264 <sigprocmask@plt+0x3204>
   1c730:	1b600613          	li	a2,438
   1c734:	04200593          	li	a1,66
   1c738:	00090513          	mv	a0,s2
   1c73c:	845f60ef          	jal	ra,12f80 <open@plt>
   1c740:	00050413          	mv	s0,a0
   1c744:	ec055ee3          	bgez	a0,1c620 <sigprocmask@plt+0x95c0>
   1c748:	08c0006f          	j	1c7d4 <sigprocmask@plt+0x9774>
   1c74c:	d681b783          	ld	a5,-664(gp)
   1c750:	05f7c783          	lbu	a5,95(a5)
   1c754:	0a078463          	beqz	a5,1c7fc <sigprocmask@plt+0x979c>
   1c758:	01010593          	addi	a1,sp,16
   1c75c:	00090513          	mv	a0,s2
   1c760:	f60f60ef          	jal	ra,12ec0 <stat@plt>
   1c764:	00055863          	bgez	a0,1c774 <sigprocmask@plt+0x9714>
   1c768:	1b600613          	li	a2,438
   1c76c:	0c100593          	li	a1,193
   1c770:	fc9ff06f          	j	1c738 <sigprocmask@plt+0x96d8>
   1c774:	02012783          	lw	a5,32(sp)
   1c778:	0000f737          	lui	a4,0xf
   1c77c:	00e7f7b3          	and	a5,a5,a4
   1c780:	00008737          	lui	a4,0x8
   1c784:	04e78263          	beq	a5,a4,1c7c8 <sigprocmask@plt+0x9768>
   1c788:	1b600613          	li	a2,438
   1c78c:	00100593          	li	a1,1
   1c790:	00090513          	mv	a0,s2
   1c794:	fecf60ef          	jal	ra,12f80 <open@plt>
   1c798:	00050413          	mv	s0,a0
   1c79c:	02054c63          	bltz	a0,1c7d4 <sigprocmask@plt+0x9774>
   1c7a0:	01010593          	addi	a1,sp,16
   1c7a4:	bdcf60ef          	jal	ra,12b80 <fstat@plt>
   1c7a8:	e6051ce3          	bnez	a0,1c620 <sigprocmask@plt+0x95c0>
   1c7ac:	02012783          	lw	a5,32(sp)
   1c7b0:	0000f737          	lui	a4,0xf
   1c7b4:	00e7f7b3          	and	a5,a5,a4
   1c7b8:	00008737          	lui	a4,0x8
   1c7bc:	e6e792e3          	bne	a5,a4,1c620 <sigprocmask@plt+0x95c0>
   1c7c0:	00040513          	mv	a0,s0
   1c7c4:	83df60ef          	jal	ra,13000 <close@plt>
   1c7c8:	ca01b783          	ld	a5,-864(gp)
   1c7cc:	01100713          	li	a4,17
   1c7d0:	00e7a023          	sw	a4,0(a5)
   1c7d4:	ca01b783          	ld	a5,-864(gp)
   1c7d8:	000245b7          	lui	a1,0x24
   1c7dc:	02058593          	addi	a1,a1,32 # 24020 <sigprocmask@plt+0x10fc0>
   1c7e0:	0007a503          	lw	a0,0(a5)
   1c7e4:	d99f80ef          	jal	ra,1557c <sigprocmask@plt+0x251c>
   1c7e8:	00050613          	mv	a2,a0
   1c7ec:	00024537          	lui	a0,0x24
   1c7f0:	00090593          	mv	a1,s2
   1c7f4:	03850513          	addi	a0,a0,56 # 24038 <sigprocmask@plt+0x10fd8>
   1c7f8:	a6df90ef          	jal	ra,16264 <sigprocmask@plt+0x3204>
   1c7fc:	1b600613          	li	a2,438
   1c800:	24100593          	li	a1,577
   1c804:	f35ff06f          	j	1c738 <sigprocmask@plt+0x96d8>
   1c808:	1b600613          	li	a2,438
   1c80c:	44100593          	li	a1,1089
   1c810:	f29ff06f          	j	1c738 <sigprocmask@plt+0x96d8>
   1c814:	00870713          	addi	a4,a4,8 # 8008 <longjmp@plt-0xa878>
   1c818:	d6d400e3          	beq	s0,a3,1c578 <sigprocmask@plt+0x9518>
   1c81c:	0017879b          	addiw	a5,a5,1
   1c820:	e15ff06f          	j	1c634 <sigprocmask@plt+0x95d4>
   1c824:	fff00b13          	li	s6,-1
   1c828:	060a0463          	beqz	s4,1c890 <sigprocmask@plt+0x9830>
   1c82c:	00900793          	li	a5,9
   1c830:	0004059b          	sext.w	a1,s0
   1c834:	00f45463          	bge	s0,a5,1c83c <sigprocmask@plt+0x97dc>
   1c838:	00900593          	li	a1,9
   1c83c:	00048663          	beqz	s1,1c848 <sigprocmask@plt+0x97e8>
   1c840:	c781bc83          	ld	s9,-904(gp)
   1c844:	060c9e63          	bnez	s9,1c8c0 <sigprocmask@plt+0x9860>
   1c848:	00ca0793          	addi	a5,s4,12
   1c84c:	00000913          	li	s2,0
   1c850:	ffe00693          	li	a3,-2
   1c854:	0007a703          	lw	a4,0(a5)
   1c858:	0ed71c63          	bne	a4,a3,1c950 <sigprocmask@plt+0x98f0>
   1c85c:	00048513          	mv	a0,s1
   1c860:	ca9f80ef          	jal	ra,15508 <sigprocmask@plt+0x24a8>
   1c864:	00055863          	bgez	a0,1c874 <sigprocmask@plt+0x9814>
   1c868:	000c2703          	lw	a4,0(s8)
   1c86c:	00900793          	li	a5,9
   1c870:	10f71063          	bne	a4,a5,1c970 <sigprocmask@plt+0x9910>
   1c874:	00391913          	slli	s2,s2,0x3
   1c878:	018ba783          	lw	a5,24(s7)
   1c87c:	012a0933          	add	s2,s4,s2
   1c880:	00a92823          	sw	a0,16(s2)
   1c884:	00992623          	sw	s1,12(s2)
   1c888:	00979463          	bne	a5,s1,1c890 <sigprocmask@plt+0x9830>
   1c88c:	00abac23          	sw	a0,24(s7)
   1c890:	fff00793          	li	a5,-1
   1c894:	0ef40863          	beq	s0,a5,1c984 <sigprocmask@plt+0x9924>
   1c898:	0e041c63          	bnez	s0,1c990 <sigprocmask@plt+0x9930>
   1c89c:	080a1863          	bnez	s4,1c92c <sigprocmask@plt+0x98cc>
   1c8a0:	00048593          	mv	a1,s1
   1c8a4:	00040513          	mv	a0,s0
   1c8a8:	ef8fb0ef          	jal	ra,17fa0 <sigprocmask@plt+0x4f40>
   1c8ac:	cc0b46e3          	bltz	s6,1c578 <sigprocmask@plt+0x9518>
   1c8b0:	000b0513          	mv	a0,s6
   1c8b4:	0d40006f          	j	1c988 <sigprocmask@plt+0x9928>
   1c8b8:	00040b13          	mv	s6,s0
   1c8bc:	f6dff06f          	j	1c828 <sigprocmask@plt+0x97c8>
   1c8c0:	00cca783          	lw	a5,12(s9)
   1c8c4:	08979263          	bne	a5,s1,1c948 <sigprocmask@plt+0x98e8>
   1c8c8:	0015891b          	addiw	s2,a1,1
   1c8cc:	01000d93          	li	s11,16
   1c8d0:	00400d13          	li	s10,4
   1c8d4:	40600593          	li	a1,1030
   1c8d8:	00090613          	mv	a2,s2
   1c8dc:	00048513          	mv	a0,s1
   1c8e0:	ef0f60ef          	jal	ra,12fd0 <fcntl@plt>
   1c8e4:	00050593          	mv	a1,a0
   1c8e8:	02055263          	bgez	a0,1c90c <sigprocmask@plt+0x98ac>
   1c8ec:	000c2783          	lw	a5,0(s8)
   1c8f0:	ffb782e3          	beq	a5,s11,1c8d4 <sigprocmask@plt+0x9874>
   1c8f4:	ffa780e3          	beq	a5,s10,1c8d4 <sigprocmask@plt+0x9874>
   1c8f8:	00900713          	li	a4,9
   1c8fc:	04e78263          	beq	a5,a4,1c940 <sigprocmask@plt+0x98e0>
   1c900:	00024537          	lui	a0,0x24
   1c904:	c9850513          	addi	a0,a0,-872 # 23c98 <sigprocmask@plt+0x10c38>
   1c908:	95df90ef          	jal	ra,16264 <sigprocmask@plt+0x3204>
   1c90c:	00a13423          	sd	a0,8(sp)
   1c910:	00048513          	mv	a0,s1
   1c914:	eecf60ef          	jal	ra,13000 <close@plt>
   1c918:	00813583          	ld	a1,8(sp)
   1c91c:	00bca623          	sw	a1,12(s9)
   1c920:	fff00793          	li	a5,-1
   1c924:	c4f40ae3          	beq	s0,a5,1c578 <sigprocmask@plt+0x9518>
   1c928:	06041463          	bnez	s0,1c990 <sigprocmask@plt+0x9930>
   1c92c:	008a2583          	lw	a1,8(s4)
   1c930:	00ca0793          	addi	a5,s4,12
   1c934:	00000713          	li	a4,0
   1c938:	ffe00693          	li	a3,-2
   1c93c:	07c0006f          	j	1c9b8 <sigprocmask@plt+0x9958>
   1c940:	00048593          	mv	a1,s1
   1c944:	fd9ff06f          	j	1c91c <sigprocmask@plt+0x98bc>
   1c948:	000cbc83          	ld	s9,0(s9)
   1c94c:	ef9ff06f          	j	1c844 <sigprocmask@plt+0x97e4>
   1c950:	0047a603          	lw	a2,4(a5)
   1c954:	02961063          	bne	a2,s1,1c974 <sigprocmask@plt+0x9914>
   1c958:	00048513          	mv	a0,s1
   1c95c:	00391913          	slli	s2,s2,0x3
   1c960:	ba9f80ef          	jal	ra,15508 <sigprocmask@plt+0x24a8>
   1c964:	012a0933          	add	s2,s4,s2
   1c968:	00a92823          	sw	a0,16(s2)
   1c96c:	f20552e3          	bgez	a0,1c890 <sigprocmask@plt+0x9830>
   1c970:	fe4f70ef          	jal	ra,14154 <sigprocmask@plt+0x10f4>
   1c974:	00878793          	addi	a5,a5,8
   1c978:	f0e48ce3          	beq	s1,a4,1c890 <sigprocmask@plt+0x9830>
   1c97c:	0019091b          	addiw	s2,s2,1
   1c980:	ed5ff06f          	j	1c854 <sigprocmask@plt+0x97f4>
   1c984:	00048513          	mv	a0,s1
   1c988:	e78f60ef          	jal	ra,13000 <close@plt>
   1c98c:	bedff06f          	j	1c578 <sigprocmask@plt+0x9518>
   1c990:	c781b783          	ld	a5,-904(gp)
   1c994:	f00784e3          	beqz	a5,1c89c <sigprocmask@plt+0x983c>
   1c998:	00c7a703          	lw	a4,12(a5)
   1c99c:	02870663          	beq	a4,s0,1c9c8 <sigprocmask@plt+0x9968>
   1c9a0:	0007b783          	ld	a5,0(a5)
   1c9a4:	ff1ff06f          	j	1c994 <sigprocmask@plt+0x9934>
   1c9a8:	0047a603          	lw	a2,4(a5)
   1c9ac:	00878793          	addi	a5,a5,8
   1c9b0:	00860c63          	beq	a2,s0,1c9c8 <sigprocmask@plt+0x9968>
   1c9b4:	0017071b          	addiw	a4,a4,1
   1c9b8:	eeb754e3          	bge	a4,a1,1c8a0 <sigprocmask@plt+0x9840>
   1c9bc:	0007a603          	lw	a2,0(a5)
   1c9c0:	fed614e3          	bne	a2,a3,1c9a8 <sigprocmask@plt+0x9948>
   1c9c4:	eddff06f          	j	1c8a0 <sigprocmask@plt+0x9840>
   1c9c8:	ca01b783          	ld	a5,-864(gp)
   1c9cc:	00900713          	li	a4,9
   1c9d0:	00024537          	lui	a0,0x24
   1c9d4:	00e7a023          	sw	a4,0(a5)
   1c9d8:	00040593          	mv	a1,s0
   1c9dc:	c9850513          	addi	a0,a0,-872 # 23c98 <sigprocmask@plt+0x10c38>
   1c9e0:	885f90ef          	jal	ra,16264 <sigprocmask@plt+0x3204>
   1c9e4:	00008067          	ret
   1c9e8:	d681b783          	ld	a5,-664(gp)
   1c9ec:	e6010113          	addi	sp,sp,-416
   1c9f0:	00a13423          	sd	a0,8(sp)
   1c9f4:	0387b703          	ld	a4,56(a5)
   1c9f8:	02810513          	addi	a0,sp,40
   1c9fc:	18113c23          	sd	ra,408(sp)
   1ca00:	02e13023          	sd	a4,32(sp)
   1ca04:	0407a783          	lw	a5,64(a5)
   1ca08:	18813823          	sd	s0,400(sp)
   1ca0c:	18913423          	sd	s1,392(sp)
   1ca10:	0007879b          	sext.w	a5,a5
   1ca14:	00f12e23          	sw	a5,28(sp)
   1ca18:	e99f50ef          	jal	ra,128b0 <setjmp@plt>
   1ca1c:	d681b483          	ld	s1,-664(gp)
   1ca20:	00050413          	mv	s0,a0
   1ca24:	02050e63          	beqz	a0,1ca60 <sigprocmask@plt+0x9a00>
   1ca28:	02013503          	ld	a0,32(sp)
   1ca2c:	02a4bc23          	sd	a0,56(s1)
   1ca30:	04041463          	bnez	s0,1ca78 <sigprocmask@plt+0x9a18>
   1ca34:	01c12703          	lw	a4,28(sp)
   1ca38:	d681b783          	ld	a5,-664(gp)
   1ca3c:	0007071b          	sext.w	a4,a4
   1ca40:	04e7a023          	sw	a4,64(a5)
   1ca44:	0407a703          	lw	a4,64(a5)
   1ca48:	0007071b          	sext.w	a4,a4
   1ca4c:	04071063          	bnez	a4,1ca8c <sigprocmask@plt+0x9a2c>
   1ca50:	0447a783          	lw	a5,68(a5)
   1ca54:	0007879b          	sext.w	a5,a5
   1ca58:	02078a63          	beqz	a5,1ca8c <sigprocmask@plt+0x9a2c>
   1ca5c:	dcdf80ef          	jal	ra,15828 <sigprocmask@plt+0x27c8>
   1ca60:	00813503          	ld	a0,8(sp)
   1ca64:	02810793          	addi	a5,sp,40
   1ca68:	02f4bc23          	sd	a5,56(s1)
   1ca6c:	00100593          	li	a1,1
   1ca70:	a79ff0ef          	jal	ra,1c4e8 <sigprocmask@plt+0x9488>
   1ca74:	fb5ff06f          	j	1ca28 <sigprocmask@plt+0x99c8>
   1ca78:	0504a703          	lw	a4,80(s1)
   1ca7c:	00100793          	li	a5,1
   1ca80:	faf70ae3          	beq	a4,a5,1ca34 <sigprocmask@plt+0x99d4>
   1ca84:	00100593          	li	a1,1
   1ca88:	df9f50ef          	jal	ra,12880 <longjmp@plt>
   1ca8c:	19813083          	ld	ra,408(sp)
   1ca90:	00040513          	mv	a0,s0
   1ca94:	19013403          	ld	s0,400(sp)
   1ca98:	18813483          	ld	s1,392(sp)
   1ca9c:	1a010113          	addi	sp,sp,416
   1caa0:	00008067          	ret
   1caa4:	ca01b783          	ld	a5,-864(gp)
   1caa8:	fa010113          	addi	sp,sp,-96
   1caac:	04813823          	sd	s0,80(sp)
   1cab0:	05213023          	sd	s2,64(sp)
   1cab4:	03313c23          	sd	s3,56(sp)
   1cab8:	03413823          	sd	s4,48(sp)
   1cabc:	03513423          	sd	s5,40(sp)
   1cac0:	03613023          	sd	s6,32(sp)
   1cac4:	01713c23          	sd	s7,24(sp)
   1cac8:	04113c23          	sd	ra,88(sp)
   1cacc:	04913423          	sd	s1,72(sp)
   1cad0:	00050413          	mv	s0,a0
   1cad4:	01700913          	li	s2,23
   1cad8:	01500993          	li	s3,21
   1cadc:	00078b93          	mv	s7,a5
   1cae0:	02d00a13          	li	s4,45
   1cae4:	fff00a93          	li	s5,-1
   1cae8:	01000b13          	li	s6,16
   1caec:	02041863          	bnez	s0,1cb1c <sigprocmask@plt+0x9abc>
   1caf0:	05813083          	ld	ra,88(sp)
   1caf4:	05013403          	ld	s0,80(sp)
   1caf8:	04813483          	ld	s1,72(sp)
   1cafc:	04013903          	ld	s2,64(sp)
   1cb00:	03813983          	ld	s3,56(sp)
   1cb04:	03013a03          	ld	s4,48(sp)
   1cb08:	02813a83          	ld	s5,40(sp)
   1cb0c:	02013b03          	ld	s6,32(sp)
   1cb10:	01813b83          	ld	s7,24(sp)
   1cb14:	06010113          	addi	sp,sp,96
   1cb18:	00008067          	ret
   1cb1c:	00042783          	lw	a5,0(s0)
   1cb20:	00013023          	sd	zero,0(sp)
   1cb24:	00213423          	sd	sp,8(sp)
   1cb28:	02f94a63          	blt	s2,a5,1cb5c <sigprocmask@plt+0x9afc>
   1cb2c:	02f9cc63          	blt	s3,a5,1cb64 <sigprocmask@plt+0x9b04>
   1cb30:	01678863          	beq	a5,s6,1cb40 <sigprocmask@plt+0x9ae0>
   1cb34:	fee7879b          	addiw	a5,a5,-18
   1cb38:	00300713          	li	a4,3
   1cb3c:	02f76063          	bltu	a4,a5,1cb5c <sigprocmask@plt+0x9afc>
   1cb40:	01843503          	ld	a0,24(s0)
   1cb44:	00a00613          	li	a2,10
   1cb48:	00010593          	mv	a1,sp
   1cb4c:	d8cff0ef          	jal	ra,1c0d8 <sigprocmask@plt+0x9078>
   1cb50:	00013783          	ld	a5,0(sp)
   1cb54:	0087b783          	ld	a5,8(a5)
   1cb58:	02f43023          	sd	a5,32(s0)
   1cb5c:	00843403          	ld	s0,8(s0)
   1cb60:	f8dff06f          	j	1caec <sigprocmask@plt+0x9a8c>
   1cb64:	01843503          	ld	a0,24(s0)
   1cb68:	fe050ae3          	beqz	a0,1cb5c <sigprocmask@plt+0x9afc>
   1cb6c:	00a00613          	li	a2,10
   1cb70:	00010593          	mv	a1,sp
   1cb74:	d64ff0ef          	jal	ra,1c0d8 <sigprocmask@plt+0x9078>
   1cb78:	00013783          	ld	a5,0(sp)
   1cb7c:	00079863          	bnez	a5,1cb8c <sigprocmask@plt+0x9b2c>
   1cb80:	00024537          	lui	a0,0x24
   1cb84:	05050513          	addi	a0,a0,80 # 24050 <sigprocmask@plt+0x10ff0>
   1cb88:	edcf90ef          	jal	ra,16264 <sigprocmask@plt+0x3204>
   1cb8c:	0087b483          	ld	s1,8(a5)
   1cb90:	00a00613          	li	a2,10
   1cb94:	00000593          	li	a1,0
   1cb98:	00048513          	mv	a0,s1
   1cb9c:	814f80ef          	jal	ra,14bb0 <sigprocmask@plt+0x1b50>
   1cba0:	000ba783          	lw	a5,0(s7)
   1cba4:	0005051b          	sext.w	a0,a0
   1cba8:	00079a63          	bnez	a5,1cbbc <sigprocmask@plt+0x9b5c>
   1cbac:	0005079b          	sext.w	a5,a0
   1cbb0:	00054663          	bltz	a0,1cbbc <sigprocmask@plt+0x9b5c>
   1cbb4:	00f42a23          	sw	a5,20(s0)
   1cbb8:	fa5ff06f          	j	1cb5c <sigprocmask@plt+0x9afc>
   1cbbc:	0004c783          	lbu	a5,0(s1)
   1cbc0:	01479a63          	bne	a5,s4,1cbd4 <sigprocmask@plt+0x9b74>
   1cbc4:	0014c783          	lbu	a5,1(s1)
   1cbc8:	00079663          	bnez	a5,1cbd4 <sigprocmask@plt+0x9b74>
   1cbcc:	01542a23          	sw	s5,20(s0)
   1cbd0:	f8dff06f          	j	1cb5c <sigprocmask@plt+0x9afc>
   1cbd4:	00024537          	lui	a0,0x24
   1cbd8:	06050513          	addi	a0,a0,96 # 24060 <sigprocmask@plt+0x11000>
   1cbdc:	dccfa0ef          	jal	ra,171a8 <sigprocmask@plt+0x4148>
   1cbe0:	fa010113          	addi	sp,sp,-96
   1cbe4:	03413823          	sd	s4,48(sp)
   1cbe8:	00050a13          	mv	s4,a0
   1cbec:	00810513          	addi	a0,sp,8
   1cbf0:	04813823          	sd	s0,80(sp)
   1cbf4:	04913423          	sd	s1,72(sp)
   1cbf8:	05213023          	sd	s2,64(sp)
   1cbfc:	03313c23          	sd	s3,56(sp)
   1cc00:	04113c23          	sd	ra,88(sp)
   1cc04:	03513423          	sd	s5,40(sp)
   1cc08:	00058913          	mv	s2,a1
   1cc0c:	bbdf90ef          	jal	ra,167c8 <sigprocmask@plt+0x3768>
   1cc10:	00000993          	li	s3,0
   1cc14:	00000413          	li	s0,0
   1cc18:	100a0263          	beqz	s4,1cd1c <sigprocmask@plt+0x9cbc>
   1cc1c:	5bc000ef          	jal	ra,1d1d8 <sigprocmask@plt+0xa178>
   1cc20:	000a2783          	lw	a5,0(s4)
   1cc24:	00e00713          	li	a4,14
   1cc28:	06f76463          	bltu	a4,a5,1cc90 <sigprocmask@plt+0x9c30>
   1cc2c:	000256b7          	lui	a3,0x25
   1cc30:	00279713          	slli	a4,a5,0x2
   1cc34:	c1868693          	addi	a3,a3,-1000 # 24c18 <sigprocmask@plt+0x11bb8>
   1cc38:	00d70733          	add	a4,a4,a3
   1cc3c:	00072703          	lw	a4,0(a4)
   1cc40:	00070067          	jr	a4
   1cc44:	0001d7b7          	lui	a5,0x1d
   1cc48:	e9c78793          	addi	a5,a5,-356 # 1ce9c <sigprocmask@plt+0x9e3c>
   1cc4c:	00000413          	li	s0,0
   1cc50:	02c0006f          	j	1cc7c <sigprocmask@plt+0x9c1c>
   1cc54:	0001e7b7          	lui	a5,0x1e
   1cc58:	08c78793          	addi	a5,a5,140 # 1e08c <sigprocmask@plt+0xb02c>
   1cc5c:	d681b703          	ld	a4,-664(gp)
   1cc60:	00000413          	li	s0,0
   1cc64:	05574703          	lbu	a4,85(a4)
   1cc68:	00070a63          	beqz	a4,1cc7c <sigprocmask@plt+0x9c1c>
   1cc6c:	4019541b          	sraiw	s0,s2,0x1
   1cc70:	00144413          	xori	s0,s0,1
   1cc74:	00147413          	andi	s0,s0,1
   1cc78:	40800433          	neg	s0,s0
   1cc7c:	00090593          	mv	a1,s2
   1cc80:	000a0513          	mv	a0,s4
   1cc84:	000780e7          	jalr	a5
   1cc88:	00050993          	mv	s3,a0
   1cc8c:	0880006f          	j	1cd14 <sigprocmask@plt+0x9cb4>
   1cc90:	008a3503          	ld	a0,8(s4)
   1cc94:	00200593          	li	a1,2
   1cc98:	f49ff0ef          	jal	ra,1cbe0 <sigprocmask@plt+0x9b80>
   1cc9c:	00153993          	seqz	s3,a0
   1cca0:	00000413          	li	s0,0
   1cca4:	0700006f          	j	1cd14 <sigprocmask@plt+0x9cb4>
   1cca8:	d701b683          	ld	a3,-656(gp)
   1ccac:	004a2783          	lw	a5,4(s4)
   1ccb0:	d681b703          	ld	a4,-664(gp)
   1ccb4:	22f6ac23          	sw	a5,568(a3)
   1ccb8:	00f72a23          	sw	a5,20(a4)
   1ccbc:	d941a703          	lw	a4,-620(gp)
   1ccc0:	00070863          	beqz	a4,1ccd0 <sigprocmask@plt+0x9c70>
   1ccc4:	fff7071b          	addiw	a4,a4,-1
   1ccc8:	40e787bb          	subw	a5,a5,a4
   1cccc:	22f6ac23          	sw	a5,568(a3)
   1ccd0:	010a3503          	ld	a0,16(s4)
   1ccd4:	dd1ff0ef          	jal	ra,1caa4 <sigprocmask@plt+0x9a44>
   1ccd8:	010a3503          	ld	a0,16(s4)
   1ccdc:	b50f80ef          	jal	ra,1502c <sigprocmask@plt+0x1fcc>
   1cce0:	010a3503          	ld	a0,16(s4)
   1cce4:	d05ff0ef          	jal	ra,1c9e8 <sigprocmask@plt+0x9988>
   1cce8:	00050993          	mv	s3,a0
   1ccec:	00051a63          	bnez	a0,1cd00 <sigprocmask@plt+0x9ca0>
   1ccf0:	008a3503          	ld	a0,8(s4)
   1ccf4:	00297593          	andi	a1,s2,2
   1ccf8:	ee9ff0ef          	jal	ra,1cbe0 <sigprocmask@plt+0x9b80>
   1ccfc:	00050993          	mv	s3,a0
   1cd00:	010a3783          	ld	a5,16(s4)
   1cd04:	00000413          	li	s0,0
   1cd08:	00078663          	beqz	a5,1cd14 <sigprocmask@plt+0x9cb4>
   1cd0c:	00000513          	li	a0,0
   1cd10:	ad4fb0ef          	jal	ra,17fe4 <sigprocmask@plt+0x4f84>
   1cd14:	d681b783          	ld	a5,-664(gp)
   1cd18:	01378023          	sb	s3,0(a5)
   1cd1c:	01347433          	and	s0,s0,s3
   1cd20:	00197913          	andi	s2,s2,1
   1cd24:	01246433          	or	s0,s0,s2
   1cd28:	0004041b          	sext.w	s0,s0
   1cd2c:	4ac000ef          	jal	ra,1d1d8 <sigprocmask@plt+0xa178>
   1cd30:	12040c63          	beqz	s0,1ce68 <sigprocmask@plt+0x9e08>
   1cd34:	00300513          	li	a0,3
   1cd38:	c14f80ef          	jal	ra,1514c <sigprocmask@plt+0x20ec>
   1cd3c:	0001f7b7          	lui	a5,0x1f
   1cd40:	9c478793          	addi	a5,a5,-1596 # 1e9c4 <sigprocmask@plt+0xb964>
   1cd44:	f19ff06f          	j	1cc5c <sigprocmask@plt+0x9bfc>
   1cd48:	0001e7b7          	lui	a5,0x1e
   1cd4c:	ed478793          	addi	a5,a5,-300 # 1ded4 <sigprocmask@plt+0xae74>
   1cd50:	f0dff06f          	j	1cc5c <sigprocmask@plt+0x9bfc>
   1cd54:	0001e7b7          	lui	a5,0x1e
   1cd58:	19478793          	addi	a5,a5,404 # 1e194 <sigprocmask@plt+0xb134>
   1cd5c:	ef1ff06f          	j	1cc4c <sigprocmask@plt+0x9bec>
   1cd60:	ffb78a9b          	addiw	s5,a5,-5
   1cd64:	001ad79b          	srliw	a5,s5,0x1
   1cd68:	fff7859b          	addiw	a1,a5,-1
   1cd6c:	008a3503          	ld	a0,8(s4)
   1cd70:	00b965b3          	or	a1,s2,a1
   1cd74:	0025f593          	andi	a1,a1,2
   1cd78:	e69ff0ef          	jal	ra,1cbe0 <sigprocmask@plt+0x9b80>
   1cd7c:	00153793          	seqz	a5,a0
   1cd80:	00050993          	mv	s3,a0
   1cd84:	00000413          	li	s0,0
   1cd88:	f9578ae3          	beq	a5,s5,1cd1c <sigprocmask@plt+0x9cbc>
   1cd8c:	d901a403          	lw	s0,-624(gp)
   1cd90:	0c041863          	bnez	s0,1ce60 <sigprocmask@plt+0x9e00>
   1cd94:	010a3a03          	ld	s4,16(s4)
   1cd98:	0001d7b7          	lui	a5,0x1d
   1cd9c:	be078793          	addi	a5,a5,-1056 # 1cbe0 <sigprocmask@plt+0x9b80>
   1cda0:	eddff06f          	j	1cc7c <sigprocmask@plt+0x9c1c>
   1cda4:	0001e7b7          	lui	a5,0x1e
   1cda8:	44078793          	addi	a5,a5,1088 # 1e440 <sigprocmask@plt+0xb3e0>
   1cdac:	ea1ff06f          	j	1cc4c <sigprocmask@plt+0x9bec>
   1cdb0:	008a3503          	ld	a0,8(s4)
   1cdb4:	00200593          	li	a1,2
   1cdb8:	e29ff0ef          	jal	ra,1cbe0 <sigprocmask@plt+0x9b80>
   1cdbc:	d901a403          	lw	s0,-624(gp)
   1cdc0:	00050993          	mv	s3,a0
   1cdc4:	08041e63          	bnez	s0,1ce60 <sigprocmask@plt+0x9e00>
   1cdc8:	fc0506e3          	beqz	a0,1cd94 <sigprocmask@plt+0x9d34>
   1cdcc:	018a3a03          	ld	s4,24(s4)
   1cdd0:	00000993          	li	s3,0
   1cdd4:	f40a00e3          	beqz	s4,1cd14 <sigprocmask@plt+0x9cb4>
   1cdd8:	fc1ff06f          	j	1cd98 <sigprocmask@plt+0x9d38>
   1cddc:	d681b703          	ld	a4,-664(gp)
   1cde0:	04072783          	lw	a5,64(a4)
   1cde4:	0017879b          	addiw	a5,a5,1
   1cde8:	04f72023          	sw	a5,64(a4)
   1cdec:	00000513          	li	a0,0
   1cdf0:	000a0593          	mv	a1,s4
   1cdf4:	b7cfd0ef          	jal	ra,1a170 <sigprocmask@plt+0x7110>
   1cdf8:	00850413          	addi	s0,a0,8
   1cdfc:	00040513          	mv	a0,s0
   1ce00:	f6cf70ef          	jal	ra,1456c <sigprocmask@plt+0x150c>
   1ce04:	00850713          	addi	a4,a0,8
   1ce08:	cee1b823          	sd	a4,-784(gp)
   1ce0c:	00850433          	add	s0,a0,s0
   1ce10:	00050993          	mv	s3,a0
   1ce14:	000a0513          	mv	a0,s4
   1ce18:	ce81bc23          	sd	s0,-776(gp)
   1ce1c:	c68f80ef          	jal	ra,15284 <sigprocmask@plt+0x2224>
   1ce20:	008a3503          	ld	a0,8(s4)
   1ce24:	00100593          	li	a1,1
   1ce28:	b4cf80ef          	jal	ra,15174 <sigprocmask@plt+0x2114>
   1ce2c:	01052703          	lw	a4,16(a0)
   1ce30:	00100793          	li	a5,1
   1ce34:	00050413          	mv	s0,a0
   1ce38:	00f71663          	bne	a4,a5,1ce44 <sigprocmask@plt+0x9de4>
   1ce3c:	00853503          	ld	a0,8(a0)
   1ce40:	a84f80ef          	jal	ra,150c4 <sigprocmask@plt+0x2064>
   1ce44:	00100793          	li	a5,1
   1ce48:	01343423          	sd	s3,8(s0)
   1ce4c:	00f42823          	sw	a5,16(s0)
   1ce50:	00040a23          	sb	zero,20(s0)
   1ce54:	ab5f80ef          	jal	ra,15908 <sigprocmask@plt+0x28a8>
   1ce58:	00000993          	li	s3,0
   1ce5c:	e45ff06f          	j	1cca0 <sigprocmask@plt+0x9c40>
   1ce60:	00000413          	li	s0,0
   1ce64:	eb9ff06f          	j	1cd1c <sigprocmask@plt+0x9cbc>
   1ce68:	00810513          	addi	a0,sp,8
   1ce6c:	8a4f90ef          	jal	ra,15f10 <sigprocmask@plt+0x2eb0>
   1ce70:	d681b783          	ld	a5,-664(gp)
   1ce74:	05813083          	ld	ra,88(sp)
   1ce78:	05013403          	ld	s0,80(sp)
   1ce7c:	0007c503          	lbu	a0,0(a5)
   1ce80:	04813483          	ld	s1,72(sp)
   1ce84:	04013903          	ld	s2,64(sp)
   1ce88:	03813983          	ld	s3,56(sp)
   1ce8c:	03013a03          	ld	s4,48(sp)
   1ce90:	02813a83          	ld	s5,40(sp)
   1ce94:	06010113          	addi	sp,sp,96
   1ce98:	00008067          	ret
   1ce9c:	fc010113          	addi	sp,sp,-64
   1cea0:	02913423          	sd	s1,40(sp)
   1cea4:	da018713          	addi	a4,gp,-608
   1cea8:	00072783          	lw	a5,0(a4)
   1ceac:	02813823          	sd	s0,48(sp)
   1ceb0:	03213023          	sd	s2,32(sp)
   1ceb4:	01313c23          	sd	s3,24(sp)
   1ceb8:	01413823          	sd	s4,16(sp)
   1cebc:	01513423          	sd	s5,8(sp)
   1cec0:	02113c23          	sd	ra,56(sp)
   1cec4:	01613023          	sd	s6,0(sp)
   1cec8:	0017879b          	addiw	a5,a5,1
   1cecc:	00050913          	mv	s2,a0
   1ced0:	00f72023          	sw	a5,0(a4)
   1ced4:	0025f993          	andi	s3,a1,2
   1ced8:	00000413          	li	s0,0
   1cedc:	da018493          	addi	s1,gp,-608
   1cee0:	00400a13          	li	s4,4
   1cee4:	00900a93          	li	s5,9
   1cee8:	00893503          	ld	a0,8(s2)
   1ceec:	00200593          	li	a1,2
   1cef0:	cf1ff0ef          	jal	ra,1cbe0 <sigprocmask@plt+0x9b80>
   1cef4:	00050b13          	mv	s6,a0
   1cef8:	834f80ef          	jal	ra,14f2c <sigprocmask@plt+0x1ecc>
   1cefc:	07450a63          	beq	a0,s4,1cf70 <sigprocmask@plt+0x9f10>
   1cf00:	02051263          	bnez	a0,1cf24 <sigprocmask@plt+0x9ec4>
   1cf04:	00092783          	lw	a5,0(s2)
   1cf08:	03578663          	beq	a5,s5,1cf34 <sigprocmask@plt+0x9ed4>
   1cf0c:	020b0663          	beqz	s6,1cf38 <sigprocmask@plt+0x9ed8>
   1cf10:	01093503          	ld	a0,16(s2)
   1cf14:	00098593          	mv	a1,s3
   1cf18:	cc9ff0ef          	jal	ra,1cbe0 <sigprocmask@plt+0x9b80>
   1cf1c:	00050413          	mv	s0,a0
   1cf20:	80cf80ef          	jal	ra,14f2c <sigprocmask@plt+0x1ecc>
   1cf24:	ffd57793          	andi	a5,a0,-3
   1cf28:	0007879b          	sext.w	a5,a5
   1cf2c:	fa078ee3          	beqz	a5,1cee8 <sigprocmask@plt+0x9e88>
   1cf30:	0080006f          	j	1cf38 <sigprocmask@plt+0x9ed8>
   1cf34:	fc0b0ee3          	beqz	s6,1cf10 <sigprocmask@plt+0x9eb0>
   1cf38:	0004a783          	lw	a5,0(s1)
   1cf3c:	03813083          	ld	ra,56(sp)
   1cf40:	00040513          	mv	a0,s0
   1cf44:	03013403          	ld	s0,48(sp)
   1cf48:	fff7879b          	addiw	a5,a5,-1
   1cf4c:	00f4a023          	sw	a5,0(s1)
   1cf50:	02013903          	ld	s2,32(sp)
   1cf54:	02813483          	ld	s1,40(sp)
   1cf58:	01813983          	ld	s3,24(sp)
   1cf5c:	01013a03          	ld	s4,16(sp)
   1cf60:	00813a83          	ld	s5,8(sp)
   1cf64:	00013b03          	ld	s6,0(sp)
   1cf68:	04010113          	addi	sp,sp,64
   1cf6c:	00008067          	ret
   1cf70:	000b0413          	mv	s0,s6
   1cf74:	fb1ff06f          	j	1cf24 <sigprocmask@plt+0x9ec4>
   1cf78:	d701b783          	ld	a5,-656(gp)
   1cf7c:	e4010113          	addi	sp,sp,-448
   1cf80:	00a13423          	sd	a0,8(sp)
   1cf84:	0007b703          	ld	a4,0(a5)
   1cf88:	0087b783          	ld	a5,8(a5)
   1cf8c:	04810513          	addi	a0,sp,72
   1cf90:	02e13c23          	sd	a4,56(sp)
   1cf94:	04f13023          	sd	a5,64(sp)
   1cf98:	d941a783          	lw	a5,-620(gp)
   1cf9c:	1a113c23          	sd	ra,440(sp)
   1cfa0:	1a813823          	sd	s0,432(sp)
   1cfa4:	00f13823          	sd	a5,16(sp)
   1cfa8:	d681b783          	ld	a5,-664(gp)
   1cfac:	1a913423          	sd	s1,424(sp)
   1cfb0:	1b213023          	sd	s2,416(sp)
   1cfb4:	0387b783          	ld	a5,56(a5)
   1cfb8:	00b13c23          	sd	a1,24(sp)
   1cfbc:	02c13023          	sd	a2,32(sp)
   1cfc0:	02d13423          	sd	a3,40(sp)
   1cfc4:	02f13823          	sd	a5,48(sp)
   1cfc8:	8e9f50ef          	jal	ra,128b0 <setjmp@plt>
   1cfcc:	d681b783          	ld	a5,-664(gp)
   1cfd0:	00050413          	mv	s0,a0
   1cfd4:	06051663          	bnez	a0,1d040 <sigprocmask@plt+0x9fe0>
   1cfd8:	0407a703          	lw	a4,64(a5)
   1cfdc:	0017071b          	addiw	a4,a4,1
   1cfe0:	04e7a023          	sw	a4,64(a5)
   1cfe4:	04810713          	addi	a4,sp,72
   1cfe8:	02e7bc23          	sd	a4,56(a5)
   1cfec:	d701b483          	ld	s1,-656(gp)
   1cff0:	00813783          	ld	a5,8(sp)
   1cff4:	00813703          	ld	a4,8(sp)
   1cff8:	00048223          	sb	zero,4(s1)
   1cffc:	0007a783          	lw	a5,0(a5)
   1d000:	0017879b          	addiw	a5,a5,1
   1d004:	00f72023          	sw	a5,0(a4)
   1d008:	00c72703          	lw	a4,12(a4)
   1d00c:	d8e1aa23          	sw	a4,-620(gp)
   1d010:	8f9f80ef          	jal	ra,15908 <sigprocmask@plt+0x28a8>
   1d014:	01813783          	ld	a5,24(sp)
   1d018:	fff7879b          	addiw	a5,a5,-1
   1d01c:	00f4a023          	sw	a5,0(s1)
   1d020:	02013783          	ld	a5,32(sp)
   1d024:	00878793          	addi	a5,a5,8
   1d028:	00f4b423          	sd	a5,8(s1)
   1d02c:	02813783          	ld	a5,40(sp)
   1d030:	0027f593          	andi	a1,a5,2
   1d034:	00813783          	ld	a5,8(sp)
   1d038:	0187b503          	ld	a0,24(a5)
   1d03c:	ba5ff0ef          	jal	ra,1cbe0 <sigprocmask@plt+0x9b80>
   1d040:	d681b483          	ld	s1,-664(gp)
   1d044:	0404a783          	lw	a5,64(s1)
   1d048:	0017879b          	addiw	a5,a5,1
   1d04c:	04f4a023          	sw	a5,64(s1)
   1d050:	01013703          	ld	a4,16(sp)
   1d054:	00813503          	ld	a0,8(sp)
   1d058:	d8e1aa23          	sw	a4,-620(gp)
   1d05c:	868f80ef          	jal	ra,150c4 <sigprocmask@plt+0x2064>
   1d060:	d701b903          	ld	s2,-656(gp)
   1d064:	00090513          	mv	a0,s2
   1d068:	87cf80ef          	jal	ra,150e4 <sigprocmask@plt+0x2084>
   1d06c:	03813783          	ld	a5,56(sp)
   1d070:	00f93023          	sd	a5,0(s2)
   1d074:	04013783          	ld	a5,64(sp)
   1d078:	00f93423          	sd	a5,8(s2)
   1d07c:	03013783          	ld	a5,48(sp)
   1d080:	02f4bc23          	sd	a5,56(s1)
   1d084:	885f80ef          	jal	ra,15908 <sigprocmask@plt+0x28a8>
   1d088:	d9018793          	addi	a5,gp,-624
   1d08c:	0007a703          	lw	a4,0(a5)
   1d090:	1b813083          	ld	ra,440(sp)
   1d094:	00040513          	mv	a0,s0
   1d098:	1b013403          	ld	s0,432(sp)
   1d09c:	ff377713          	andi	a4,a4,-13
   1d0a0:	00e7a023          	sw	a4,0(a5)
   1d0a4:	1a813483          	ld	s1,424(sp)
   1d0a8:	1a013903          	ld	s2,416(sp)
   1d0ac:	1c010113          	addi	sp,sp,448
   1d0b0:	00008067          	ret
   1d0b4:	e2010113          	addi	sp,sp,-480
   1d0b8:	1c113c23          	sd	ra,472(sp)
   1d0bc:	00b13c23          	sd	a1,24(sp)
   1d0c0:	1c813823          	sd	s0,464(sp)
   1d0c4:	1c913423          	sd	s1,456(sp)
   1d0c8:	1d213023          	sd	s2,448(sp)
   1d0cc:	1b313c23          	sd	s3,440(sp)
   1d0d0:	1b413823          	sd	s4,432(sp)
   1d0d4:	1b513423          	sd	s5,424(sp)
   1d0d8:	f2cf90ef          	jal	ra,16804 <sigprocmask@plt+0x37a4>
   1d0dc:	00a13823          	sd	a0,16(sp)
   1d0e0:	d41f80ef          	jal	ra,15e20 <sigprocmask@plt+0x2dc0>
   1d0e4:	03010513          	addi	a0,sp,48
   1d0e8:	ee0f90ef          	jal	ra,167c8 <sigprocmask@plt+0x3768>
   1d0ec:	d681b783          	ld	a5,-664(gp)
   1d0f0:	04810513          	addi	a0,sp,72
   1d0f4:	00013423          	sd	zero,8(sp)
   1d0f8:	0387b783          	ld	a5,56(a5)
   1d0fc:	02f13423          	sd	a5,40(sp)
   1d100:	fb0f50ef          	jal	ra,128b0 <setjmp@plt>
   1d104:	00050413          	mv	s0,a0
   1d108:	06051063          	bnez	a0,1d168 <sigprocmask@plt+0xa108>
   1d10c:	d681b783          	ld	a5,-664(gp)
   1d110:	04810713          	addi	a4,sp,72
   1d114:	fff00913          	li	s2,-1
   1d118:	02e7bc23          	sd	a4,56(a5)
   1d11c:	00000513          	li	a0,0
   1d120:	81cfd0ef          	jal	ra,1a13c <sigprocmask@plt+0x70dc>
   1d124:	00050493          	mv	s1,a0
   1d128:	05250063          	beq	a0,s2,1d168 <sigprocmask@plt+0xa108>
   1d12c:	db41a583          	lw	a1,-588(gp)
   1d130:	00058663          	beqz	a1,1d13c <sigprocmask@plt+0xa0dc>
   1d134:	d9c1a583          	lw	a1,-612(gp)
   1d138:	0015b593          	seqz	a1,a1
   1d13c:	01813783          	ld	a5,24(sp)
   1d140:	ffe5c593          	xori	a1,a1,-2
   1d144:	00048513          	mv	a0,s1
   1d148:	00b7f5b3          	and	a1,a5,a1
   1d14c:	a95ff0ef          	jal	ra,1cbe0 <sigprocmask@plt+0x9b80>
   1d150:	00048463          	beqz	s1,1d158 <sigprocmask@plt+0xa0f8>
   1d154:	00a13423          	sd	a0,8(sp)
   1d158:	03010513          	addi	a0,sp,48
   1d15c:	db5f80ef          	jal	ra,15f10 <sigprocmask@plt+0x2eb0>
   1d160:	d901a783          	lw	a5,-624(gp)
   1d164:	fa078ce3          	beqz	a5,1d11c <sigprocmask@plt+0xa0bc>
   1d168:	03010513          	addi	a0,sp,48
   1d16c:	da5f80ef          	jal	ra,15f10 <sigprocmask@plt+0x2eb0>
   1d170:	a01f80ef          	jal	ra,15b70 <sigprocmask@plt+0x2b10>
   1d174:	d601b783          	ld	a5,-672(gp)
   1d178:	01013683          	ld	a3,16(sp)
   1d17c:	02813503          	ld	a0,40(sp)
   1d180:	0087b703          	ld	a4,8(a5)
   1d184:	40d706b3          	sub	a3,a4,a3
   1d188:	0187b703          	ld	a4,24(a5)
   1d18c:	00d70733          	add	a4,a4,a3
   1d190:	00e7bc23          	sd	a4,24(a5)
   1d194:	01013703          	ld	a4,16(sp)
   1d198:	00e7b423          	sd	a4,8(a5)
   1d19c:	d681b783          	ld	a5,-664(gp)
   1d1a0:	02a7bc23          	sd	a0,56(a5)
   1d1a4:	00040663          	beqz	s0,1d1b0 <sigprocmask@plt+0xa150>
   1d1a8:	00040593          	mv	a1,s0
   1d1ac:	ed4f50ef          	jal	ra,12880 <longjmp@plt>
   1d1b0:	1d813083          	ld	ra,472(sp)
   1d1b4:	1d013403          	ld	s0,464(sp)
   1d1b8:	00813503          	ld	a0,8(sp)
   1d1bc:	1c813483          	ld	s1,456(sp)
   1d1c0:	1c013903          	ld	s2,448(sp)
   1d1c4:	1b813983          	ld	s3,440(sp)
   1d1c8:	1b013a03          	ld	s4,432(sp)
   1d1cc:	1a813a83          	ld	s5,424(sp)
   1d1d0:	1e010113          	addi	sp,sp,480
   1d1d4:	00008067          	ret
   1d1d8:	d681b783          	ld	a5,-664(gp)
   1d1dc:	04c7a683          	lw	a3,76(a5)
   1d1e0:	0006869b          	sext.w	a3,a3
   1d1e4:	0e068e63          	beqz	a3,1d2e0 <sigprocmask@plt+0xa280>
   1d1e8:	fa010113          	addi	sp,sp,-96
   1d1ec:	03313c23          	sd	s3,56(sp)
   1d1f0:	0087a983          	lw	s3,8(a5)
   1d1f4:	03513423          	sd	s5,40(sp)
   1d1f8:	04113c23          	sd	ra,88(sp)
   1d1fc:	04813823          	sd	s0,80(sp)
   1d200:	04913423          	sd	s1,72(sp)
   1d204:	05213023          	sd	s2,64(sp)
   1d208:	03413823          	sd	s4,48(sp)
   1d20c:	03613023          	sd	s6,32(sp)
   1d210:	01713c23          	sd	s7,24(sp)
   1d214:	01813823          	sd	s8,16(sp)
   1d218:	01913423          	sd	s9,8(sp)
   1d21c:	01a13023          	sd	s10,0(sp)
   1d220:	00098a93          	mv	s5,s3
   1d224:	0009d663          	bgez	s3,1d230 <sigprocmask@plt+0xa1d0>
   1d228:	0007ca83          	lbu	s5,0(a5)
   1d22c:	0157a423          	sw	s5,8(a5)
   1d230:	0407a623          	sw	zero,76(a5)
   1d234:	d681b403          	ld	s0,-664(gp)
   1d238:	00100493          	li	s1,1
   1d23c:	0a440913          	addi	s2,s0,164
   1d240:	0f040a13          	addi	s4,s0,240
   1d244:	00200c13          	li	s8,2
   1d248:	00400c93          	li	s9,4
   1d24c:	04100b93          	li	s7,65
   1d250:	00094783          	lbu	a5,0(s2)
   1d254:	06078c63          	beqz	a5,1d2cc <sigprocmask@plt+0xa26c>
   1d258:	d901a783          	lw	a5,-624(gp)
   1d25c:	d9018d13          	addi	s10,gp,-624
   1d260:	04078263          	beqz	a5,1d2a4 <sigprocmask@plt+0xa244>
   1d264:	04942623          	sw	s1,76(s0)
   1d268:	01342423          	sw	s3,8(s0)
   1d26c:	05813083          	ld	ra,88(sp)
   1d270:	05013403          	ld	s0,80(sp)
   1d274:	04813483          	ld	s1,72(sp)
   1d278:	04013903          	ld	s2,64(sp)
   1d27c:	03813983          	ld	s3,56(sp)
   1d280:	03013a03          	ld	s4,48(sp)
   1d284:	02813a83          	ld	s5,40(sp)
   1d288:	02013b03          	ld	s6,32(sp)
   1d28c:	01813b83          	ld	s7,24(sp)
   1d290:	01013c03          	ld	s8,16(sp)
   1d294:	00813c83          	ld	s9,8(sp)
   1d298:	00013d03          	ld	s10,0(sp)
   1d29c:	06010113          	addi	sp,sp,96
   1d2a0:	00008067          	ret
   1d2a4:	000a3503          	ld	a0,0(s4)
   1d2a8:	01849463          	bne	s1,s8,1d2b0 <sigprocmask@plt+0xa250>
   1d2ac:	02050063          	beqz	a0,1d2cc <sigprocmask@plt+0xa26c>
   1d2b0:	00090023          	sb	zero,0(s2)
   1d2b4:	00050c63          	beqz	a0,1d2cc <sigprocmask@plt+0xa26c>
   1d2b8:	00000593          	li	a1,0
   1d2bc:	df9ff0ef          	jal	ra,1d0b4 <sigprocmask@plt+0xa054>
   1d2c0:	000d2783          	lw	a5,0(s10)
   1d2c4:	01978463          	beq	a5,s9,1d2cc <sigprocmask@plt+0xa26c>
   1d2c8:	01540023          	sb	s5,0(s0)
   1d2cc:	0014849b          	addiw	s1,s1,1
   1d2d0:	00190913          	addi	s2,s2,1
   1d2d4:	008a0a13          	addi	s4,s4,8
   1d2d8:	f7749ce3          	bne	s1,s7,1d250 <sigprocmask@plt+0xa1f0>
   1d2dc:	f8dff06f          	j	1d268 <sigprocmask@plt+0xa208>
   1d2e0:	00008067          	ret
   1d2e4:	d681b783          	ld	a5,-664(gp)
   1d2e8:	e8010113          	addi	sp,sp,-384
   1d2ec:	16113c23          	sd	ra,376(sp)
   1d2f0:	16813823          	sd	s0,368(sp)
   1d2f4:	00f13423          	sd	a5,8(sp)
   1d2f8:	00813703          	ld	a4,8(sp)
   1d2fc:	0007c783          	lbu	a5,0(a5)
   1d300:	01810513          	addi	a0,sp,24
   1d304:	00f72423          	sw	a5,8(a4)
   1d308:	da8f50ef          	jal	ra,128b0 <setjmp@plt>
   1d30c:	02051a63          	bnez	a0,1d340 <sigprocmask@plt+0xa2e0>
   1d310:	00813703          	ld	a4,8(sp)
   1d314:	01810793          	addi	a5,sp,24
   1d318:	0e873503          	ld	a0,232(a4)
   1d31c:	02f73c23          	sd	a5,56(a4)
   1d320:	02050063          	beqz	a0,1d340 <sigprocmask@plt+0xa2e0>
   1d324:	d9018413          	addi	s0,gp,-624
   1d328:	0e073423          	sd	zero,232(a4)
   1d32c:	00000593          	li	a1,0
   1d330:	00042023          	sw	zero,0(s0)
   1d334:	d81ff0ef          	jal	ra,1d0b4 <sigprocmask@plt+0xa054>
   1d338:	00800793          	li	a5,8
   1d33c:	00f42023          	sw	a5,0(s0)
   1d340:	da1fa0ef          	jal	ra,180e0 <sigprocmask@plt+0x5080>
   1d344:	f80f80ef          	jal	ra,15ac4 <sigprocmask@plt+0x2a64>
   1d348:	00813783          	ld	a5,8(sp)
   1d34c:	0007c503          	lbu	a0,0(a5)
   1d350:	bf1f50ef          	jal	ra,12f40 <_exit@plt>
   1d354:	cd81b783          	ld	a5,-808(gp)
   1d358:	e3010113          	addi	sp,sp,-464
   1d35c:	00a13c23          	sd	a0,24(sp)
   1d360:	02f13c23          	sd	a5,56(sp)
   1d364:	d681b783          	ld	a5,-664(gp)
   1d368:	04810513          	addi	a0,sp,72
   1d36c:	1c113423          	sd	ra,456(sp)
   1d370:	00f13823          	sd	a5,16(sp)
   1d374:	0387b783          	ld	a5,56(a5)
   1d378:	1c813023          	sd	s0,448(sp)
   1d37c:	1a913c23          	sd	s1,440(sp)
   1d380:	1b213823          	sd	s2,432(sp)
   1d384:	1b313423          	sd	s3,424(sp)
   1d388:	02b13023          	sd	a1,32(sp)
   1d38c:	00c13423          	sd	a2,8(sp)
   1d390:	02d13423          	sd	a3,40(sp)
   1d394:	04f13023          	sd	a5,64(sp)
   1d398:	d18f50ef          	jal	ra,128b0 <setjmp@plt>
   1d39c:	00050913          	mv	s2,a0
   1d3a0:	0c051a63          	bnez	a0,1d474 <sigprocmask@plt+0xa414>
   1d3a4:	01013703          	ld	a4,16(sp)
   1d3a8:	04810793          	addi	a5,sp,72
   1d3ac:	02f73c23          	sd	a5,56(a4)
   1d3b0:	00813783          	ld	a5,8(sp)
   1d3b4:	0007b703          	ld	a4,0(a5)
   1d3b8:	cce1bc23          	sd	a4,-808(gp)
   1d3bc:	00813783          	ld	a5,8(sp)
   1d3c0:	00878793          	addi	a5,a5,8
   1d3c4:	caf1bc23          	sd	a5,-840(gp)
   1d3c8:	01813703          	ld	a4,24(sp)
   1d3cc:	d401b023          	sd	zero,-704(gp)
   1d3d0:	000247b7          	lui	a5,0x24
   1d3d4:	4f078793          	addi	a5,a5,1264 # 244f0 <sigprocmask@plt+0x11490>
   1d3d8:	0cf71e63          	bne	a4,a5,1d4b4 <sigprocmask@plt+0xa454>
   1d3dc:	00813783          	ld	a5,8(sp)
   1d3e0:	00000413          	li	s0,0
   1d3e4:	0087b483          	ld	s1,8(a5)
   1d3e8:	06048863          	beqz	s1,1d458 <sigprocmask@plt+0xa3f8>
   1d3ec:	0107b783          	ld	a5,16(a5)
   1d3f0:	04078a63          	beqz	a5,1d444 <sigprocmask@plt+0xa3e4>
   1d3f4:	00813783          	ld	a5,8(sp)
   1d3f8:	01078413          	addi	s0,a5,16
   1d3fc:	d601b983          	ld	s3,-672(gp)
   1d400:	0089b583          	ld	a1,8(s3)
   1d404:	00048513          	mv	a0,s1
   1d408:	00840413          	addi	s0,s0,8
   1d40c:	85df90ef          	jal	ra,16c68 <sigprocmask@plt+0x3c08>
   1d410:	ff843483          	ld	s1,-8(s0)
   1d414:	00050593          	mv	a1,a0
   1d418:	00048a63          	beqz	s1,1d42c <sigprocmask@plt+0xa3cc>
   1d41c:	02000513          	li	a0,32
   1d420:	b81f90ef          	jal	ra,16fa0 <sigprocmask@plt+0x3f40>
   1d424:	00050593          	mv	a1,a0
   1d428:	fddff06f          	j	1d404 <sigprocmask@plt+0xa3a4>
   1d42c:	00000513          	li	a0,0
   1d430:	b71f90ef          	jal	ra,16fa0 <sigprocmask@plt+0x3f40>
   1d434:	0089b783          	ld	a5,8(s3)
   1d438:	40f50533          	sub	a0,a0,a5
   1d43c:	accf90ef          	jal	ra,16708 <sigprocmask@plt+0x36a8>
   1d440:	00050493          	mv	s1,a0
   1d444:	02813783          	ld	a5,40(sp)
   1d448:	00048513          	mv	a0,s1
   1d44c:	0027f593          	andi	a1,a5,2
   1d450:	c65ff0ef          	jal	ra,1d0b4 <sigprocmask@plt+0xa054>
   1d454:	00050413          	mv	s0,a0
   1d458:	e6cf80ef          	jal	ra,15ac4 <sigprocmask@plt+0x2a64>
   1d45c:	000277b7          	lui	a5,0x27
   1d460:	e387b503          	ld	a0,-456(a5) # 26e38 <stdout>
   1d464:	abdf50ef          	jal	ra,12f20 <ferror_unlocked@plt>
   1d468:	01013783          	ld	a5,16(sp)
   1d46c:	00a46433          	or	s0,s0,a0
   1d470:	00878023          	sb	s0,0(a5)
   1d474:	000277b7          	lui	a5,0x27
   1d478:	e387b503          	ld	a0,-456(a5) # 26e38 <stdout>
   1d47c:	905f50ef          	jal	ra,12d80 <clearerr@plt>
   1d480:	03813703          	ld	a4,56(sp)
   1d484:	1c813083          	ld	ra,456(sp)
   1d488:	cce1bc23          	sd	a4,-808(gp)
   1d48c:	04013783          	ld	a5,64(sp)
   1d490:	01013703          	ld	a4,16(sp)
   1d494:	1c013403          	ld	s0,448(sp)
   1d498:	1b813483          	ld	s1,440(sp)
   1d49c:	02f73c23          	sd	a5,56(a4)
   1d4a0:	1a813983          	ld	s3,424(sp)
   1d4a4:	00090513          	mv	a0,s2
   1d4a8:	1b013903          	ld	s2,432(sp)
   1d4ac:	1d010113          	addi	sp,sp,464
   1d4b0:	00008067          	ret
   1d4b4:	01813783          	ld	a5,24(sp)
   1d4b8:	00813583          	ld	a1,8(sp)
   1d4bc:	02013503          	ld	a0,32(sp)
   1d4c0:	0087b783          	ld	a5,8(a5)
   1d4c4:	000780e7          	jalr	a5
   1d4c8:	f8dff06f          	j	1d454 <sigprocmask@plt+0xa3f4>
   1d4cc:	f9010113          	addi	sp,sp,-112
   1d4d0:	06813023          	sd	s0,96(sp)
   1d4d4:	d681b403          	ld	s0,-664(gp)
   1d4d8:	04913c23          	sd	s1,88(sp)
   1d4dc:	05213823          	sd	s2,80(sp)
   1d4e0:	05413023          	sd	s4,64(sp)
   1d4e4:	03513c23          	sd	s5,56(sp)
   1d4e8:	03613823          	sd	s6,48(sp)
   1d4ec:	03713423          	sd	s7,40(sp)
   1d4f0:	03813023          	sd	s8,32(sp)
   1d4f4:	06113423          	sd	ra,104(sp)
   1d4f8:	05313423          	sd	s3,72(sp)
   1d4fc:	00050913          	mv	s2,a0
   1d500:	00000493          	li	s1,0
   1d504:	00000a13          	li	s4,0
   1d508:	fff00b13          	li	s6,-1
   1d50c:	03100b93          	li	s7,49
   1d510:	00024c37          	lui	s8,0x24
   1d514:	00810513          	addi	a0,sp,8
   1d518:	ab0f90ef          	jal	ra,167c8 <sigprocmask@plt+0x3768>
   1d51c:	05844783          	lbu	a5,88(s0)
   1d520:	00000513          	li	a0,0
   1d524:	00078463          	beqz	a5,1d52c <sigprocmask@plt+0xa4cc>
   1d528:	00090513          	mv	a0,s2
   1d52c:	c11fc0ef          	jal	ra,1a13c <sigprocmask@plt+0x70dc>
   1d530:	00050993          	mv	s3,a0
   1d534:	09651863          	bne	a0,s6,1d5c4 <sigprocmask@plt+0xa564>
   1d538:	02090663          	beqz	s2,1d564 <sigprocmask@plt+0xa504>
   1d53c:	029bc463          	blt	s7,s1,1d564 <sigprocmask@plt+0xa504>
   1d540:	82df80ef          	jal	ra,15d6c <sigprocmask@plt+0x2d0c>
   1d544:	04051e63          	bnez	a0,1d5a0 <sigprocmask@plt+0xa540>
   1d548:	05744783          	lbu	a5,87(s0)
   1d54c:	04079663          	bnez	a5,1d598 <sigprocmask@plt+0xa538>
   1d550:	05844783          	lbu	a5,88(s0)
   1d554:	00078863          	beqz	a5,1d564 <sigprocmask@plt+0xa504>
   1d558:	000277b7          	lui	a5,0x27
   1d55c:	e487b503          	ld	a0,-440(a5) # 26e48 <stderr>
   1d560:	bf9f80ef          	jal	ra,16158 <sigprocmask@plt+0x30f8>
   1d564:	06813083          	ld	ra,104(sp)
   1d568:	06013403          	ld	s0,96(sp)
   1d56c:	05813483          	ld	s1,88(sp)
   1d570:	05013903          	ld	s2,80(sp)
   1d574:	04813983          	ld	s3,72(sp)
   1d578:	03813a83          	ld	s5,56(sp)
   1d57c:	03013b03          	ld	s6,48(sp)
   1d580:	02813b83          	ld	s7,40(sp)
   1d584:	02013c03          	ld	s8,32(sp)
   1d588:	000a0513          	mv	a0,s4
   1d58c:	04013a03          	ld	s4,64(sp)
   1d590:	07010113          	addi	sp,sp,112
   1d594:	00008067          	ret
   1d598:	070c0513          	addi	a0,s8,112 # 24070 <sigprocmask@plt+0x11010>
   1d59c:	f9cf80ef          	jal	ra,15d38 <sigprocmask@plt+0x2cd8>
   1d5a0:	0014849b          	addiw	s1,s1,1
   1d5a4:	00810513          	addi	a0,sp,8
   1d5a8:	969f80ef          	jal	ra,15f10 <sigprocmask@plt+0x2eb0>
   1d5ac:	d9018713          	addi	a4,gp,-624
   1d5b0:	00072783          	lw	a5,0(a4)
   1d5b4:	f60780e3          	beqz	a5,1d514 <sigprocmask@plt+0xa4b4>
   1d5b8:	ff37f793          	andi	a5,a5,-13
   1d5bc:	00f72023          	sw	a5,0(a4)
   1d5c0:	fa5ff06f          	j	1d564 <sigprocmask@plt+0xa504>
   1d5c4:	05a44783          	lbu	a5,90(s0)
   1d5c8:	fc079ee3          	bnez	a5,1d5a4 <sigprocmask@plt+0xa544>
   1d5cc:	00442783          	lw	a5,4(s0)
   1d5d0:	00000593          	li	a1,0
   1d5d4:	00000493          	li	s1,0
   1d5d8:	4017d79b          	sraiw	a5,a5,0x1
   1d5dc:	00f42223          	sw	a5,4(s0)
   1d5e0:	e00ff0ef          	jal	ra,1cbe0 <sigprocmask@plt+0x9b80>
   1d5e4:	fc0980e3          	beqz	s3,1d5a4 <sigprocmask@plt+0xa544>
   1d5e8:	00050a13          	mv	s4,a0
   1d5ec:	fb9ff06f          	j	1d5a4 <sigprocmask@plt+0xa544>
   1d5f0:	ef010113          	addi	sp,sp,-272
   1d5f4:	0f213823          	sd	s2,240(sp)
   1d5f8:	00058913          	mv	s2,a1
   1d5fc:	02f00593          	li	a1,47
   1d600:	0e913c23          	sd	s1,248(sp)
   1d604:	0f313423          	sd	s3,232(sp)
   1d608:	10113423          	sd	ra,264(sp)
   1d60c:	10813023          	sd	s0,256(sp)
   1d610:	0f413023          	sd	s4,224(sp)
   1d614:	0d513c23          	sd	s5,216(sp)
   1d618:	0d613823          	sd	s6,208(sp)
   1d61c:	0d713423          	sd	s7,200(sp)
   1d620:	0d813023          	sd	s8,192(sp)
   1d624:	0b913c23          	sd	s9,184(sp)
   1d628:	0ba13823          	sd	s10,176(sp)
   1d62c:	0bb13423          	sd	s11,168(sp)
   1d630:	00050993          	mv	s3,a0
   1d634:	00060493          	mv	s1,a2
   1d638:	00d13c23          	sd	a3,24(sp)
   1d63c:	955f50ef          	jal	ra,12f90 <strchr@plt>
   1d640:	06050663          	beqz	a0,1d6ac <sigprocmask@plt+0xa64c>
   1d644:	fff00413          	li	s0,-1
   1d648:	00892423          	sw	s0,8(s2)
   1d64c:	0024f493          	andi	s1,s1,2
   1d650:	04049263          	bnez	s1,1d694 <sigprocmask@plt+0xa634>
   1d654:	00092023          	sw	zero,0(s2)
   1d658:	10813083          	ld	ra,264(sp)
   1d65c:	10013403          	ld	s0,256(sp)
   1d660:	0f813483          	ld	s1,248(sp)
   1d664:	0f013903          	ld	s2,240(sp)
   1d668:	0e813983          	ld	s3,232(sp)
   1d66c:	0e013a03          	ld	s4,224(sp)
   1d670:	0d813a83          	ld	s5,216(sp)
   1d674:	0d013b03          	ld	s6,208(sp)
   1d678:	0c813b83          	ld	s7,200(sp)
   1d67c:	0c013c03          	ld	s8,192(sp)
   1d680:	0b813c83          	ld	s9,184(sp)
   1d684:	0b013d03          	ld	s10,176(sp)
   1d688:	0a813d83          	ld	s11,168(sp)
   1d68c:	11010113          	addi	sp,sp,272
   1d690:	00008067          	ret
   1d694:	02010593          	addi	a1,sp,32
   1d698:	00098513          	mv	a0,s3
   1d69c:	825f50ef          	jal	ra,12ec0 <stat@plt>
   1d6a0:	fa055ae3          	bgez	a0,1d654 <sigprocmask@plt+0xa5f4>
   1d6a4:	00892023          	sw	s0,0(s2)
   1d6a8:	fb1ff06f          	j	1d658 <sigprocmask@plt+0xa5f8>
   1d6ac:	d701b783          	ld	a5,-656(gp)
   1d6b0:	01813703          	ld	a4,24(sp)
   1d6b4:	1887b783          	ld	a5,392(a5)
   1d6b8:	00578793          	addi	a5,a5,5
   1d6bc:	40e78ab3          	sub	s5,a5,a4
   1d6c0:	001aba93          	seqz	s5,s5
   1d6c4:	00e78463          	beq	a5,a4,1d6cc <sigprocmask@plt+0xa66c>
   1d6c8:	0084e493          	ori	s1,s1,8
   1d6cc:	00000593          	li	a1,0
   1d6d0:	00098513          	mv	a0,s3
   1d6d4:	aa1f70ef          	jal	ra,15174 <sigprocmask@plt+0x2114>
   1d6d8:	00050413          	mv	s0,a0
   1d6dc:	04050e63          	beqz	a0,1d738 <sigprocmask@plt+0xa6d8>
   1d6e0:	01052703          	lw	a4,16(a0)
   1d6e4:	00100693          	li	a3,1
   1d6e8:	00400793          	li	a5,4
   1d6ec:	02d70463          	beq	a4,a3,1d714 <sigprocmask@plt+0xa6b4>
   1d6f0:	00200693          	li	a3,2
   1d6f4:	01800793          	li	a5,24
   1d6f8:	00d71e63          	bne	a4,a3,1d714 <sigprocmask@plt+0xa6b4>
   1d6fc:	00853783          	ld	a5,8(a0)
   1d700:	0007b783          	ld	a5,0(a5)
   1d704:	0007c783          	lbu	a5,0(a5)
   1d708:	0027f793          	andi	a5,a5,2
   1d70c:	0017b793          	seqz	a5,a5
   1d710:	00479793          	slli	a5,a5,0x4
   1d714:	00f4f7b3          	and	a5,s1,a5
   1d718:	00078c63          	beqz	a5,1d730 <sigprocmask@plt+0xa6d0>
   1d71c:	0107fa93          	andi	s5,a5,16
   1d720:	0e0a8863          	beqz	s5,1d810 <sigprocmask@plt+0xa7b0>
   1d724:	fff00793          	li	a5,-1
   1d728:	00f92023          	sw	a5,0(s2)
   1d72c:	f2dff06f          	j	1d658 <sigprocmask@plt+0xa5f8>
   1d730:	01444783          	lbu	a5,20(s0)
   1d734:	12078863          	beqz	a5,1d864 <sigprocmask@plt+0xa804>
   1d738:	00015737          	lui	a4,0x15
   1d73c:	000245b7          	lui	a1,0x24
   1d740:	14070713          	addi	a4,a4,320 # 15140 <sigprocmask@plt+0x20e0>
   1d744:	01000693          	li	a3,16
   1d748:	01c00613          	li	a2,28
   1d74c:	49058593          	addi	a1,a1,1168 # 24490 <sigprocmask@plt+0x11430>
   1d750:	00098513          	mv	a0,s3
   1d754:	a6cf50ef          	jal	ra,129c0 <bsearch@plt>
   1d758:	00050a13          	mv	s4,a0
   1d75c:	02050263          	beqz	a0,1d780 <sigprocmask@plt+0xa720>
   1d760:	00053783          	ld	a5,0(a0)
   1d764:	0007c783          	lbu	a5,0(a5)
   1d768:	0027f793          	andi	a5,a5,2
   1d76c:	0c079863          	bnez	a5,1d83c <sigprocmask@plt+0xa7dc>
   1d770:	0084f793          	andi	a5,s1,8
   1d774:	0c079463          	bnez	a5,1d83c <sigprocmask@plt+0xa7dc>
   1d778:	c841a783          	lw	a5,-892(gp)
   1d77c:	0cf05063          	blez	a5,1d83c <sigprocmask@plt+0xa7dc>
   1d780:	0104f793          	andi	a5,s1,16
   1d784:	fa0790e3          	bnez	a5,1d724 <sigprocmask@plt+0xa6c4>
   1d788:	fff00c93          	li	s9,-1
   1d78c:	00040e63          	beqz	s0,1d7a8 <sigprocmask@plt+0xa748>
   1d790:	01444783          	lbu	a5,20(s0)
   1d794:	00078a63          	beqz	a5,1d7a8 <sigprocmask@plt+0xa748>
   1d798:	01042703          	lw	a4,16(s0)
   1d79c:	00200793          	li	a5,2
   1d7a0:	06f71c63          	bne	a4,a5,1d818 <sigprocmask@plt+0xa7b8>
   1d7a4:	c841ac83          	lw	s9,-892(gp)
   1d7a8:	d601bd83          	ld	s11,-672(gp)
   1d7ac:	ca01b783          	ld	a5,-864(gp)
   1d7b0:	00200c13          	li	s8,2
   1d7b4:	fff00b13          	li	s6,-1
   1d7b8:	02f00d13          	li	s10,47
   1d7bc:	00f13023          	sd	a5,0(sp)
   1d7c0:	00098593          	mv	a1,s3
   1d7c4:	01810513          	addi	a0,sp,24
   1d7c8:	e68fa0ef          	jal	ra,17e30 <sigprocmask@plt+0x4dd0>
   1d7cc:	00050793          	mv	a5,a0
   1d7d0:	04055863          	bgez	a0,1d820 <sigprocmask@plt+0xa7c0>
   1d7d4:	00040663          	beqz	s0,1d7e0 <sigprocmask@plt+0xa780>
   1d7d8:	000a8463          	beqz	s5,1d7e0 <sigprocmask@plt+0xa780>
   1d7dc:	decf80ef          	jal	ra,15dc8 <sigprocmask@plt+0x2d68>
   1d7e0:	0014f493          	andi	s1,s1,1
   1d7e4:	f40480e3          	beqz	s1,1d724 <sigprocmask@plt+0xa6c4>
   1d7e8:	000245b7          	lui	a1,0x24
   1d7ec:	f1058593          	addi	a1,a1,-240 # 23f10 <sigprocmask@plt+0x10eb0>
   1d7f0:	000c0513          	mv	a0,s8
   1d7f4:	d89f70ef          	jal	ra,1557c <sigprocmask@plt+0x251c>
   1d7f8:	00050613          	mv	a2,a0
   1d7fc:	00024537          	lui	a0,0x24
   1d800:	00098593          	mv	a1,s3
   1d804:	f0850513          	addi	a0,a0,-248 # 23f08 <sigprocmask@plt+0x10ea8>
   1d808:	9c9f90ef          	jal	ra,171d0 <sigprocmask@plt+0x4170>
   1d80c:	f19ff06f          	j	1d724 <sigprocmask@plt+0xa6c4>
   1d810:	00000413          	li	s0,0
   1d814:	f25ff06f          	j	1d738 <sigprocmask@plt+0xa6d8>
   1d818:	00842c83          	lw	s9,8(s0)
   1d81c:	f8dff06f          	j	1d7a8 <sigprocmask@plt+0xa748>
   1d820:	d481b683          	ld	a3,-696(gp)
   1d824:	001b0b1b          	addiw	s6,s6,1
   1d828:	02068463          	beqz	a3,1d850 <sigprocmask@plt+0xa7f0>
   1d82c:	0006c583          	lbu	a1,0(a3)
   1d830:	06200613          	li	a2,98
   1d834:	00c59e63          	bne	a1,a2,1d850 <sigprocmask@plt+0xa7f0>
   1d838:	f80a04e3          	beqz	s4,1d7c0 <sigprocmask@plt+0xa760>
   1d83c:	140a9863          	bnez	s5,1d98c <sigprocmask@plt+0xa92c>
   1d840:	00200793          	li	a5,2
   1d844:	00f92023          	sw	a5,0(s2)
   1d848:	01493423          	sd	s4,8(s2)
   1d84c:	e0dff06f          	j	1d658 <sigprocmask@plt+0xa5f8>
   1d850:	008dbb83          	ld	s7,8(s11)
   1d854:	000bc603          	lbu	a2,0(s7)
   1d858:	05a61263          	bne	a2,s10,1d89c <sigprocmask@plt+0xa83c>
   1d85c:	056cc063          	blt	s9,s6,1d89c <sigprocmask@plt+0xa83c>
   1d860:	f79b40e3          	blt	s6,s9,1d7c0 <sigprocmask@plt+0xa760>
   1d864:	01042783          	lw	a5,16(s0)
   1d868:	00040a23          	sb	zero,20(s0)
   1d86c:	00f92023          	sw	a5,0(s2)
   1d870:	00843783          	ld	a5,8(s0)
   1d874:	00f93423          	sd	a5,8(s2)
   1d878:	de1ff06f          	j	1d658 <sigprocmask@plt+0xa5f8>
   1d87c:	00013783          	ld	a5,0(sp)
   1d880:	00200693          	li	a3,2
   1d884:	0007a783          	lw	a5,0(a5)
   1d888:	f2d78ce3          	beq	a5,a3,1d7c0 <sigprocmask@plt+0xa760>
   1d88c:	01400693          	li	a3,20
   1d890:	f2d788e3          	beq	a5,a3,1d7c0 <sigprocmask@plt+0xa760>
   1d894:	00078c13          	mv	s8,a5
   1d898:	f29ff06f          	j	1d7c0 <sigprocmask@plt+0xa760>
   1d89c:	02010593          	addi	a1,sp,32
   1d8a0:	000b8513          	mv	a0,s7
   1d8a4:	00f13823          	sd	a5,16(sp)
   1d8a8:	00d13423          	sd	a3,8(sp)
   1d8ac:	e14f50ef          	jal	ra,12ec0 <stat@plt>
   1d8b0:	fc0546e3          	bltz	a0,1d87c <sigprocmask@plt+0xa81c>
   1d8b4:	03012603          	lw	a2,48(sp)
   1d8b8:	0000f5b7          	lui	a1,0xf
   1d8bc:	00b67633          	and	a2,a2,a1
   1d8c0:	000085b7          	lui	a1,0x8
   1d8c4:	0cb61063          	bne	a2,a1,1d984 <sigprocmask@plt+0xa924>
   1d8c8:	00813683          	ld	a3,8(sp)
   1d8cc:	06068c63          	beqz	a3,1d944 <sigprocmask@plt+0xa8e4>
   1d8d0:	01013783          	ld	a5,16(sp)
   1d8d4:	00078513          	mv	a0,a5
   1d8d8:	e31f80ef          	jal	ra,16708 <sigprocmask@plt+0x36a8>
   1d8dc:	00100593          	li	a1,1
   1d8e0:	000b8513          	mv	a0,s7
   1d8e4:	fadf80ef          	jal	ra,16890 <sigprocmask@plt+0x3830>
   1d8e8:	00000513          	li	a0,0
   1d8ec:	be1ff0ef          	jal	ra,1d4cc <sigprocmask@plt+0xa46c>
   1d8f0:	a80f80ef          	jal	ra,15b70 <sigprocmask@plt+0x2b10>
   1d8f4:	00000593          	li	a1,0
   1d8f8:	00098513          	mv	a0,s3
   1d8fc:	879f70ef          	jal	ra,15174 <sigprocmask@plt+0x2114>
   1d900:	00050413          	mv	s0,a0
   1d904:	00050863          	beqz	a0,1d914 <sigprocmask@plt+0xa8b4>
   1d908:	01052703          	lw	a4,16(a0)
   1d90c:	00100793          	li	a5,1
   1d910:	00f70c63          	beq	a4,a5,1d928 <sigprocmask@plt+0xa8c8>
   1d914:	00024537          	lui	a0,0x24
   1d918:	000b8613          	mv	a2,s7
   1d91c:	00098593          	mv	a1,s3
   1d920:	09050513          	addi	a0,a0,144 # 24090 <sigprocmask@plt+0x11030>
   1d924:	941f80ef          	jal	ra,16264 <sigprocmask@plt+0x3204>
   1d928:	008db783          	ld	a5,8(s11)
   1d92c:	017db423          	sd	s7,8(s11)
   1d930:	41778733          	sub	a4,a5,s7
   1d934:	018db783          	ld	a5,24(s11)
   1d938:	00e787b3          	add	a5,a5,a4
   1d93c:	00fdbc23          	sd	a5,24(s11)
   1d940:	f25ff06f          	j	1d864 <sigprocmask@plt+0xa804>
   1d944:	000a9863          	bnez	s5,1d954 <sigprocmask@plt+0xa8f4>
   1d948:	00092023          	sw	zero,0(s2)
   1d94c:	01692423          	sw	s6,8(s2)
   1d950:	d09ff06f          	j	1d658 <sigprocmask@plt+0xa5f8>
   1d954:	d681b703          	ld	a4,-664(gp)
   1d958:	04072783          	lw	a5,64(a4)
   1d95c:	0017879b          	addiw	a5,a5,1
   1d960:	04f72023          	sw	a5,64(a4)
   1d964:	00100593          	li	a1,1
   1d968:	00098513          	mv	a0,s3
   1d96c:	809f70ef          	jal	ra,15174 <sigprocmask@plt+0x2114>
   1d970:	00050413          	mv	s0,a0
   1d974:	00052823          	sw	zero,16(a0)
   1d978:	01652423          	sw	s6,8(a0)
   1d97c:	f8df70ef          	jal	ra,15908 <sigprocmask@plt+0x28a8>
   1d980:	ee5ff06f          	j	1d864 <sigprocmask@plt+0xa804>
   1d984:	00d00c13          	li	s8,13
   1d988:	e39ff06f          	j	1d7c0 <sigprocmask@plt+0xa760>
   1d98c:	d681b703          	ld	a4,-664(gp)
   1d990:	04072783          	lw	a5,64(a4)
   1d994:	0017879b          	addiw	a5,a5,1
   1d998:	04f72023          	sw	a5,64(a4)
   1d99c:	00100593          	li	a1,1
   1d9a0:	00098513          	mv	a0,s3
   1d9a4:	fd0f70ef          	jal	ra,15174 <sigprocmask@plt+0x2114>
   1d9a8:	00200793          	li	a5,2
   1d9ac:	00050413          	mv	s0,a0
   1d9b0:	00f52823          	sw	a5,16(a0)
   1d9b4:	01453423          	sd	s4,8(a0)
   1d9b8:	fc5ff06f          	j	1d97c <sigprocmask@plt+0xa91c>
   1d9bc:	00024537          	lui	a0,0x24
   1d9c0:	f9010113          	addi	sp,sp,-112
   1d9c4:	af850513          	addi	a0,a0,-1288 # 23af8 <sigprocmask@plt+0x10a98>
   1d9c8:	06113423          	sd	ra,104(sp)
   1d9cc:	06813023          	sd	s0,96(sp)
   1d9d0:	04913c23          	sd	s1,88(sp)
   1d9d4:	05213823          	sd	s2,80(sp)
   1d9d8:	05313423          	sd	s3,72(sp)
   1d9dc:	05413023          	sd	s4,64(sp)
   1d9e0:	03513c23          	sd	s5,56(sp)
   1d9e4:	03613823          	sd	s6,48(sp)
   1d9e8:	03713423          	sd	s7,40(sp)
   1d9ec:	03813023          	sd	s8,32(sp)
   1d9f0:	01913c23          	sd	s9,24(sp)
   1d9f4:	01a13823          	sd	s10,16(sp)
   1d9f8:	8b5f80ef          	jal	ra,162ac <sigprocmask@plt+0x324c>
   1d9fc:	04050463          	beqz	a0,1da44 <sigprocmask@plt+0xa9e4>
   1da00:	f39f70ef          	jal	ra,15938 <sigprocmask@plt+0x28d8>
   1da04:	00000493          	li	s1,0
   1da08:	06813083          	ld	ra,104(sp)
   1da0c:	06013403          	ld	s0,96(sp)
   1da10:	05013903          	ld	s2,80(sp)
   1da14:	04813983          	ld	s3,72(sp)
   1da18:	04013a03          	ld	s4,64(sp)
   1da1c:	03813a83          	ld	s5,56(sp)
   1da20:	03013b03          	ld	s6,48(sp)
   1da24:	02813b83          	ld	s7,40(sp)
   1da28:	02013c03          	ld	s8,32(sp)
   1da2c:	01813c83          	ld	s9,24(sp)
   1da30:	01013d03          	ld	s10,16(sp)
   1da34:	00048513          	mv	a0,s1
   1da38:	05813483          	ld	s1,88(sp)
   1da3c:	07010113          	addi	sp,sp,112
   1da40:	00008067          	ret
   1da44:	cb81b783          	ld	a5,-840(gp)
   1da48:	00050493          	mv	s1,a0
   1da4c:	cb818413          	addi	s0,gp,-840
   1da50:	0007b783          	ld	a5,0(a5)
   1da54:	08078663          	beqz	a5,1dae0 <sigprocmask@plt+0xaa80>
   1da58:	d701ba83          	ld	s5,-656(gp)
   1da5c:	00200993          	li	s3,2
   1da60:	fff00b13          	li	s6,-1
   1da64:	00043783          	ld	a5,0(s0)
   1da68:	0007b903          	ld	s2,0(a5)
   1da6c:	f8090ee3          	beqz	s2,1da08 <sigprocmask@plt+0xa9a8>
   1da70:	00000593          	li	a1,0
   1da74:	00090513          	mv	a0,s2
   1da78:	efcf70ef          	jal	ra,15174 <sigprocmask@plt+0x2114>
   1da7c:	02050863          	beqz	a0,1daac <sigprocmask@plt+0xaa4c>
   1da80:	01052783          	lw	a5,16(a0)
   1da84:	02078263          	beqz	a5,1daa8 <sigprocmask@plt+0xaa48>
   1da88:	03379263          	bne	a5,s3,1daac <sigprocmask@plt+0xaa4c>
   1da8c:	00853783          	ld	a5,8(a0)
   1da90:	0007b783          	ld	a5,0(a5)
   1da94:	0007c783          	lbu	a5,0(a5)
   1da98:	0027f793          	andi	a5,a5,2
   1da9c:	00079863          	bnez	a5,1daac <sigprocmask@plt+0xaa4c>
   1daa0:	c841a783          	lw	a5,-892(gp)
   1daa4:	00f05463          	blez	a5,1daac <sigprocmask@plt+0xaa4c>
   1daa8:	b20f80ef          	jal	ra,15dc8 <sigprocmask@plt+0x2d68>
   1daac:	188ab683          	ld	a3,392(s5)
   1dab0:	00100613          	li	a2,1
   1dab4:	00010593          	mv	a1,sp
   1dab8:	00568693          	addi	a3,a3,5
   1dabc:	00090513          	mv	a0,s2
   1dac0:	b31ff0ef          	jal	ra,1d5f0 <sigprocmask@plt+0xa590>
   1dac4:	00012783          	lw	a5,0(sp)
   1dac8:	01679463          	bne	a5,s6,1dad0 <sigprocmask@plt+0xaa70>
   1dacc:	00100493          	li	s1,1
   1dad0:	00043783          	ld	a5,0(s0)
   1dad4:	00878793          	addi	a5,a5,8
   1dad8:	00f43023          	sd	a5,0(s0)
   1dadc:	f89ff06f          	j	1da64 <sigprocmask@plt+0xaa04>
   1dae0:	d701bb03          	ld	s6,-656(gp)
   1dae4:	d681ba03          	ld	s4,-664(gp)
   1dae8:	cd01b903          	ld	s2,-816(gp)
   1daec:	cd018993          	addi	s3,gp,-816
   1daf0:	054a0a13          	addi	s4,s4,84
   1daf4:	0009b783          	ld	a5,0(s3)
   1daf8:	0f878793          	addi	a5,a5,248
   1dafc:	f0f976e3          	bgeu	s2,a5,1da08 <sigprocmask@plt+0xa9a8>
   1db00:	d601b783          	ld	a5,-672(gp)
   1db04:	00093403          	ld	s0,0(s2)
   1db08:	00024c37          	lui	s8,0x24
   1db0c:	00078d13          	mv	s10,a5
   1db10:	00041663          	bnez	s0,1db1c <sigprocmask@plt+0xaabc>
   1db14:	00890913          	addi	s2,s2,8
   1db18:	fddff06f          	j	1daf4 <sigprocmask@plt+0xaa94>
   1db1c:	01042783          	lw	a5,16(s0)
   1db20:	04079663          	bnez	a5,1db6c <sigprocmask@plt+0xab0c>
   1db24:	188b3783          	ld	a5,392(s6)
   1db28:	00842a83          	lw	s5,8(s0)
   1db2c:	01540c93          	addi	s9,s0,21
   1db30:	00578793          	addi	a5,a5,5
   1db34:	00f13023          	sd	a5,0(sp)
   1db38:	000c8593          	mv	a1,s9
   1db3c:	00010513          	mv	a0,sp
   1db40:	fffa8a9b          	addiw	s5,s5,-1
   1db44:	aecfa0ef          	jal	ra,17e30 <sigprocmask@plt+0x4dd0>
   1db48:	fe0ad8e3          	bgez	s5,1db38 <sigprocmask@plt+0xaad8>
   1db4c:	01444783          	lbu	a5,20(s0)
   1db50:	000a0613          	mv	a2,s4
   1db54:	00078663          	beqz	a5,1db60 <sigprocmask@plt+0xab00>
   1db58:	00024637          	lui	a2,0x24
   1db5c:	0a860613          	addi	a2,a2,168 # 240a8 <sigprocmask@plt+0x11048>
   1db60:	008d3583          	ld	a1,8(s10)
   1db64:	0b0c0513          	addi	a0,s8,176 # 240b0 <sigprocmask@plt+0x11050>
   1db68:	c24f80ef          	jal	ra,15f8c <sigprocmask@plt+0x2f2c>
   1db6c:	00043403          	ld	s0,0(s0)
   1db70:	fa1ff06f          	j	1db10 <sigprocmask@plt+0xaab0>
   1db74:	0085b703          	ld	a4,8(a1) # 8008 <longjmp@plt-0xa878>
   1db78:	f8010113          	addi	sp,sp,-128
   1db7c:	07213023          	sd	s2,96(sp)
   1db80:	06113c23          	sd	ra,120(sp)
   1db84:	06813823          	sd	s0,112(sp)
   1db88:	06913423          	sd	s1,104(sp)
   1db8c:	05313c23          	sd	s3,88(sp)
   1db90:	05413823          	sd	s4,80(sp)
   1db94:	05513423          	sd	s5,72(sp)
   1db98:	05613023          	sd	s6,64(sp)
   1db9c:	03713c23          	sd	s7,56(sp)
   1dba0:	03813823          	sd	s8,48(sp)
   1dba4:	03913423          	sd	s9,40(sp)
   1dba8:	00100913          	li	s2,1
   1dbac:	00100793          	li	a5,1
   1dbb0:	00070c63          	beqz	a4,1dbc8 <sigprocmask@plt+0xab68>
   1dbb4:	00074683          	lbu	a3,0(a4)
   1dbb8:	02d00713          	li	a4,45
   1dbbc:	00e69663          	bne	a3,a4,1dbc8 <sigprocmask@plt+0xab68>
   1dbc0:	00000913          	li	s2,0
   1dbc4:	00200793          	li	a5,2
   1dbc8:	00379793          	slli	a5,a5,0x3
   1dbcc:	00f584b3          	add	s1,a1,a5
   1dbd0:	d701bb03          	ld	s6,-656(gp)
   1dbd4:	d681ba83          	ld	s5,-664(gp)
   1dbd8:	d601b783          	ld	a5,-672(gp)
   1dbdc:	00000a13          	li	s4,0
   1dbe0:	00024bb7          	lui	s7,0x24
   1dbe4:	054a8a93          	addi	s5,s5,84
   1dbe8:	00078c93          	mv	s9,a5
   1dbec:	0880006f          	j	1dc74 <sigprocmask@plt+0xac14>
   1dbf0:	188b3783          	ld	a5,392(s6)
   1dbf4:	00578793          	addi	a5,a5,5
   1dbf8:	00f13423          	sd	a5,8(sp)
   1dbfc:	00090663          	beqz	s2,1dc08 <sigprocmask@plt+0xaba8>
   1dc00:	00040513          	mv	a0,s0
   1dc04:	928fd0ef          	jal	ra,1ad2c <sigprocmask@plt+0x7ccc>
   1dc08:	00040513          	mv	a0,s0
   1dc0c:	841f70ef          	jal	ra,1544c <sigprocmask@plt+0x23ec>
   1dc10:	00050c63          	beqz	a0,1dc28 <sigprocmask@plt+0xabc8>
   1dc14:	00090663          	beqz	s2,1dc20 <sigprocmask@plt+0xabc0>
   1dc18:	00024437          	lui	s0,0x24
   1dc1c:	0b840413          	addi	s0,s0,184 # 240b8 <sigprocmask@plt+0x11058>
   1dc20:	00040513          	mv	a0,s0
   1dc24:	0e40006f          	j	1dd08 <sigprocmask@plt+0xaca8>
   1dc28:	00813683          	ld	a3,8(sp)
   1dc2c:	00200613          	li	a2,2
   1dc30:	01010593          	addi	a1,sp,16
   1dc34:	00040513          	mv	a0,s0
   1dc38:	9b9ff0ef          	jal	ra,1d5f0 <sigprocmask@plt+0xa590>
   1dc3c:	01012783          	lw	a5,16(sp)
   1dc40:	00200713          	li	a4,2
   1dc44:	0ce78663          	beq	a5,a4,1dd10 <sigprocmask@plt+0xacb0>
   1dc48:	00f74863          	blt	a4,a5,1dc58 <sigprocmask@plt+0xabf8>
   1dc4c:	06078463          	beqz	a5,1dcb4 <sigprocmask@plt+0xac54>
   1dc50:	00100713          	li	a4,1
   1dc54:	0ae78463          	beq	a5,a4,1dcfc <sigprocmask@plt+0xac9c>
   1dc58:	07f00413          	li	s0,127
   1dc5c:	00090863          	beqz	s2,1dc6c <sigprocmask@plt+0xac0c>
   1dc60:	00024537          	lui	a0,0x24
   1dc64:	11050513          	addi	a0,a0,272 # 24110 <sigprocmask@plt+0x110b0>
   1dc68:	8c4fd0ef          	jal	ra,1ad2c <sigprocmask@plt+0x7ccc>
   1dc6c:	008a6a33          	or	s4,s4,s0
   1dc70:	00848493          	addi	s1,s1,8
   1dc74:	0004b403          	ld	s0,0(s1)
   1dc78:	f6041ce3          	bnez	s0,1dbf0 <sigprocmask@plt+0xab90>
   1dc7c:	07813083          	ld	ra,120(sp)
   1dc80:	07013403          	ld	s0,112(sp)
   1dc84:	06813483          	ld	s1,104(sp)
   1dc88:	06013903          	ld	s2,96(sp)
   1dc8c:	05813983          	ld	s3,88(sp)
   1dc90:	04813a83          	ld	s5,72(sp)
   1dc94:	04013b03          	ld	s6,64(sp)
   1dc98:	03813b83          	ld	s7,56(sp)
   1dc9c:	03013c03          	ld	s8,48(sp)
   1dca0:	02813c83          	ld	s9,40(sp)
   1dca4:	000a0513          	mv	a0,s4
   1dca8:	05013a03          	ld	s4,80(sp)
   1dcac:	08010113          	addi	sp,sp,128
   1dcb0:	00008067          	ret
   1dcb4:	01812983          	lw	s3,24(sp)
   1dcb8:	0209c063          	bltz	s3,1dcd8 <sigprocmask@plt+0xac78>
   1dcbc:	fff00c13          	li	s8,-1
   1dcc0:	00040593          	mv	a1,s0
   1dcc4:	00810513          	addi	a0,sp,8
   1dcc8:	fff9899b          	addiw	s3,s3,-1
   1dccc:	964fa0ef          	jal	ra,17e30 <sigprocmask@plt+0x4dd0>
   1dcd0:	ff8998e3          	bne	s3,s8,1dcc0 <sigprocmask@plt+0xac60>
   1dcd4:	008cb403          	ld	s0,8(s9)
   1dcd8:	f40904e3          	beqz	s2,1dc20 <sigprocmask@plt+0xabc0>
   1dcdc:	00024537          	lui	a0,0x24
   1dce0:	00040593          	mv	a1,s0
   1dce4:	0e050513          	addi	a0,a0,224 # 240e0 <sigprocmask@plt+0x11080>
   1dce8:	aa4f80ef          	jal	ra,15f8c <sigprocmask@plt+0x2f2c>
   1dcec:	bd8b8513          	addi	a0,s7,-1064 # 23bd8 <sigprocmask@plt+0x10b78>
   1dcf0:	83cfd0ef          	jal	ra,1ad2c <sigprocmask@plt+0x7ccc>
   1dcf4:	00000413          	li	s0,0
   1dcf8:	f75ff06f          	j	1dc6c <sigprocmask@plt+0xac0c>
   1dcfc:	f20902e3          	beqz	s2,1dc20 <sigprocmask@plt+0xabc0>
   1dd00:	00024537          	lui	a0,0x24
   1dd04:	0e850513          	addi	a0,a0,232 # 240e8 <sigprocmask@plt+0x11088>
   1dd08:	824fd0ef          	jal	ra,1ad2c <sigprocmask@plt+0x7ccc>
   1dd0c:	fe1ff06f          	j	1dcec <sigprocmask@plt+0xac8c>
   1dd10:	f00908e3          	beqz	s2,1dc20 <sigprocmask@plt+0xabc0>
   1dd14:	01813783          	ld	a5,24(sp)
   1dd18:	000a8593          	mv	a1,s5
   1dd1c:	0007b783          	ld	a5,0(a5)
   1dd20:	0007c783          	lbu	a5,0(a5)
   1dd24:	0017f793          	andi	a5,a5,1
   1dd28:	00078663          	beqz	a5,1dd34 <sigprocmask@plt+0xacd4>
   1dd2c:	000245b7          	lui	a1,0x24
   1dd30:	0d058593          	addi	a1,a1,208 # 240d0 <sigprocmask@plt+0x11070>
   1dd34:	00024537          	lui	a0,0x24
   1dd38:	0f850513          	addi	a0,a0,248 # 240f8 <sigprocmask@plt+0x11098>
   1dd3c:	fadff06f          	j	1dce8 <sigprocmask@plt+0xac88>
   1dd40:	d681b503          	ld	a0,-664(gp)
   1dd44:	f2010113          	addi	sp,sp,-224
   1dd48:	0c913423          	sd	s1,200(sp)
   1dd4c:	05450513          	addi	a0,a0,84
   1dd50:	0d213023          	sd	s2,192(sp)
   1dd54:	0c113c23          	sd	ra,216(sp)
   1dd58:	0c813823          	sd	s0,208(sp)
   1dd5c:	0b313c23          	sd	s3,184(sp)
   1dd60:	0b413823          	sd	s4,176(sp)
   1dd64:	0b513423          	sd	s5,168(sp)
   1dd68:	0b613023          	sd	s6,160(sp)
   1dd6c:	09713c23          	sd	s7,152(sp)
   1dd70:	09813823          	sd	s8,144(sp)
   1dd74:	d38f80ef          	jal	ra,162ac <sigprocmask@plt+0x324c>
   1dd78:	cb81b903          	ld	s2,-840(gp)
   1dd7c:	00093483          	ld	s1,0(s2)
   1dd80:	14048663          	beqz	s1,1decc <sigprocmask@plt+0xae6c>
   1dd84:	d701b403          	ld	s0,-656(gp)
   1dd88:	02f00593          	li	a1,47
   1dd8c:	00048513          	mv	a0,s1
   1dd90:	18843783          	ld	a5,392(s0)
   1dd94:	00578793          	addi	a5,a5,5
   1dd98:	00f13423          	sd	a5,8(sp)
   1dd9c:	9f4f50ef          	jal	ra,12f90 <strchr@plt>
   1dda0:	06051c63          	bnez	a0,1de18 <sigprocmask@plt+0xadb8>
   1dda4:	d601b783          	ld	a5,-672(gp)
   1dda8:	0000fab7          	lui	s5,0xf
   1ddac:	00078c13          	mv	s8,a5
   1ddb0:	00008b37          	lui	s6,0x8
   1ddb4:	06600b93          	li	s7,102
   1ddb8:	00048593          	mv	a1,s1
   1ddbc:	00810513          	addi	a0,sp,8
   1ddc0:	870fa0ef          	jal	ra,17e30 <sigprocmask@plt+0x4dd0>
   1ddc4:	00050993          	mv	s3,a0
   1ddc8:	00055a63          	bgez	a0,1dddc <sigprocmask@plt+0xad7c>
   1ddcc:	00024537          	lui	a0,0x24
   1ddd0:	00048593          	mv	a1,s1
   1ddd4:	12050513          	addi	a0,a0,288 # 24120 <sigprocmask@plt+0x110c0>
   1ddd8:	c8cf80ef          	jal	ra,16264 <sigprocmask@plt+0x3204>
   1dddc:	d481b783          	ld	a5,-696(gp)
   1dde0:	00078663          	beqz	a5,1ddec <sigprocmask@plt+0xad8c>
   1dde4:	0007c783          	lbu	a5,0(a5)
   1dde8:	fd7798e3          	bne	a5,s7,1ddb8 <sigprocmask@plt+0xad58>
   1ddec:	008c3503          	ld	a0,8(s8)
   1ddf0:	01010593          	addi	a1,sp,16
   1ddf4:	8ccf50ef          	jal	ra,12ec0 <stat@plt>
   1ddf8:	fc0510e3          	bnez	a0,1ddb8 <sigprocmask@plt+0xad58>
   1ddfc:	02012783          	lw	a5,32(sp)
   1de00:	0157f7b3          	and	a5,a5,s5
   1de04:	0007879b          	sext.w	a5,a5
   1de08:	fb6798e3          	bne	a5,s6,1ddb8 <sigprocmask@plt+0xad58>
   1de0c:	00098513          	mv	a0,s3
   1de10:	8f9f80ef          	jal	ra,16708 <sigprocmask@plt+0x36a8>
   1de14:	00050493          	mv	s1,a0
   1de18:	00893983          	ld	s3,8(s2)
   1de1c:	02098c63          	beqz	s3,1de54 <sigprocmask@plt+0xadf4>
   1de20:	00043783          	ld	a5,0(s0)
   1de24:	00890713          	addi	a4,s2,8
   1de28:	01090913          	addi	s2,s2,16
   1de2c:	00f13823          	sd	a5,16(sp)
   1de30:	00843783          	ld	a5,8(s0)
   1de34:	00f13c23          	sd	a5,24(sp)
   1de38:	00040223          	sb	zero,4(s0)
   1de3c:	00100793          	li	a5,1
   1de40:	00093683          	ld	a3,0(s2)
   1de44:	00890913          	addi	s2,s2,8
   1de48:	06069e63          	bnez	a3,1dec4 <sigprocmask@plt+0xae64>
   1de4c:	00f42023          	sw	a5,0(s0)
   1de50:	00e43423          	sd	a4,8(s0)
   1de54:	00100593          	li	a1,1
   1de58:	00048513          	mv	a0,s1
   1de5c:	a35f80ef          	jal	ra,16890 <sigprocmask@plt+0x3830>
   1de60:	00000513          	li	a0,0
   1de64:	cc91bc23          	sd	s1,-808(gp)
   1de68:	e64ff0ef          	jal	ra,1d4cc <sigprocmask@plt+0xa46c>
   1de6c:	00050493          	mv	s1,a0
   1de70:	d01f70ef          	jal	ra,15b70 <sigprocmask@plt+0x2b10>
   1de74:	00098e63          	beqz	s3,1de90 <sigprocmask@plt+0xae30>
   1de78:	00040513          	mv	a0,s0
   1de7c:	a68f70ef          	jal	ra,150e4 <sigprocmask@plt+0x2084>
   1de80:	01013783          	ld	a5,16(sp)
   1de84:	00f43023          	sd	a5,0(s0)
   1de88:	01813783          	ld	a5,24(sp)
   1de8c:	00f43423          	sd	a5,8(s0)
   1de90:	0d813083          	ld	ra,216(sp)
   1de94:	0d013403          	ld	s0,208(sp)
   1de98:	0c013903          	ld	s2,192(sp)
   1de9c:	0b813983          	ld	s3,184(sp)
   1dea0:	0b013a03          	ld	s4,176(sp)
   1dea4:	0a813a83          	ld	s5,168(sp)
   1dea8:	0a013b03          	ld	s6,160(sp)
   1deac:	09813b83          	ld	s7,152(sp)
   1deb0:	09013c03          	ld	s8,144(sp)
   1deb4:	00048513          	mv	a0,s1
   1deb8:	0c813483          	ld	s1,200(sp)
   1debc:	0e010113          	addi	sp,sp,224
   1dec0:	00008067          	ret
   1dec4:	0017879b          	addiw	a5,a5,1
   1dec8:	f79ff06f          	j	1de40 <sigprocmask@plt+0xade0>
   1decc:	00200493          	li	s1,2
   1ded0:	fc1ff06f          	j	1de90 <sigprocmask@plt+0xae30>
   1ded4:	f8010113          	addi	sp,sp,-128
   1ded8:	00853783          	ld	a5,8(a0)
   1dedc:	07213023          	sd	s2,96(sp)
   1dee0:	05413823          	sd	s4,80(sp)
   1dee4:	00050913          	mv	s2,a0
   1dee8:	06113c23          	sd	ra,120(sp)
   1deec:	06813823          	sd	s0,112(sp)
   1def0:	06913423          	sd	s1,104(sp)
   1def4:	05313c23          	sd	s3,88(sp)
   1def8:	05513423          	sd	s5,72(sp)
   1defc:	05613023          	sd	s6,64(sp)
   1df00:	03713c23          	sd	s7,56(sp)
   1df04:	00058a13          	mv	s4,a1
   1df08:	00000513          	li	a0,0
   1df0c:	06079e63          	bnez	a5,1df88 <sigprocmask@plt+0xaf28>
   1df10:	d681b703          	ld	a4,-664(gp)
   1df14:	04072783          	lw	a5,64(a4)
   1df18:	0017879b          	addiw	a5,a5,1
   1df1c:	04f72023          	sw	a5,64(a4)
   1df20:	f54fc0ef          	jal	ra,1a674 <sigprocmask@plt+0x7614>
   1df24:	00893403          	ld	s0,8(s2)
   1df28:	d701bb83          	ld	s7,-656(gp)
   1df2c:	00050993          	mv	s3,a0
   1df30:	fff00493          	li	s1,-1
   1df34:	fff00b13          	li	s6,-1
   1df38:	04041e63          	bnez	s0,1df94 <sigprocmask@plt+0xaf34>
   1df3c:	00492783          	lw	a5,4(s2)
   1df40:	00000513          	li	a0,0
   1df44:	00079663          	bnez	a5,1df50 <sigprocmask@plt+0xaef0>
   1df48:	00098513          	mv	a0,s3
   1df4c:	8cdfc0ef          	jal	ra,1a818 <sigprocmask@plt+0x77b8>
   1df50:	00a13423          	sd	a0,8(sp)
   1df54:	9b5f70ef          	jal	ra,15908 <sigprocmask@plt+0x28a8>
   1df58:	07813083          	ld	ra,120(sp)
   1df5c:	07013403          	ld	s0,112(sp)
   1df60:	00813503          	ld	a0,8(sp)
   1df64:	06813483          	ld	s1,104(sp)
   1df68:	06013903          	ld	s2,96(sp)
   1df6c:	05813983          	ld	s3,88(sp)
   1df70:	05013a03          	ld	s4,80(sp)
   1df74:	04813a83          	ld	s5,72(sp)
   1df78:	04013b03          	ld	s6,64(sp)
   1df7c:	03813b83          	ld	s7,56(sp)
   1df80:	08010113          	addi	sp,sp,128
   1df84:	00008067          	ret
   1df88:	0007b783          	ld	a5,0(a5)
   1df8c:	0015051b          	addiw	a0,a0,1
   1df90:	f7dff06f          	j	1df0c <sigprocmask@plt+0xaeac>
   1df94:	00843a83          	ld	s5,8(s0)
   1df98:	000aa783          	lw	a5,0(s5) # f000 <longjmp@plt-0x3880>
   1df9c:	02079c63          	bnez	a5,1dfd4 <sigprocmask@plt+0xaf74>
   1dfa0:	010ab783          	ld	a5,16(s5)
   1dfa4:	02078863          	beqz	a5,1dfd4 <sigprocmask@plt+0xaf74>
   1dfa8:	0107b503          	ld	a0,16(a5)
   1dfac:	4f9010ef          	jal	ra,1fca4 <sigprocmask@plt+0xcc44>
   1dfb0:	00054783          	lbu	a5,0(a0)
   1dfb4:	02079063          	bnez	a5,1dfd4 <sigprocmask@plt+0xaf74>
   1dfb8:	010ab783          	ld	a5,16(s5)
   1dfbc:	188bb683          	ld	a3,392(s7)
   1dfc0:	00000613          	li	a2,0
   1dfc4:	0107b503          	ld	a0,16(a5)
   1dfc8:	00568693          	addi	a3,a3,5
   1dfcc:	02010593          	addi	a1,sp,32
   1dfd0:	e20ff0ef          	jal	ra,1d5f0 <sigprocmask@plt+0xa590>
   1dfd4:	00043783          	ld	a5,0(s0)
   1dfd8:	01612e23          	sw	s6,28(sp)
   1dfdc:	02078263          	beqz	a5,1e000 <sigprocmask@plt+0xafa0>
   1dfe0:	01810513          	addi	a0,sp,24
   1dfe4:	b3df40ef          	jal	ra,12b20 <pipe@plt>
   1dfe8:	00055c63          	bgez	a0,1e000 <sigprocmask@plt+0xafa0>
   1dfec:	00048513          	mv	a0,s1
   1dff0:	810f50ef          	jal	ra,13000 <close@plt>
   1dff4:	00024537          	lui	a0,0x24
   1dff8:	fe050513          	addi	a0,a0,-32 # 23fe0 <sigprocmask@plt+0x10f80>
   1dffc:	a68f80ef          	jal	ra,16264 <sigprocmask@plt+0x3204>
   1e000:	00492603          	lw	a2,4(s2)
   1e004:	00843583          	ld	a1,8(s0)
   1e008:	00098513          	mv	a0,s3
   1e00c:	a31fc0ef          	jal	ra,1aa3c <sigprocmask@plt+0x79dc>
   1e010:	04051c63          	bnez	a0,1e068 <sigprocmask@plt+0xb008>
   1e014:	8f5f70ef          	jal	ra,15908 <sigprocmask@plt+0x28a8>
   1e018:	01c12783          	lw	a5,28(sp)
   1e01c:	0007c663          	bltz	a5,1e028 <sigprocmask@plt+0xafc8>
   1e020:	01812503          	lw	a0,24(sp)
   1e024:	fddf40ef          	jal	ra,13000 <close@plt>
   1e028:	00905c63          	blez	s1,1e040 <sigprocmask@plt+0xafe0>
   1e02c:	00000593          	li	a1,0
   1e030:	00048513          	mv	a0,s1
   1e034:	a1df40ef          	jal	ra,12a50 <dup2@plt>
   1e038:	00048513          	mv	a0,s1
   1e03c:	fc5f40ef          	jal	ra,13000 <close@plt>
   1e040:	01c12503          	lw	a0,28(sp)
   1e044:	00100793          	li	a5,1
   1e048:	00a7da63          	bge	a5,a0,1e05c <sigprocmask@plt+0xaffc>
   1e04c:	00100593          	li	a1,1
   1e050:	a01f40ef          	jal	ra,12a50 <dup2@plt>
   1e054:	01c12503          	lw	a0,28(sp)
   1e058:	fa9f40ef          	jal	ra,13000 <close@plt>
   1e05c:	00843503          	ld	a0,8(s0)
   1e060:	001a6593          	ori	a1,s4,1
   1e064:	b7dfe0ef          	jal	ra,1cbe0 <sigprocmask@plt+0x9b80>
   1e068:	0004c663          	bltz	s1,1e074 <sigprocmask@plt+0xb014>
   1e06c:	00048513          	mv	a0,s1
   1e070:	f91f40ef          	jal	ra,13000 <close@plt>
   1e074:	01c12503          	lw	a0,28(sp)
   1e078:	01812483          	lw	s1,24(sp)
   1e07c:	01650463          	beq	a0,s6,1e084 <sigprocmask@plt+0xb024>
   1e080:	f81f40ef          	jal	ra,13000 <close@plt>
   1e084:	00043403          	ld	s0,0(s0)
   1e088:	eb1ff06f          	j	1df38 <sigprocmask@plt+0xaed8>
   1e08c:	fc010113          	addi	sp,sp,-64
   1e090:	d701b683          	ld	a3,-656(gp)
   1e094:	00452783          	lw	a5,4(a0)
   1e098:	01313c23          	sd	s3,24(sp)
   1e09c:	d681b983          	ld	s3,-664(gp)
   1e0a0:	02813823          	sd	s0,48(sp)
   1e0a4:	02913423          	sd	s1,40(sp)
   1e0a8:	03213023          	sd	s2,32(sp)
   1e0ac:	02113c23          	sd	ra,56(sp)
   1e0b0:	01413823          	sd	s4,16(sp)
   1e0b4:	d941a703          	lw	a4,-620(gp)
   1e0b8:	00052903          	lw	s2,0(a0)
   1e0bc:	22f6ac23          	sw	a5,568(a3)
   1e0c0:	00f9aa23          	sw	a5,20(s3)
   1e0c4:	00050493          	mv	s1,a0
   1e0c8:	00058413          	mv	s0,a1
   1e0cc:	00070863          	beqz	a4,1e0dc <sigprocmask@plt+0xb07c>
   1e0d0:	fff7071b          	addiw	a4,a4,-1
   1e0d4:	40e787bb          	subw	a5,a5,a4
   1e0d8:	22f6ac23          	sw	a5,568(a3)
   1e0dc:	0104b503          	ld	a0,16(s1)
   1e0e0:	9c5fe0ef          	jal	ra,1caa4 <sigprocmask@plt+0x9a44>
   1e0e4:	00300793          	li	a5,3
   1e0e8:	00f90a63          	beq	s2,a5,1e0fc <sigprocmask@plt+0xb09c>
   1e0ec:	00147793          	andi	a5,s0,1
   1e0f0:	00078663          	beqz	a5,1e0fc <sigprocmask@plt+0xb09c>
   1e0f4:	0e49c783          	lbu	a5,228(s3)
   1e0f8:	04078063          	beqz	a5,1e138 <sigprocmask@plt+0xb0d8>
   1e0fc:	0409a783          	lw	a5,64(s3)
   1e100:	0017879b          	addiw	a5,a5,1
   1e104:	04f9a023          	sw	a5,64(s3)
   1e108:	00100513          	li	a0,1
   1e10c:	d68fc0ef          	jal	ra,1a674 <sigprocmask@plt+0x7614>
   1e110:	ffd90613          	addi	a2,s2,-3
   1e114:	00163613          	seqz	a2,a2
   1e118:	00048593          	mv	a1,s1
   1e11c:	00050993          	mv	s3,a0
   1e120:	00300a13          	li	s4,3
   1e124:	919fc0ef          	jal	ra,1aa3c <sigprocmask@plt+0x79dc>
   1e128:	02051863          	bnez	a0,1e158 <sigprocmask@plt+0xb0f8>
   1e12c:	fdcf70ef          	jal	ra,15908 <sigprocmask@plt+0x28a8>
   1e130:	03490063          	beq	s2,s4,1e150 <sigprocmask@plt+0xb0f0>
   1e134:	00146413          	ori	s0,s0,1
   1e138:	0104b503          	ld	a0,16(s1)
   1e13c:	00000593          	li	a1,0
   1e140:	ba8fe0ef          	jal	ra,1c4e8 <sigprocmask@plt+0x9488>
   1e144:	0084b503          	ld	a0,8(s1)
   1e148:	00040593          	mv	a1,s0
   1e14c:	a95fe0ef          	jal	ra,1cbe0 <sigprocmask@plt+0x9b80>
   1e150:	ffd47413          	andi	s0,s0,-3
   1e154:	fe1ff06f          	j	1e134 <sigprocmask@plt+0xb0d4>
   1e158:	00000513          	li	a0,0
   1e15c:	01490663          	beq	s2,s4,1e168 <sigprocmask@plt+0xb108>
   1e160:	00098513          	mv	a0,s3
   1e164:	eb4fc0ef          	jal	ra,1a818 <sigprocmask@plt+0x77b8>
   1e168:	00a13423          	sd	a0,8(sp)
   1e16c:	f9cf70ef          	jal	ra,15908 <sigprocmask@plt+0x28a8>
   1e170:	03813083          	ld	ra,56(sp)
   1e174:	03013403          	ld	s0,48(sp)
   1e178:	00813503          	ld	a0,8(sp)
   1e17c:	02813483          	ld	s1,40(sp)
   1e180:	02013903          	ld	s2,32(sp)
   1e184:	01813983          	ld	s3,24(sp)
   1e188:	01013a03          	ld	s4,16(sp)
   1e18c:	04010113          	addi	sp,sp,64
   1e190:	00008067          	ret
   1e194:	d701b683          	ld	a3,-656(gp)
   1e198:	00452783          	lw	a5,4(a0)
   1e19c:	f8010113          	addi	sp,sp,-128
   1e1a0:	d681b703          	ld	a4,-664(gp)
   1e1a4:	06813823          	sd	s0,112(sp)
   1e1a8:	07213023          	sd	s2,96(sp)
   1e1ac:	06113c23          	sd	ra,120(sp)
   1e1b0:	06913423          	sd	s1,104(sp)
   1e1b4:	05313c23          	sd	s3,88(sp)
   1e1b8:	05413823          	sd	s4,80(sp)
   1e1bc:	05513423          	sd	s5,72(sp)
   1e1c0:	05613023          	sd	s6,64(sp)
   1e1c4:	03713c23          	sd	s7,56(sp)
   1e1c8:	03813823          	sd	s8,48(sp)
   1e1cc:	22f6ac23          	sw	a5,568(a3)
   1e1d0:	00f72a23          	sw	a5,20(a4)
   1e1d4:	d941a703          	lw	a4,-620(gp)
   1e1d8:	00050413          	mv	s0,a0
   1e1dc:	00058913          	mv	s2,a1
   1e1e0:	00070863          	beqz	a4,1e1f0 <sigprocmask@plt+0xb190>
   1e1e4:	fff7071b          	addiw	a4,a4,-1
   1e1e8:	40e787bb          	subw	a5,a5,a4
   1e1ec:	22f6ac23          	sw	a5,568(a3)
   1e1f0:	00843503          	ld	a0,8(s0)
   1e1f4:	00810593          	addi	a1,sp,8
   1e1f8:	00200613          	li	a2,2
   1e1fc:	00013423          	sd	zero,8(sp)
   1e200:	00b13823          	sd	a1,16(sp)
   1e204:	ed5fd0ef          	jal	ra,1c0d8 <sigprocmask@plt+0x9078>
   1e208:	01043403          	ld	s0,16(s0)
   1e20c:	d601ba83          	ld	s5,-672(gp)
   1e210:	08040063          	beqz	s0,1e290 <sigprocmask@plt+0xb230>
   1e214:	d901a783          	lw	a5,-624(gp)
   1e218:	d9018b13          	addi	s6,gp,-624
   1e21c:	06079a63          	bnez	a5,1e290 <sigprocmask@plt+0xb230>
   1e220:	01043483          	ld	s1,16(s0)
   1e224:	00049663          	bnez	s1,1e230 <sigprocmask@plt+0xb1d0>
   1e228:	00843403          	ld	s0,8(s0)
   1e22c:	fe5ff06f          	j	1e210 <sigprocmask@plt+0xb1b0>
   1e230:	00813783          	ld	a5,8(sp)
   1e234:	01810513          	addi	a0,sp,24
   1e238:	0087b983          	ld	s3,8(a5)
   1e23c:	d8cf80ef          	jal	ra,167c8 <sigprocmask@plt+0x3768>
   1e240:	0184b783          	ld	a5,24(s1)
   1e244:	0104b503          	ld	a0,16(s1)
   1e248:	01200593          	li	a1,18
   1e24c:	caf1b823          	sd	a5,-848(gp)
   1e250:	008ab783          	ld	a5,8(s5)
   1e254:	cef1b423          	sd	a5,-792(gp)
   1e258:	975fd0ef          	jal	ra,1bbcc <sigprocmask@plt+0x8b6c>
   1e25c:	80df70ef          	jal	ra,15a68 <sigprocmask@plt+0x2a08>
   1e260:	008ab503          	ld	a0,8(s5)
   1e264:	00200593          	li	a1,2
   1e268:	f4cf90ef          	jal	ra,179b4 <sigprocmask@plt+0x4954>
   1e26c:	00098593          	mv	a1,s3
   1e270:	00000613          	li	a2,0
   1e274:	afdf40ef          	jal	ra,12d70 <fnmatch@plt>
   1e278:	00050993          	mv	s3,a0
   1e27c:	01810513          	addi	a0,sp,24
   1e280:	c91f70ef          	jal	ra,15f10 <sigprocmask@plt+0x2eb0>
   1e284:	04099a63          	bnez	s3,1e2d8 <sigprocmask@plt+0xb278>
   1e288:	000b2783          	lw	a5,0(s6) # 8000 <longjmp@plt-0xa880>
   1e28c:	02078c63          	beqz	a5,1e2c4 <sigprocmask@plt+0xb264>
   1e290:	00000513          	li	a0,0
   1e294:	07813083          	ld	ra,120(sp)
   1e298:	07013403          	ld	s0,112(sp)
   1e29c:	06813483          	ld	s1,104(sp)
   1e2a0:	06013903          	ld	s2,96(sp)
   1e2a4:	05813983          	ld	s3,88(sp)
   1e2a8:	05013a03          	ld	s4,80(sp)
   1e2ac:	04813a83          	ld	s5,72(sp)
   1e2b0:	04013b03          	ld	s6,64(sp)
   1e2b4:	03813b83          	ld	s7,56(sp)
   1e2b8:	03013c03          	ld	s8,48(sp)
   1e2bc:	08010113          	addi	sp,sp,128
   1e2c0:	00008067          	ret
   1e2c4:	01843503          	ld	a0,24(s0)
   1e2c8:	fc0504e3          	beqz	a0,1e290 <sigprocmask@plt+0xb230>
   1e2cc:	00090593          	mv	a1,s2
   1e2d0:	911fe0ef          	jal	ra,1cbe0 <sigprocmask@plt+0x9b80>
   1e2d4:	fc1ff06f          	j	1e294 <sigprocmask@plt+0xb234>
   1e2d8:	0084b483          	ld	s1,8(s1)
   1e2dc:	f49ff06f          	j	1e224 <sigprocmask@plt+0xb1c4>
   1e2e0:	c781b783          	ld	a5,-904(gp)
   1e2e4:	e3010113          	addi	sp,sp,-464
   1e2e8:	1a913c23          	sd	s1,440(sp)
   1e2ec:	00f13023          	sd	a5,0(sp)
   1e2f0:	d681b483          	ld	s1,-664(gp)
   1e2f4:	1c813023          	sd	s0,448(sp)
   1e2f8:	1c113423          	sd	ra,456(sp)
   1e2fc:	0384b783          	ld	a5,56(s1)
   1e300:	00050413          	mv	s0,a0
   1e304:	02f13023          	sd	a5,32(sp)
   1e308:	b19f70ef          	jal	ra,15e20 <sigprocmask@plt+0x2dc0>
   1e30c:	d8c18793          	addi	a5,gp,-628
   1e310:	02813423          	sd	s0,40(sp)
   1e314:	0007a703          	lw	a4,0(a5)
   1e318:	0007a023          	sw	zero,0(a5)
   1e31c:	0404a783          	lw	a5,64(s1)
   1e320:	05810513          	addi	a0,sp,88
   1e324:	00e13423          	sd	a4,8(sp)
   1e328:	0007879b          	sext.w	a5,a5
   1e32c:	00f12e23          	sw	a5,28(sp)
   1e330:	d80f40ef          	jal	ra,128b0 <setjmp@plt>
   1e334:	d681b483          	ld	s1,-664(gp)
   1e338:	00050413          	mv	s0,a0
   1e33c:	04051c63          	bnez	a0,1e394 <sigprocmask@plt+0xb334>
   1e340:	05810793          	addi	a5,sp,88
   1e344:	02f4bc23          	sd	a5,56(s1)
   1e348:	bd0f90ef          	jal	ra,17718 <sigprocmask@plt+0x46b8>
   1e34c:	00000693          	li	a3,0
   1e350:	00100613          	li	a2,1
   1e354:	00100593          	li	a1,1
   1e358:	dcdfa0ef          	jal	ra,19124 <sigprocmask@plt+0x60c4>
   1e35c:	00f00793          	li	a5,15
   1e360:	02f12823          	sw	a5,48(sp)
   1e364:	d581b783          	ld	a5,-680(gp)
   1e368:	10000613          	li	a2,256
   1e36c:	00000593          	li	a1,0
   1e370:	04f13023          	sd	a5,64(sp)
   1e374:	cc01b783          	ld	a5,-832(gp)
   1e378:	03010513          	addi	a0,sp,48
   1e37c:	02013c23          	sd	zero,56(sp)
   1e380:	04f13423          	sd	a5,72(sp)
   1e384:	d55fd0ef          	jal	ra,1c0d8 <sigprocmask@plt+0x9078>
   1e388:	d601b783          	ld	a5,-672(gp)
   1e38c:	0087b783          	ld	a5,8(a5)
   1e390:	02f13423          	sd	a5,40(sp)
   1e394:	02013503          	ld	a0,32(sp)
   1e398:	02a4bc23          	sd	a0,56(s1)
   1e39c:	00040c63          	beqz	s0,1e3b4 <sigprocmask@plt+0xb354>
   1e3a0:	0504a703          	lw	a4,80(s1)
   1e3a4:	00100793          	li	a5,1
   1e3a8:	00f70663          	beq	a4,a5,1e3b4 <sigprocmask@plt+0xb354>
   1e3ac:	00100593          	li	a1,1
   1e3b0:	cd0f40ef          	jal	ra,12880 <longjmp@plt>
   1e3b4:	01c12703          	lw	a4,28(sp)
   1e3b8:	d681b783          	ld	a5,-664(gp)
   1e3bc:	0007071b          	sext.w	a4,a4
   1e3c0:	04e7a023          	sw	a4,64(a5)
   1e3c4:	0407a703          	lw	a4,64(a5)
   1e3c8:	0007071b          	sext.w	a4,a4
   1e3cc:	00071a63          	bnez	a4,1e3e0 <sigprocmask@plt+0xb380>
   1e3d0:	0447a783          	lw	a5,68(a5)
   1e3d4:	0007879b          	sext.w	a5,a5
   1e3d8:	00078463          	beqz	a5,1e3e0 <sigprocmask@plt+0xb380>
   1e3dc:	c4cf70ef          	jal	ra,15828 <sigprocmask@plt+0x27c8>
   1e3e0:	00813703          	ld	a4,8(sp)
   1e3e4:	00013503          	ld	a0,0(sp)
   1e3e8:	d8e1a623          	sw	a4,-628(gp)
   1e3ec:	811f70ef          	jal	ra,15bfc <sigprocmask@plt+0x2b9c>
   1e3f0:	1c813083          	ld	ra,456(sp)
   1e3f4:	1c013403          	ld	s0,448(sp)
   1e3f8:	02813503          	ld	a0,40(sp)
   1e3fc:	1b813483          	ld	s1,440(sp)
   1e400:	1d010113          	addi	sp,sp,464
   1e404:	00008067          	ret
   1e408:	ff010113          	addi	sp,sp,-16
   1e40c:	00113423          	sd	ra,8(sp)
   1e410:	ed1ff0ef          	jal	ra,1e2e0 <sigprocmask@plt+0xb280>
   1e414:	00300593          	li	a1,3
   1e418:	c78f80ef          	jal	ra,16890 <sigprocmask@plt+0x3830>
   1e41c:	00054c63          	bltz	a0,1e434 <sigprocmask@plt+0xb3d4>
   1e420:	00000513          	li	a0,0
   1e424:	8a8ff0ef          	jal	ra,1d4cc <sigprocmask@plt+0xa46c>
   1e428:	00813083          	ld	ra,8(sp)
   1e42c:	01010113          	addi	sp,sp,16
   1e430:	f40f706f          	j	15b70 <sigprocmask@plt+0x2b10>
   1e434:	00813083          	ld	ra,8(sp)
   1e438:	01010113          	addi	sp,sp,16
   1e43c:	00008067          	ret
   1e440:	d701b683          	ld	a3,-656(gp)
   1e444:	00452783          	lw	a5,4(a0)
   1e448:	fc010113          	addi	sp,sp,-64
   1e44c:	d681b703          	ld	a4,-664(gp)
   1e450:	02813823          	sd	s0,48(sp)
   1e454:	03213023          	sd	s2,32(sp)
   1e458:	02113c23          	sd	ra,56(sp)
   1e45c:	02913423          	sd	s1,40(sp)
   1e460:	01313c23          	sd	s3,24(sp)
   1e464:	01413823          	sd	s4,16(sp)
   1e468:	22f6ac23          	sw	a5,568(a3)
   1e46c:	00f72a23          	sw	a5,20(a4)
   1e470:	d941a703          	lw	a4,-620(gp)
   1e474:	00050413          	mv	s0,a0
   1e478:	00058913          	mv	s2,a1
   1e47c:	00070863          	beqz	a4,1e48c <sigprocmask@plt+0xb42c>
   1e480:	fff7071b          	addiw	a4,a4,-1
   1e484:	40e787bb          	subw	a5,a5,a4
   1e488:	22f6ac23          	sw	a5,568(a3)
   1e48c:	00843483          	ld	s1,8(s0)
   1e490:	00013023          	sd	zero,0(sp)
   1e494:	00213423          	sd	sp,8(sp)
   1e498:	06049063          	bnez	s1,1e4f8 <sigprocmask@plt+0xb498>
   1e49c:	00813783          	ld	a5,8(sp)
   1e4a0:	da018713          	addi	a4,gp,-608
   1e4a4:	0007b023          	sd	zero,0(a5)
   1e4a8:	00072783          	lw	a5,0(a4)
   1e4ac:	00013a03          	ld	s4,0(sp)
   1e4b0:	00297913          	andi	s2,s2,2
   1e4b4:	0017879b          	addiw	a5,a5,1
   1e4b8:	00f72023          	sw	a5,0(a4)
   1e4bc:	00000993          	li	s3,0
   1e4c0:	da018493          	addi	s1,gp,-608
   1e4c4:	040a1663          	bnez	s4,1e510 <sigprocmask@plt+0xb4b0>
   1e4c8:	0004a783          	lw	a5,0(s1)
   1e4cc:	03813083          	ld	ra,56(sp)
   1e4d0:	03013403          	ld	s0,48(sp)
   1e4d4:	fff7879b          	addiw	a5,a5,-1
   1e4d8:	00f4a023          	sw	a5,0(s1)
   1e4dc:	02013903          	ld	s2,32(sp)
   1e4e0:	02813483          	ld	s1,40(sp)
   1e4e4:	01013a03          	ld	s4,16(sp)
   1e4e8:	00098513          	mv	a0,s3
   1e4ec:	01813983          	ld	s3,24(sp)
   1e4f0:	04010113          	addi	sp,sp,64
   1e4f4:	00008067          	ret
   1e4f8:	00048513          	mv	a0,s1
   1e4fc:	00300613          	li	a2,3
   1e500:	00010593          	mv	a1,sp
   1e504:	bd5fd0ef          	jal	ra,1c0d8 <sigprocmask@plt+0x9078>
   1e508:	0084b483          	ld	s1,8(s1)
   1e50c:	f8dff06f          	j	1e498 <sigprocmask@plt+0xb438>
   1e510:	008a3583          	ld	a1,8(s4)
   1e514:	01843503          	ld	a0,24(s0)
   1e518:	970fd0ef          	jal	ra,1b688 <sigprocmask@plt+0x8628>
   1e51c:	01043503          	ld	a0,16(s0)
   1e520:	00090593          	mv	a1,s2
   1e524:	ebcfe0ef          	jal	ra,1cbe0 <sigprocmask@plt+0x9b80>
   1e528:	00050993          	mv	s3,a0
   1e52c:	a01f60ef          	jal	ra,14f2c <sigprocmask@plt+0x1ecc>
   1e530:	ffd57793          	andi	a5,a0,-3
   1e534:	0007879b          	sext.w	a5,a5
   1e538:	f80798e3          	bnez	a5,1e4c8 <sigprocmask@plt+0xb468>
   1e53c:	000a3a03          	ld	s4,0(s4)
   1e540:	f85ff06f          	j	1e4c4 <sigprocmask@plt+0xb464>
   1e544:	fb010113          	addi	sp,sp,-80
   1e548:	03313423          	sd	s3,40(sp)
   1e54c:	d681b983          	ld	s3,-664(gp)
   1e550:	03213823          	sd	s2,48(sp)
   1e554:	03413023          	sd	s4,32(sp)
   1e558:	01513c23          	sd	s5,24(sp)
   1e55c:	01613823          	sd	s6,16(sp)
   1e560:	04113423          	sd	ra,72(sp)
   1e564:	04813023          	sd	s0,64(sp)
   1e568:	02913c23          	sd	s1,56(sp)
   1e56c:	01713423          	sd	s7,8(sp)
   1e570:	01813023          	sd	s8,0(sp)
   1e574:	00050913          	mv	s2,a0
   1e578:	02000a93          	li	s5,32
   1e57c:	05598b13          	addi	s6,s3,85
   1e580:	d3018793          	addi	a5,gp,-720
   1e584:	0007b703          	ld	a4,0(a5)
   1e588:	03271a63          	bne	a4,s2,1e5bc <sigprocmask@plt+0xb55c>
   1e58c:	04813083          	ld	ra,72(sp)
   1e590:	04013403          	ld	s0,64(sp)
   1e594:	03813483          	ld	s1,56(sp)
   1e598:	03013903          	ld	s2,48(sp)
   1e59c:	02813983          	ld	s3,40(sp)
   1e5a0:	02013a03          	ld	s4,32(sp)
   1e5a4:	01813a83          	ld	s5,24(sp)
   1e5a8:	01013b03          	ld	s6,16(sp)
   1e5ac:	00813b83          	ld	s7,8(sp)
   1e5b0:	00013c03          	ld	s8,0(sp)
   1e5b4:	05010113          	addi	sp,sp,80
   1e5b8:	00008067          	ret
   1e5bc:	0409a703          	lw	a4,64(s3)
   1e5c0:	0017071b          	addiw	a4,a4,1
   1e5c4:	04e9a023          	sw	a4,64(s3)
   1e5c8:	0007b503          	ld	a0,0(a5)
   1e5cc:	03d00b93          	li	s7,61
   1e5d0:	00053703          	ld	a4,0(a0)
   1e5d4:	00853403          	ld	s0,8(a0)
   1e5d8:	00e7b023          	sd	a4,0(a5)
   1e5dc:	a75f40ef          	jal	ra,13050 <free@plt>
   1e5e0:	00041663          	bnez	s0,1e5ec <sigprocmask@plt+0xb58c>
   1e5e4:	b24f70ef          	jal	ra,15908 <sigprocmask@plt+0x28a8>
   1e5e8:	f99ff06f          	j	1e580 <sigprocmask@plt+0xb520>
   1e5ec:	00843483          	ld	s1,8(s0)
   1e5f0:	00043c03          	ld	s8,0(s0)
   1e5f4:	02049863          	bnez	s1,1e624 <sigprocmask@plt+0xb5c4>
   1e5f8:	01843583          	ld	a1,24(s0)
   1e5fc:	00f00613          	li	a2,15
   1e600:	000b0513          	mv	a0,s6
   1e604:	c0cf40ef          	jal	ra,12a10 <memcpy@plt>
   1e608:	01843503          	ld	a0,24(s0)
   1e60c:	a45f40ef          	jal	ra,13050 <free@plt>
   1e610:	9d5f70ef          	jal	ra,15fe4 <sigprocmask@plt+0x2f84>
   1e614:	00040513          	mv	a0,s0
   1e618:	a39f40ef          	jal	ra,13050 <free@plt>
   1e61c:	000c0413          	mv	s0,s8
   1e620:	fc1ff06f          	j	1e5e0 <sigprocmask@plt+0xb580>
   1e624:	01042783          	lw	a5,16(s0)
   1e628:	03579263          	bne	a5,s5,1e64c <sigprocmask@plt+0xb5ec>
   1e62c:	0084a783          	lw	a5,8(s1)
   1e630:	0104b503          	ld	a0,16(s1)
   1e634:	00000613          	li	a2,0
   1e638:	ff97f793          	andi	a5,a5,-7
   1e63c:	00f4a423          	sw	a5,8(s1)
   1e640:	00000593          	li	a1,0
   1e644:	8b5fc0ef          	jal	ra,1aef8 <sigprocmask@plt+0x7e98>
   1e648:	fcdff06f          	j	1e614 <sigprocmask@plt+0xb5b4>
   1e64c:	0184b783          	ld	a5,24(s1)
   1e650:	00078e63          	beqz	a5,1e66c <sigprocmask@plt+0xb60c>
   1e654:	01843503          	ld	a0,24(s0)
   1e658:	00054703          	lbu	a4,0(a0)
   1e65c:	00070663          	beqz	a4,1e668 <sigprocmask@plt+0xb608>
   1e660:	00150513          	addi	a0,a0,1
   1e664:	ff771ae3          	bne	a4,s7,1e658 <sigprocmask@plt+0xb5f8>
   1e668:	000780e7          	jalr	a5
   1e66c:	0084a783          	lw	a5,8(s1)
   1e670:	0187f793          	andi	a5,a5,24
   1e674:	00079663          	bnez	a5,1e680 <sigprocmask@plt+0xb620>
   1e678:	0104b503          	ld	a0,16(s1)
   1e67c:	9d5f40ef          	jal	ra,13050 <free@plt>
   1e680:	01042783          	lw	a5,16(s0)
   1e684:	00f4a423          	sw	a5,8(s1)
   1e688:	01843783          	ld	a5,24(s0)
   1e68c:	00f4b823          	sd	a5,16(s1)
   1e690:	f85ff06f          	j	1e614 <sigprocmask@plt+0xb5b4>
   1e694:	fc010113          	addi	sp,sp,-64
   1e698:	01313c23          	sd	s3,24(sp)
   1e69c:	00058993          	mv	s3,a1
   1e6a0:	03d00593          	li	a1,61
   1e6a4:	02913423          	sd	s1,40(sp)
   1e6a8:	01413823          	sd	s4,16(sp)
   1e6ac:	02113c23          	sd	ra,56(sp)
   1e6b0:	02813823          	sd	s0,48(sp)
   1e6b4:	03213023          	sd	s2,32(sp)
   1e6b8:	01513423          	sd	s5,8(sp)
   1e6bc:	01613023          	sd	s6,0(sp)
   1e6c0:	00050493          	mv	s1,a0
   1e6c4:	8cdf40ef          	jal	ra,12f90 <strchr@plt>
   1e6c8:	d681b683          	ld	a3,-664(gp)
   1e6cc:	00050a13          	mv	s4,a0
   1e6d0:	0406a783          	lw	a5,64(a3)
   1e6d4:	0017879b          	addiw	a5,a5,1
   1e6d8:	04f6a023          	sw	a5,64(a3)
   1e6dc:	d301b683          	ld	a3,-720(gp)
   1e6e0:	00070b13          	mv	s6,a4
   1e6e4:	d3018a93          	addi	s5,gp,-720
   1e6e8:	0086b403          	ld	s0,8(a3)
   1e6ec:	04041c63          	bnez	s0,1e744 <sigprocmask@plt+0xb6e4>
   1e6f0:	02000513          	li	a0,32
   1e6f4:	e79f50ef          	jal	ra,1456c <sigprocmask@plt+0x150c>
   1e6f8:	0004c703          	lbu	a4,0(s1)
   1e6fc:	02d00793          	li	a5,45
   1e700:	00050913          	mv	s2,a0
   1e704:	08f71c63          	bne	a4,a5,1e79c <sigprocmask@plt+0xb73c>
   1e708:	0014c783          	lbu	a5,1(s1)
   1e70c:	08079863          	bnez	a5,1e79c <sigprocmask@plt+0xb73c>
   1e710:	00f00513          	li	a0,15
   1e714:	df9f50ef          	jal	ra,1450c <sigprocmask@plt+0x14ac>
   1e718:	d681b583          	ld	a1,-664(gp)
   1e71c:	00f00613          	li	a2,15
   1e720:	05558593          	addi	a1,a1,85
   1e724:	aecf40ef          	jal	ra,12a10 <memcpy@plt>
   1e728:	00a93c23          	sd	a0,24(s2)
   1e72c:	000ab783          	ld	a5,0(s5)
   1e730:	00893423          	sd	s0,8(s2)
   1e734:	0087b703          	ld	a4,8(a5)
   1e738:	00e93023          	sd	a4,0(s2)
   1e73c:	0127b423          	sd	s2,8(a5)
   1e740:	02c0006f          	j	1e76c <sigprocmask@plt+0xb70c>
   1e744:	00843783          	ld	a5,8(s0)
   1e748:	04078663          	beqz	a5,1e794 <sigprocmask@plt+0xb734>
   1e74c:	0107b503          	ld	a0,16(a5)
   1e750:	00048593          	mv	a1,s1
   1e754:	e78f60ef          	jal	ra,14dcc <sigprocmask@plt+0x1d6c>
   1e758:	02051e63          	bnez	a0,1e794 <sigprocmask@plt+0xb734>
   1e75c:	000a0863          	beqz	s4,1e76c <sigprocmask@plt+0xb70c>
   1e760:	00000593          	li	a1,0
   1e764:	00048513          	mv	a0,s1
   1e768:	df4fc0ef          	jal	ra,1ad5c <sigprocmask@plt+0x7cfc>
   1e76c:	03013403          	ld	s0,48(sp)
   1e770:	03813083          	ld	ra,56(sp)
   1e774:	02813483          	ld	s1,40(sp)
   1e778:	02013903          	ld	s2,32(sp)
   1e77c:	01813983          	ld	s3,24(sp)
   1e780:	01013a03          	ld	s4,16(sp)
   1e784:	00813a83          	ld	s5,8(sp)
   1e788:	00013b03          	ld	s6,0(sp)
   1e78c:	04010113          	addi	sp,sp,64
   1e790:	978f706f          	j	15908 <sigprocmask@plt+0x28a8>
   1e794:	00043403          	ld	s0,0(s0)
   1e798:	f55ff06f          	j	1e6ec <sigprocmask@plt+0xb68c>
   1e79c:	00048513          	mv	a0,s1
   1e7a0:	e70f60ef          	jal	ra,14e10 <sigprocmask@plt+0x1db0>
   1e7a4:	00048593          	mv	a1,s1
   1e7a8:	eb8f60ef          	jal	ra,14e60 <sigprocmask@plt+0x1e00>
   1e7ac:	00053403          	ld	s0,0(a0)
   1e7b0:	02041c63          	bnez	s0,1e7e8 <sigprocmask@plt+0xb788>
   1e7b4:	0049e593          	ori	a1,s3,4
   1e7b8:	000a0e63          	beqz	s4,1e7d4 <sigprocmask@plt+0xb774>
   1e7bc:	00048513          	mv	a0,s1
   1e7c0:	d9cfc0ef          	jal	ra,1ad5c <sigprocmask@plt+0x7cfc>
   1e7c4:	02000793          	li	a5,32
   1e7c8:	00050413          	mv	s0,a0
   1e7cc:	00f92823          	sw	a5,16(s2)
   1e7d0:	f5dff06f          	j	1e72c <sigprocmask@plt+0xb6cc>
   1e7d4:	00058613          	mv	a2,a1
   1e7d8:	00048513          	mv	a0,s1
   1e7dc:	00000593          	li	a1,0
   1e7e0:	f18fc0ef          	jal	ra,1aef8 <sigprocmask@plt+0x7e98>
   1e7e4:	fe1ff06f          	j	1e7c4 <sigprocmask@plt+0xb764>
   1e7e8:	01043783          	ld	a5,16(s0)
   1e7ec:	00f93c23          	sd	a5,24(s2)
   1e7f0:	00842783          	lw	a5,8(s0)
   1e7f4:	00f92823          	sw	a5,16(s2)
   1e7f8:	00c7e793          	ori	a5,a5,12
   1e7fc:	00f42423          	sw	a5,8(s0)
   1e800:	000a0a63          	beqz	s4,1e814 <sigprocmask@plt+0xb7b4>
   1e804:	00098593          	mv	a1,s3
   1e808:	00048513          	mv	a0,s1
   1e80c:	d50fc0ef          	jal	ra,1ad5c <sigprocmask@plt+0x7cfc>
   1e810:	f1dff06f          	j	1e72c <sigprocmask@plt+0xb6cc>
   1e814:	00000593          	li	a1,0
   1e818:	00048513          	mv	a0,s1
   1e81c:	e6dfc0ef          	jal	ra,1b688 <sigprocmask@plt+0x8628>
   1e820:	f0dff06f          	j	1e72c <sigprocmask@plt+0xb6cc>
   1e824:	d301b783          	ld	a5,-720(gp)
   1e828:	ff010113          	addi	sp,sp,-16
   1e82c:	00113423          	sd	ra,8(sp)
   1e830:	00813023          	sd	s0,0(sp)
   1e834:	00079863          	bnez	a5,1e844 <sigprocmask@plt+0xb7e4>
   1e838:	00024537          	lui	a0,0x24
   1e83c:	13050513          	addi	a0,a0,304 # 24130 <sigprocmask@plt+0x110d0>
   1e840:	a25f70ef          	jal	ra,16264 <sigprocmask@plt+0x3204>
   1e844:	cb81b403          	ld	s0,-840(gp)
   1e848:	00043503          	ld	a0,0(s0)
   1e84c:	00051a63          	bnez	a0,1e860 <sigprocmask@plt+0xb800>
   1e850:	00813083          	ld	ra,8(sp)
   1e854:	00013403          	ld	s0,0(sp)
   1e858:	01010113          	addi	sp,sp,16
   1e85c:	00008067          	ret
   1e860:	00000593          	li	a1,0
   1e864:	00840413          	addi	s0,s0,8
   1e868:	e2dff0ef          	jal	ra,1e694 <sigprocmask@plt+0xb634>
   1e86c:	fddff06f          	j	1e848 <sigprocmask@plt+0xb7e8>
   1e870:	ee010113          	addi	sp,sp,-288
   1e874:	40000513          	li	a0,1024
   1e878:	10113c23          	sd	ra,280(sp)
   1e87c:	10813823          	sd	s0,272(sp)
   1e880:	10913423          	sd	s1,264(sp)
   1e884:	c89f50ef          	jal	ra,1450c <sigprocmask@plt+0x14ac>
   1e888:	e2018793          	addi	a5,gp,-480
   1e88c:	00100713          	li	a4,1
   1e890:	02a7b023          	sd	a0,32(a5)
   1e894:	00a7bc23          	sd	a0,24(a5)
   1e898:	00e7a423          	sw	a4,8(a5)
   1e89c:	d681b783          	ld	a5,-664(gp)
   1e8a0:	01100513          	li	a0,17
   1e8a4:	06e78a23          	sb	a4,116(a5)
   1e8a8:	db5f60ef          	jal	ra,1565c <sigprocmask@plt+0x25fc>
   1e8ac:	d701b783          	ld	a5,-656(gp)
   1e8b0:	00024737          	lui	a4,0x24
   1e8b4:	14870713          	addi	a4,a4,328 # 24148 <sigprocmask@plt+0x110e8>
   1e8b8:	1ae7b423          	sd	a4,424(a5)
   1e8bc:	15878413          	addi	s0,a5,344
   1e8c0:	23878493          	addi	s1,a5,568
   1e8c4:	01043503          	ld	a0,16(s0)
   1e8c8:	d48f60ef          	jal	ra,14e10 <sigprocmask@plt+0x1db0>
   1e8cc:	00053783          	ld	a5,0(a0)
   1e8d0:	00f43023          	sd	a5,0(s0)
   1e8d4:	00853023          	sd	s0,0(a0)
   1e8d8:	02040413          	addi	s0,s0,32
   1e8dc:	fe8494e3          	bne	s1,s0,1e8c4 <sigprocmask@plt+0xb864>
   1e8e0:	dc81b403          	ld	s0,-568(gp)
   1e8e4:	00040663          	beqz	s0,1e8f0 <sigprocmask@plt+0xb890>
   1e8e8:	00043483          	ld	s1,0(s0)
   1e8ec:	0a049a63          	bnez	s1,1e9a0 <sigprocmask@plt+0xb940>
   1e8f0:	00800593          	li	a1,8
   1e8f4:	c5518513          	addi	a0,gp,-939
   1e8f8:	c64fc0ef          	jal	ra,1ad5c <sigprocmask@plt+0x7cfc>
   1e8fc:	00025537          	lui	a0,0x25
   1e900:	00800593          	li	a1,8
   1e904:	09550513          	addi	a0,a0,149 # 25095 <sigprocmask@plt+0x12035>
   1e908:	c54fc0ef          	jal	ra,1ad5c <sigprocmask@plt+0x7cfc>
   1e90c:	c94f40ef          	jal	ra,12da0 <getppid@plt>
   1e910:	0005051b          	sext.w	a0,a0
   1e914:	8e9f50ef          	jal	ra,141fc <sigprocmask@plt+0x119c>
   1e918:	00050593          	mv	a1,a0
   1e91c:	00024537          	lui	a0,0x24
   1e920:	15850513          	addi	a0,a0,344 # 24158 <sigprocmask@plt+0x110f8>
   1e924:	d65fc0ef          	jal	ra,1b688 <sigprocmask@plt+0x8628>
   1e928:	00024537          	lui	a0,0x24
   1e92c:	f6050513          	addi	a0,a0,-160 # 23f60 <sigprocmask@plt+0x10f00>
   1e930:	b74f70ef          	jal	ra,15ca4 <sigprocmask@plt+0x2c44>
   1e934:	00050413          	mv	s0,a0
   1e938:	04050663          	beqz	a0,1e984 <sigprocmask@plt+0xb924>
   1e93c:	00054703          	lbu	a4,0(a0)
   1e940:	02f00793          	li	a5,47
   1e944:	02f71e63          	bne	a4,a5,1e980 <sigprocmask@plt+0xb920>
   1e948:	00010593          	mv	a1,sp
   1e94c:	d74f40ef          	jal	ra,12ec0 <stat@plt>
   1e950:	02051863          	bnez	a0,1e980 <sigprocmask@plt+0xb920>
   1e954:	00024537          	lui	a0,0x24
   1e958:	08010593          	addi	a1,sp,128
   1e95c:	f6850513          	addi	a0,a0,-152 # 23f68 <sigprocmask@plt+0x10f08>
   1e960:	d60f40ef          	jal	ra,12ec0 <stat@plt>
   1e964:	00051e63          	bnez	a0,1e980 <sigprocmask@plt+0xb920>
   1e968:	00013703          	ld	a4,0(sp)
   1e96c:	08013783          	ld	a5,128(sp)
   1e970:	00f71863          	bne	a4,a5,1e980 <sigprocmask@plt+0xb920>
   1e974:	00813703          	ld	a4,8(sp)
   1e978:	08813783          	ld	a5,136(sp)
   1e97c:	00f70463          	beq	a4,a5,1e984 <sigprocmask@plt+0xb924>
   1e980:	00000413          	li	s0,0
   1e984:	00040513          	mv	a0,s0
   1e988:	11013403          	ld	s0,272(sp)
   1e98c:	11813083          	ld	ra,280(sp)
   1e990:	10813483          	ld	s1,264(sp)
   1e994:	00000593          	li	a1,0
   1e998:	12010113          	addi	sp,sp,288
   1e99c:	e5cfc06f          	j	1aff8 <sigprocmask@plt+0x7f98>
   1e9a0:	03d00593          	li	a1,61
   1e9a4:	00048513          	mv	a0,s1
   1e9a8:	de8f40ef          	jal	ra,12f90 <strchr@plt>
   1e9ac:	00050863          	beqz	a0,1e9bc <sigprocmask@plt+0xb95c>
   1e9b0:	00900593          	li	a1,9
   1e9b4:	00048513          	mv	a0,s1
   1e9b8:	ba4fc0ef          	jal	ra,1ad5c <sigprocmask@plt+0x7cfc>
   1e9bc:	00840413          	addi	s0,s0,8
   1e9c0:	f25ff06f          	j	1e8e4 <sigprocmask@plt+0xb884>
   1e9c4:	f1010113          	addi	sp,sp,-240
   1e9c8:	0d313423          	sd	s3,200(sp)
   1e9cc:	00452783          	lw	a5,4(a0)
   1e9d0:	d701b983          	ld	s3,-656(gp)
   1e9d4:	0e813023          	sd	s0,224(sp)
   1e9d8:	d681b403          	ld	s0,-664(gp)
   1e9dc:	0c913c23          	sd	s1,216(sp)
   1e9e0:	0e113423          	sd	ra,232(sp)
   1e9e4:	0d213823          	sd	s2,208(sp)
   1e9e8:	0d413023          	sd	s4,192(sp)
   1e9ec:	0b513c23          	sd	s5,184(sp)
   1e9f0:	0b613823          	sd	s6,176(sp)
   1e9f4:	0b713423          	sd	s7,168(sp)
   1e9f8:	0b813023          	sd	s8,160(sp)
   1e9fc:	09913c23          	sd	s9,152(sp)
   1ea00:	09a13823          	sd	s10,144(sp)
   1ea04:	09b13423          	sd	s11,136(sp)
   1ea08:	d941a703          	lw	a4,-620(gp)
   1ea0c:	22f9ac23          	sw	a5,568(s3)
   1ea10:	d9418693          	addi	a3,gp,-620
   1ea14:	00b13823          	sd	a1,16(sp)
   1ea18:	00f42a23          	sw	a5,20(s0)
   1ea1c:	02c13823          	sd	a2,48(sp)
   1ea20:	02d13423          	sd	a3,40(sp)
   1ea24:	00050493          	mv	s1,a0
   1ea28:	00070863          	beqz	a4,1ea38 <sigprocmask@plt+0xb9d8>
   1ea2c:	fff7071b          	addiw	a4,a4,-1
   1ea30:	40e787bb          	subw	a5,a5,a4
   1ea34:	22f9ac23          	sw	a5,568(s3)
   1ea38:	c781b783          	ld	a5,-904(gp)
   1ea3c:	000400a3          	sb	zero,1(s0)
   1ea40:	0104bb03          	ld	s6,16(s1)
   1ea44:	02f13023          	sd	a5,32(sp)
   1ea48:	00200793          	li	a5,2
   1ea4c:	06f12823          	sw	a5,112(sp)
   1ea50:	000247b7          	lui	a5,0x24
   1ea54:	65078793          	addi	a5,a5,1616 # 24650 <sigprocmask@plt+0x115f0>
   1ea58:	06f13c23          	sd	a5,120(sp)
   1ea5c:	06010d93          	addi	s11,sp,96
   1ea60:	05010793          	addi	a5,sp,80
   1ea64:	07b13423          	sd	s11,104(sp)
   1ea68:	06013023          	sd	zero,96(sp)
   1ea6c:	04f13c23          	sd	a5,88(sp)
   1ea70:	04013823          	sd	zero,80(sp)
   1ea74:	020b0063          	beqz	s6,1ea94 <sigprocmask@plt+0xba34>
   1ea78:	000b0513          	mv	a0,s6
   1ea7c:	00300613          	li	a2,3
   1ea80:	05010593          	addi	a1,sp,80
   1ea84:	e54fd0ef          	jal	ra,1c0d8 <sigprocmask@plt+0x9078>
   1ea88:	05013783          	ld	a5,80(sp)
   1ea8c:	008b3b03          	ld	s6,8(s6)
   1ea90:	fe0782e3          	beqz	a5,1ea74 <sigprocmask@plt+0xba14>
   1ea94:	05013783          	ld	a5,80(sp)
   1ea98:	18078263          	beqz	a5,1ec1c <sigprocmask@plt+0xbbbc>
   1ea9c:	1889b683          	ld	a3,392(s3)
   1eaa0:	0087b503          	ld	a0,8(a5)
   1eaa4:	01000613          	li	a2,16
   1eaa8:	00568693          	addi	a3,a3,5
   1eaac:	07010593          	addi	a1,sp,112
   1eab0:	b41fe0ef          	jal	ra,1d5f0 <sigprocmask@plt+0xa590>
   1eab4:	07012703          	lw	a4,112(sp)
   1eab8:	00200793          	li	a5,2
   1eabc:	14f71063          	bne	a4,a5,1ebfc <sigprocmask@plt+0xbb9c>
   1eac0:	07813903          	ld	s2,120(sp)
   1eac4:	00093783          	ld	a5,0(s2)
   1eac8:	0007cc03          	lbu	s8,0(a5)
   1eacc:	000247b7          	lui	a5,0x24
   1ead0:	50078793          	addi	a5,a5,1280 # 24500 <sigprocmask@plt+0x114a0>
   1ead4:	004c7a13          	andi	s4,s8,4
   1ead8:	001c7b93          	andi	s7,s8,1
   1eadc:	40f90933          	sub	s2,s2,a5
   1eae0:	fffc4c13          	not	s8,s8
   1eae4:	001c7c13          	andi	s8,s8,1
   1eae8:	00193913          	seqz	s2,s2
   1eaec:	03d00a93          	li	s5,61
   1eaf0:	0380006f          	j	1eb28 <sigprocmask@plt+0xbac8>
   1eaf4:	020a0063          	beqz	s4,1eb14 <sigprocmask@plt+0xbab4>
   1eaf8:	010b3c83          	ld	s9,16(s6)
   1eafc:	000c8513          	mv	a0,s9
   1eb00:	1a4010ef          	jal	ra,1fca4 <sigprocmask@plt+0xcc44>
   1eb04:	00ac8863          	beq	s9,a0,1eb14 <sigprocmask@plt+0xbab4>
   1eb08:	00054783          	lbu	a5,0(a0)
   1eb0c:	00400613          	li	a2,4
   1eb10:	01578463          	beq	a5,s5,1eb18 <sigprocmask@plt+0xbab8>
   1eb14:	00300613          	li	a2,3
   1eb18:	000b0513          	mv	a0,s6
   1eb1c:	05010593          	addi	a1,sp,80
   1eb20:	db8fd0ef          	jal	ra,1c0d8 <sigprocmask@plt+0x9078>
   1eb24:	008b3b03          	ld	s6,8(s6)
   1eb28:	fc0b16e3          	bnez	s6,1eaf4 <sigprocmask@plt+0xba94>
   1eb2c:	05013783          	ld	a5,80(sp)
   1eb30:	00000a93          	li	s5,0
   1eb34:	0c079e63          	bnez	a5,1ec10 <sigprocmask@plt+0xbbb0>
   1eb38:	00000c93          	li	s9,0
   1eb3c:	00090663          	beqz	s2,1eb48 <sigprocmask@plt+0xbae8>
   1eb40:	00100c93          	li	s9,1
   1eb44:	015cacb3          	slt	s9,s9,s5
   1eb48:	d3018a13          	addi	s4,gp,-720
   1eb4c:	000a3783          	ld	a5,0(s4)
   1eb50:	00f13c23          	sd	a5,24(sp)
   1eb54:	020c0463          	beqz	s8,1eb7c <sigprocmask@plt+0xbb1c>
   1eb58:	04042783          	lw	a5,64(s0)
   1eb5c:	0017879b          	addiw	a5,a5,1
   1eb60:	04f42023          	sw	a5,64(s0)
   1eb64:	01000513          	li	a0,16
   1eb68:	a05f50ef          	jal	ra,1456c <sigprocmask@plt+0x150c>
   1eb6c:	01813783          	ld	a5,24(sp)
   1eb70:	00aa3023          	sd	a0,0(s4)
   1eb74:	00f53023          	sd	a5,0(a0)
   1eb78:	d91f60ef          	jal	ra,15908 <sigprocmask@plt+0x28a8>
   1eb7c:	002a851b          	addiw	a0,s5,2
   1eb80:	00351513          	slli	a0,a0,0x3
   1eb84:	b85f70ef          	jal	ra,16708 <sigprocmask@plt+0x36a8>
   1eb88:	05013b03          	ld	s6,80(sp)
   1eb8c:	00850d13          	addi	s10,a0,8
   1eb90:	00a13423          	sd	a0,8(sp)
   1eb94:	000d0793          	mv	a5,s10
   1eb98:	080b1e63          	bnez	s6,1ec34 <sigprocmask@plt+0xbbd4>
   1eb9c:	0007b023          	sd	zero,0(a5)
   1eba0:	05844703          	lbu	a4,88(s0)
   1eba4:	00070c63          	beqz	a4,1ebbc <sigprocmask@plt+0xbb5c>
   1eba8:	02813703          	ld	a4,40(sp)
   1ebac:	00072703          	lw	a4,0(a4)
   1ebb0:	00071663          	bnez	a4,1ebbc <sigprocmask@plt+0xbb5c>
   1ebb4:	000a8463          	beqz	s5,1ebbc <sigprocmask@plt+0xbb5c>
   1ebb8:	ff87bb03          	ld	s6,-8(a5)
   1ebbc:	0184b503          	ld	a0,24(s1)
   1ebc0:	ee5fd0ef          	jal	ra,1caa4 <sigprocmask@plt+0x9a44>
   1ebc4:	0184b503          	ld	a0,24(s1)
   1ebc8:	c64f60ef          	jal	ra,1502c <sigprocmask@plt+0x1fcc>
   1ebcc:	02a13423          	sd	a0,40(sp)
   1ebd0:	0184b503          	ld	a0,24(s1)
   1ebd4:	00200793          	li	a5,2
   1ebd8:	00f9ac23          	sw	a5,24(s3)
   1ebdc:	e0dfd0ef          	jal	ra,1c9e8 <sigprocmask@plt+0x9988>
   1ebe0:	00050a13          	mv	s4,a0
   1ebe4:	06050263          	beqz	a0,1ec48 <sigprocmask@plt+0xbbe8>
   1ebe8:	01440023          	sb	s4,0(s0)
   1ebec:	00100793          	li	a5,1
   1ebf0:	2cfb9c63          	bne	s7,a5,1eec8 <sigprocmask@plt+0xbe68>
   1ebf4:	00100513          	li	a0,1
   1ebf8:	d54f60ef          	jal	ra,1514c <sigprocmask@plt+0x20ec>
   1ebfc:	00000a13          	li	s4,0
   1ec00:	00100c13          	li	s8,1
   1ec04:	00000913          	li	s2,0
   1ec08:	fff00b93          	li	s7,-1
   1ec0c:	ee1ff06f          	j	1eaec <sigprocmask@plt+0xba8c>
   1ec10:	0007b783          	ld	a5,0(a5)
   1ec14:	001a8a9b          	addiw	s5,s5,1
   1ec18:	f1dff06f          	j	1eb34 <sigprocmask@plt+0xbad4>
   1ec1c:	00000c13          	li	s8,0
   1ec20:	00000c93          	li	s9,0
   1ec24:	00000913          	li	s2,0
   1ec28:	fff00b93          	li	s7,-1
   1ec2c:	00000a93          	li	s5,0
   1ec30:	f19ff06f          	j	1eb48 <sigprocmask@plt+0xbae8>
   1ec34:	008b3703          	ld	a4,8(s6)
   1ec38:	00878793          	addi	a5,a5,8
   1ec3c:	000b3b03          	ld	s6,0(s6)
   1ec40:	fee7bc23          	sd	a4,-8(a5)
   1ec44:	f55ff06f          	j	1eb98 <sigprocmask@plt+0xbb38>
   1ec48:	0084ba03          	ld	s4,8(s1)
   1ec4c:	120a1663          	bnez	s4,1ed78 <sigprocmask@plt+0xbd18>
   1ec50:	05d44783          	lbu	a5,93(s0)
   1ec54:	06078663          	beqz	a5,1ecc0 <sigprocmask@plt+0xbc60>
   1ec58:	1e89b503          	ld	a0,488(s3)
   1ec5c:	0189ac03          	lw	s8,24(s3)
   1ec60:	00024cb7          	lui	s9,0x24
   1ec64:	00450513          	addi	a0,a0,4
   1ec68:	e78ff0ef          	jal	ra,1e2e0 <sigprocmask@plt+0xb280>
   1ec6c:	000245b7          	lui	a1,0x24
   1ec70:	00050613          	mv	a2,a0
   1ec74:	c5058593          	addi	a1,a1,-944 # 23c50 <sigprocmask@plt+0x10bf0>
   1ec78:	000c0513          	mv	a0,s8
   1ec7c:	f85f30ef          	jal	ra,12c00 <dprintf@plt>
   1ec80:	06013d83          	ld	s11,96(sp)
   1ec84:	00024c37          	lui	s8,0x24
   1ec88:	d50c0c13          	addi	s8,s8,-688 # 23d50 <sigprocmask@plt+0x10cf0>
   1ec8c:	c00c8c93          	addi	s9,s9,-1024 # 23c00 <sigprocmask@plt+0x10ba0>
   1ec90:	120d9863          	bnez	s11,1edc0 <sigprocmask@plt+0xbd60>
   1ec94:	000247b7          	lui	a5,0x24
   1ec98:	05013c83          	ld	s9,80(sp)
   1ec9c:	c0078793          	addi	a5,a5,-1024 # 23c00 <sigprocmask@plt+0x10ba0>
   1eca0:	02f13c23          	sd	a5,56(sp)
   1eca4:	0189ad83          	lw	s11,24(s3)
   1eca8:	180c9663          	bnez	s9,1ee34 <sigprocmask@plt+0xbdd4>
   1ecac:	000245b7          	lui	a1,0x24
   1ecb0:	00100613          	li	a2,1
   1ecb4:	bd858593          	addi	a1,a1,-1064 # 23bd8 <sigprocmask@plt+0x10b78>
   1ecb8:	000d8513          	mv	a0,s11
   1ecbc:	bd9f50ef          	jal	ra,14894 <sigprocmask@plt+0x1834>
   1ecc0:	07012703          	lw	a4,112(sp)
   1ecc4:	00200793          	li	a5,2
   1ecc8:	00f71c63          	bne	a4,a5,1ece0 <sigprocmask@plt+0xbc80>
   1eccc:	07813783          	ld	a5,120(sp)
   1ecd0:	0007b783          	ld	a5,0(a5)
   1ecd4:	0007c783          	lbu	a5,0(a5)
   1ecd8:	0027f793          	andi	a5,a5,2
   1ecdc:	1a079463          	bnez	a5,1ee84 <sigprocmask@plt+0xbe24>
   1ece0:	00813783          	ld	a5,8(sp)
   1ece4:	1889b983          	ld	s3,392(s3)
   1ece8:	00100613          	li	a2,1
   1ecec:	0087b503          	ld	a0,8(a5)
   1ecf0:	00598993          	addi	s3,s3,5
   1ecf4:	00098693          	mv	a3,s3
   1ecf8:	07010593          	addi	a1,sp,112
   1ecfc:	8f5fe0ef          	jal	ra,1d5f0 <sigprocmask@plt+0xa590>
   1ed00:	07012783          	lw	a5,112(sp)
   1ed04:	00200713          	li	a4,2
   1ed08:	16e78e63          	beq	a5,a4,1ee84 <sigprocmask@plt+0xbe24>
   1ed0c:	00f74a63          	blt	a4,a5,1ed20 <sigprocmask@plt+0xbcc0>
   1ed10:	fff00713          	li	a4,-1
   1ed14:	16e78263          	beq	a5,a4,1ee78 <sigprocmask@plt+0xbe18>
   1ed18:	00100713          	li	a4,1
   1ed1c:	1ce78463          	beq	a5,a4,1eee4 <sigprocmask@plt+0xbe84>
   1ed20:	01013783          	ld	a5,16(sp)
   1ed24:	0017fb93          	andi	s7,a5,1
   1ed28:	000b8663          	beqz	s7,1ed34 <sigprocmask@plt+0xbcd4>
   1ed2c:	0e444783          	lbu	a5,228(s0)
   1ed30:	02078863          	beqz	a5,1ed60 <sigprocmask@plt+0xbd00>
   1ed34:	04042783          	lw	a5,64(s0)
   1ed38:	0017879b          	addiw	a5,a5,1
   1ed3c:	04f42023          	sw	a5,64(s0)
   1ed40:	00100513          	li	a0,1
   1ed44:	931fb0ef          	jal	ra,1a674 <sigprocmask@plt+0x7614>
   1ed48:	00000613          	li	a2,0
   1ed4c:	00048593          	mv	a1,s1
   1ed50:	00050a13          	mv	s4,a0
   1ed54:	ce9fb0ef          	jal	ra,1aa3c <sigprocmask@plt+0x79dc>
   1ed58:	16051063          	bnez	a0,1eeb8 <sigprocmask@plt+0xbe58>
   1ed5c:	b89f60ef          	jal	ra,158e4 <sigprocmask@plt+0x2884>
   1ed60:	00813783          	ld	a5,8(sp)
   1ed64:	07812683          	lw	a3,120(sp)
   1ed68:	00098613          	mv	a2,s3
   1ed6c:	0087b503          	ld	a0,8(a5)
   1ed70:	000d0593          	mv	a1,s10
   1ed74:	dedfb0ef          	jal	ra,1ab60 <sigprocmask@plt+0x7b00>
   1ed78:	06813783          	ld	a5,104(sp)
   1ed7c:	00400613          	li	a2,4
   1ed80:	000d8593          	mv	a1,s11
   1ed84:	000a0513          	mv	a0,s4
   1ed88:	02f13c23          	sd	a5,56(sp)
   1ed8c:	b4cfd0ef          	jal	ra,1c0d8 <sigprocmask@plt+0x9078>
   1ed90:	03813783          	ld	a5,56(sp)
   1ed94:	0007b783          	ld	a5,0(a5)
   1ed98:	000c0c63          	beqz	s8,1edb0 <sigprocmask@plt+0xbd50>
   1ed9c:	0087b503          	ld	a0,8(a5)
   1eda0:	00100593          	li	a1,1
   1eda4:	8f1ff0ef          	jal	ra,1e694 <sigprocmask@plt+0xb634>
   1eda8:	008a3a03          	ld	s4,8(s4)
   1edac:	ea1ff06f          	j	1ec4c <sigprocmask@plt+0xbbec>
   1edb0:	0087b503          	ld	a0,8(a5)
   1edb4:	000c8593          	mv	a1,s9
   1edb8:	fa5fb0ef          	jal	ra,1ad5c <sigprocmask@plt+0x7cfc>
   1edbc:	fedff06f          	j	1eda8 <sigprocmask@plt+0xbd48>
   1edc0:	008db703          	ld	a4,8(s11)
   1edc4:	03d00593          	li	a1,61
   1edc8:	00070513          	mv	a0,a4
   1edcc:	02e13c23          	sd	a4,56(sp)
   1edd0:	9f0f40ef          	jal	ra,12fc0 <strchrnul@plt>
   1edd4:	00054783          	lbu	a5,0(a0)
   1edd8:	03813703          	ld	a4,56(sp)
   1eddc:	00050693          	mv	a3,a0
   1ede0:	00078463          	beqz	a5,1ede8 <sigprocmask@plt+0xbd88>
   1ede4:	00150693          	addi	a3,a0,1
   1ede8:	0189a883          	lw	a7,24(s3)
   1edec:	00068513          	mv	a0,a3
   1edf0:	04e13423          	sd	a4,72(sp)
   1edf4:	05113023          	sd	a7,64(sp)
   1edf8:	02d13c23          	sd	a3,56(sp)
   1edfc:	e19f70ef          	jal	ra,16c14 <sigprocmask@plt+0x3bb4>
   1ee00:	04813703          	ld	a4,72(sp)
   1ee04:	03813683          	ld	a3,56(sp)
   1ee08:	04013883          	ld	a7,64(sp)
   1ee0c:	000245b7          	lui	a1,0x24
   1ee10:	00050793          	mv	a5,a0
   1ee14:	000c0613          	mv	a2,s8
   1ee18:	40e686bb          	subw	a3,a3,a4
   1ee1c:	16058593          	addi	a1,a1,352 # 24160 <sigprocmask@plt+0x11100>
   1ee20:	00088513          	mv	a0,a7
   1ee24:	dddf30ef          	jal	ra,12c00 <dprintf@plt>
   1ee28:	000c8c13          	mv	s8,s9
   1ee2c:	000dbd83          	ld	s11,0(s11)
   1ee30:	e61ff06f          	j	1ec90 <sigprocmask@plt+0xbc30>
   1ee34:	008cb503          	ld	a0,8(s9)
   1ee38:	e14f60ef          	jal	ra,1544c <sigprocmask@plt+0x23ec>
   1ee3c:	00050793          	mv	a5,a0
   1ee40:	008cb503          	ld	a0,8(s9)
   1ee44:	02078663          	beqz	a5,1ee70 <sigprocmask@plt+0xbe10>
   1ee48:	cc9f70ef          	jal	ra,16b10 <sigprocmask@plt+0x3ab0>
   1ee4c:	000247b7          	lui	a5,0x24
   1ee50:	00050693          	mv	a3,a0
   1ee54:	000c0613          	mv	a2,s8
   1ee58:	17078593          	addi	a1,a5,368 # 24170 <sigprocmask@plt+0x11110>
   1ee5c:	000d8513          	mv	a0,s11
   1ee60:	da1f30ef          	jal	ra,12c00 <dprintf@plt>
   1ee64:	000cbc83          	ld	s9,0(s9)
   1ee68:	03813c03          	ld	s8,56(sp)
   1ee6c:	e39ff06f          	j	1eca4 <sigprocmask@plt+0xbc44>
   1ee70:	da5f70ef          	jal	ra,16c14 <sigprocmask@plt+0x3bb4>
   1ee74:	fd9ff06f          	j	1ee4c <sigprocmask@plt+0xbdec>
   1ee78:	c4df60ef          	jal	ra,15ac4 <sigprocmask@plt+0x2a64>
   1ee7c:	07f00a13          	li	s4,127
   1ee80:	d69ff06f          	j	1ebe8 <sigprocmask@plt+0xbb88>
   1ee84:	01013683          	ld	a3,16(sp)
   1ee88:	07813503          	ld	a0,120(sp)
   1ee8c:	000d0613          	mv	a2,s10
   1ee90:	000a8593          	mv	a1,s5
   1ee94:	cc0fe0ef          	jal	ra,1d354 <sigprocmask@plt+0xa2f4>
   1ee98:	02050063          	beqz	a0,1eeb8 <sigprocmask@plt+0xbe58>
   1ee9c:	05042783          	lw	a5,80(s0)
   1eea0:	00100713          	li	a4,1
   1eea4:	00e78863          	beq	a5,a4,1eeb4 <sigprocmask@plt+0xbe54>
   1eea8:	03843503          	ld	a0,56(s0)
   1eeac:	00100593          	li	a1,1
   1eeb0:	9d1f30ef          	jal	ra,12880 <longjmp@plt>
   1eeb4:	fefb8ae3          	beq	s7,a5,1eea8 <sigprocmask@plt+0xbe48>
   1eeb8:	000a0513          	mv	a0,s4
   1eebc:	95dfb0ef          	jal	ra,1a818 <sigprocmask@plt+0x77b8>
   1eec0:	00050a13          	mv	s4,a0
   1eec4:	a21f60ef          	jal	ra,158e4 <sigprocmask@plt+0x2884>
   1eec8:	0184b783          	ld	a5,24(s1)
   1eecc:	00078663          	beqz	a5,1eed8 <sigprocmask@plt+0xbe78>
   1eed0:	00090513          	mv	a0,s2
   1eed4:	910f90ef          	jal	ra,17fe4 <sigprocmask@plt+0x4f84>
   1eed8:	03013783          	ld	a5,48(sp)
   1eedc:	d701b403          	ld	s0,-656(gp)
   1eee0:	0280006f          	j	1ef08 <sigprocmask@plt+0xbea8>
   1eee4:	01013683          	ld	a3,16(sp)
   1eee8:	07813503          	ld	a0,120(sp)
   1eeec:	000d0613          	mv	a2,s10
   1eef0:	000a8593          	mv	a1,s5
   1eef4:	884fe0ef          	jal	ra,1cf78 <sigprocmask@plt+0x9f18>
   1eef8:	fa0518e3          	bnez	a0,1eea8 <sigprocmask@plt+0xbe48>
   1eefc:	fbdff06f          	j	1eeb8 <sigprocmask@plt+0xbe58>
   1ef00:	00000513          	li	a0,0
   1ef04:	8e0f90ef          	jal	ra,17fe4 <sigprocmask@plt+0x4f84>
   1ef08:	01043783          	ld	a5,16(s0)
   1ef0c:	02813703          	ld	a4,40(sp)
   1ef10:	fef718e3          	bne	a4,a5,1ef00 <sigprocmask@plt+0xbea0>
   1ef14:	02013503          	ld	a0,32(sp)
   1ef18:	ce5f60ef          	jal	ra,15bfc <sigprocmask@plt+0x2b9c>
   1ef1c:	01813503          	ld	a0,24(sp)
   1ef20:	e24ff0ef          	jal	ra,1e544 <sigprocmask@plt+0xb4e4>
   1ef24:	000b0a63          	beqz	s6,1ef38 <sigprocmask@plt+0xbed8>
   1ef28:	00024537          	lui	a0,0x24
   1ef2c:	000b0593          	mv	a1,s6
   1ef30:	17850513          	addi	a0,a0,376 # 24178 <sigprocmask@plt+0x11118>
   1ef34:	f54fc0ef          	jal	ra,1b688 <sigprocmask@plt+0x8628>
   1ef38:	0e813083          	ld	ra,232(sp)
   1ef3c:	0e013403          	ld	s0,224(sp)
   1ef40:	0d813483          	ld	s1,216(sp)
   1ef44:	0d013903          	ld	s2,208(sp)
   1ef48:	0c813983          	ld	s3,200(sp)
   1ef4c:	0b813a83          	ld	s5,184(sp)
   1ef50:	0b013b03          	ld	s6,176(sp)
   1ef54:	0a813b83          	ld	s7,168(sp)
   1ef58:	0a013c03          	ld	s8,160(sp)
   1ef5c:	09813c83          	ld	s9,152(sp)
   1ef60:	09013d03          	ld	s10,144(sp)
   1ef64:	08813d83          	ld	s11,136(sp)
   1ef68:	000a0513          	mv	a0,s4
   1ef6c:	0c013a03          	ld	s4,192(sp)
   1ef70:	0f010113          	addi	sp,sp,240
   1ef74:	00008067          	ret
   1ef78:	e4010113          	addi	sp,sp,-448
   1ef7c:	30000513          	li	a0,768
   1ef80:	1a113c23          	sd	ra,440(sp)
   1ef84:	1a813823          	sd	s0,432(sp)
   1ef88:	1a913423          	sd	s1,424(sp)
   1ef8c:	1b213023          	sd	s2,416(sp)
   1ef90:	19313c23          	sd	s3,408(sp)
   1ef94:	00b13423          	sd	a1,8(sp)
   1ef98:	dd4f50ef          	jal	ra,1456c <sigprocmask@plt+0x150c>
   1ef9c:	d6a1b423          	sd	a0,-664(gp)
   1efa0:	fff00793          	li	a5,-1
   1efa4:	00f52423          	sw	a5,8(a0)
   1efa8:	05450793          	addi	a5,a0,84
   1efac:	02f53023          	sd	a5,32(a0)
   1efb0:	02f53423          	sd	a5,40(a0)
   1efb4:	0e850793          	addi	a5,a0,232
   1efb8:	2ef53823          	sd	a5,752(a0)
   1efbc:	22000513          	li	a0,544
   1efc0:	dacf50ef          	jal	ra,1456c <sigprocmask@plt+0x150c>
   1efc4:	d6a1b023          	sd	a0,-672(gp)
   1efc8:	02050793          	addi	a5,a0,32
   1efcc:	00f53023          	sd	a5,0(a0)
   1efd0:	02850793          	addi	a5,a0,40
   1efd4:	00f53423          	sd	a5,8(a0)
   1efd8:	1f800793          	li	a5,504
   1efdc:	00f53c23          	sd	a5,24(a0)
   1efe0:	22050793          	addi	a5,a0,544
   1efe4:	00f53823          	sd	a5,16(a0)
   1efe8:	25000513          	li	a0,592
   1efec:	d80f50ef          	jal	ra,1456c <sigprocmask@plt+0x150c>
   1eff0:	00050413          	mv	s0,a0
   1eff4:	d6a1b823          	sd	a0,-656(gp)
   1eff8:	000247b7          	lui	a5,0x24
   1effc:	7c078793          	addi	a5,a5,1984 # 247c0 <sigprocmask@plt+0x11760>
   1f000:	16050713          	addi	a4,a0,352
   1f004:	24050693          	addi	a3,a0,576
   1f008:	0007a603          	lw	a2,0(a5)
   1f00c:	02070713          	addi	a4,a4,32
   1f010:	01878793          	addi	a5,a5,24
   1f014:	fec72023          	sw	a2,-32(a4)
   1f018:	ff07b603          	ld	a2,-16(a5)
   1f01c:	fec73423          	sd	a2,-24(a4)
   1f020:	ff87b603          	ld	a2,-8(a5)
   1f024:	fec73823          	sd	a2,-16(a4)
   1f028:	fee690e3          	bne	a3,a4,1f008 <sigprocmask@plt+0xbfa8>
   1f02c:	23c40793          	addi	a5,s0,572
   1f030:	000245b7          	lui	a1,0x24
   1f034:	18058593          	addi	a1,a1,384 # 24180 <sigprocmask@plt+0x11120>
   1f038:	00078513          	mv	a0,a5
   1f03c:	865f30ef          	jal	ra,128a0 <strcpy@plt>
   1f040:	20a43423          	sd	a0,520(s0)
   1f044:	0f800513          	li	a0,248
   1f048:	d24f50ef          	jal	ra,1456c <sigprocmask@plt+0x150c>
   1f04c:	cca1b823          	sd	a0,-816(gp)
   1f050:	03810513          	addi	a0,sp,56
   1f054:	00012c23          	sw	zero,24(sp)
   1f058:	859f30ef          	jal	ra,128b0 <setjmp@plt>
   1f05c:	00050493          	mv	s1,a0
   1f060:	16050e63          	beqz	a0,1f1dc <sigprocmask@plt+0xc17c>
   1f064:	87cf90ef          	jal	ra,180e0 <sigprocmask@plt+0x5080>
   1f068:	d681b783          	ld	a5,-664(gp)
   1f06c:	01812403          	lw	s0,24(sp)
   1f070:	00100713          	li	a4,1
   1f074:	0507a483          	lw	s1,80(a5)
   1f078:	0004041b          	sext.w	s0,s0
   1f07c:	ffd4869b          	addiw	a3,s1,-3
   1f080:	00d77c63          	bgeu	a4,a3,1f098 <sigprocmask@plt+0xc038>
   1f084:	00040a63          	beqz	s0,1f098 <sigprocmask@plt+0xc038>
   1f088:	0587c703          	lbu	a4,88(a5)
   1f08c:	00070663          	beqz	a4,1f098 <sigprocmask@plt+0xc038>
   1f090:	0107a783          	lw	a5,16(a5)
   1f094:	00078463          	beqz	a5,1f09c <sigprocmask@plt+0xc03c>
   1f098:	a4cfe0ef          	jal	ra,1d2e4 <sigprocmask@plt+0xa284>
   1f09c:	c781b783          	ld	a5,-904(gp)
   1f0a0:	e2018513          	addi	a0,gp,-480
   1f0a4:	0007b823          	sd	zero,16(a5)
   1f0a8:	0607a423          	sw	zero,104(a5)
   1f0ac:	b51f60ef          	jal	ra,15bfc <sigprocmask@plt+0x2b9c>
   1f0b0:	00000513          	li	a0,0
   1f0b4:	c90ff0ef          	jal	ra,1e544 <sigprocmask@plt+0xb4e4>
   1f0b8:	04048063          	beqz	s1,1f0f8 <sigprocmask@plt+0xc098>
   1f0bc:	02010513          	addi	a0,sp,32
   1f0c0:	e51f60ef          	jal	ra,15f10 <sigprocmask@plt+0x2eb0>
   1f0c4:	821f60ef          	jal	ra,158e4 <sigprocmask@plt+0x2884>
   1f0c8:	00100793          	li	a5,1
   1f0cc:	02f41e63          	bne	s0,a5,1f108 <sigprocmask@plt+0xc0a8>
   1f0d0:	00024537          	lui	a0,0x24
   1f0d4:	00200793          	li	a5,2
   1f0d8:	f7050513          	addi	a0,a0,-144 # 23f70 <sigprocmask@plt+0x10f10>
   1f0dc:	00f12c23          	sw	a5,24(sp)
   1f0e0:	bc5f60ef          	jal	ra,15ca4 <sigprocmask@plt+0x2c44>
   1f0e4:	02050663          	beqz	a0,1f110 <sigprocmask@plt+0xc0b0>
   1f0e8:	00024537          	lui	a0,0x24
   1f0ec:	1a050513          	addi	a0,a0,416 # 241a0 <sigprocmask@plt+0x11140>
   1f0f0:	b18ff0ef          	jal	ra,1e408 <sigprocmask@plt+0xb3a8>
   1f0f4:	01c0006f          	j	1f110 <sigprocmask@plt+0xc0b0>
   1f0f8:	000277b7          	lui	a5,0x27
   1f0fc:	e487b503          	ld	a0,-440(a5) # 26e48 <stderr>
   1f100:	858f70ef          	jal	ra,16158 <sigprocmask@plt+0x30f8>
   1f104:	fb9ff06f          	j	1f0bc <sigprocmask@plt+0xc05c>
   1f108:	00200793          	li	a5,2
   1f10c:	02f41263          	bne	s0,a5,1f130 <sigprocmask@plt+0xc0d0>
   1f110:	00300793          	li	a5,3
   1f114:	00f12c23          	sw	a5,24(sp)
   1f118:	d681b783          	ld	a5,-664(gp)
   1f11c:	0587c783          	lbu	a5,88(a5)
   1f120:	28079063          	bnez	a5,1f3a0 <sigprocmask@plt+0xc340>
   1f124:	02010513          	addi	a0,sp,32
   1f128:	de9f60ef          	jal	ra,15f10 <sigprocmask@plt+0x2eb0>
   1f12c:	00c0006f          	j	1f138 <sigprocmask@plt+0xc0d8>
   1f130:	00300793          	li	a5,3
   1f134:	08f41e63          	bne	s0,a5,1f1d0 <sigprocmask@plt+0xc170>
   1f138:	00400793          	li	a5,4
   1f13c:	00f12c23          	sw	a5,24(sp)
   1f140:	d681b403          	ld	s0,-664(gp)
   1f144:	01843503          	ld	a0,24(s0)
   1f148:	26051c63          	bnez	a0,1f3c0 <sigprocmask@plt+0xc360>
   1f14c:	05b44783          	lbu	a5,91(s0)
   1f150:	00079663          	bnez	a5,1f15c <sigprocmask@plt+0xc0fc>
   1f154:	01843783          	ld	a5,24(s0)
   1f158:	f40790e3          	bnez	a5,1f098 <sigprocmask@plt+0xc038>
   1f15c:	d281b783          	ld	a5,-728(gp)
   1f160:	06078863          	beqz	a5,1f1d0 <sigprocmask@plt+0xc170>
   1f164:	000244b7          	lui	s1,0x24
   1f168:	1b848513          	addi	a0,s1,440 # 241b8 <sigprocmask@plt+0x11158>
   1f16c:	b39f60ef          	jal	ra,15ca4 <sigprocmask@plt+0x2c44>
   1f170:	04051a63          	bnez	a0,1f1c4 <sigprocmask@plt+0xc164>
   1f174:	00024537          	lui	a0,0x24
   1f178:	f7050513          	addi	a0,a0,-144 # 23f70 <sigprocmask@plt+0x10f10>
   1f17c:	b29f60ef          	jal	ra,15ca4 <sigprocmask@plt+0x2c44>
   1f180:	04050863          	beqz	a0,1f1d0 <sigprocmask@plt+0xc170>
   1f184:	04042783          	lw	a5,64(s0)
   1f188:	0017879b          	addiw	a5,a5,1
   1f18c:	04f42023          	sw	a5,64(s0)
   1f190:	000245b7          	lui	a1,0x24
   1f194:	1c858593          	addi	a1,a1,456 # 241c8 <sigprocmask@plt+0x11168>
   1f198:	a05f40ef          	jal	ra,13b9c <sigprocmask@plt+0xb3c>
   1f19c:	00050593          	mv	a1,a0
   1f1a0:	00050413          	mv	s0,a0
   1f1a4:	1b848513          	addi	a0,s1,440
   1f1a8:	ce0fc0ef          	jal	ra,1b688 <sigprocmask@plt+0x8628>
   1f1ac:	00040513          	mv	a0,s0
   1f1b0:	ea1f30ef          	jal	ra,13050 <free@plt>
   1f1b4:	f54f60ef          	jal	ra,15908 <sigprocmask@plt+0x28a8>
   1f1b8:	1b848513          	addi	a0,s1,440
   1f1bc:	ae9f60ef          	jal	ra,15ca4 <sigprocmask@plt+0x2c44>
   1f1c0:	00050863          	beqz	a0,1f1d0 <sigprocmask@plt+0xc170>
   1f1c4:	d281b403          	ld	s0,-728(gp)
   1f1c8:	bdcf50ef          	jal	ra,145a4 <sigprocmask@plt+0x1544>
   1f1cc:	02a43423          	sd	a0,40(s0)
   1f1d0:	00100513          	li	a0,1
   1f1d4:	af8fe0ef          	jal	ra,1d4cc <sigprocmask@plt+0xa46c>
   1f1d8:	ec1ff06f          	j	1f098 <sigprocmask@plt+0xc038>
   1f1dc:	d681b403          	ld	s0,-664(gp)
   1f1e0:	03810793          	addi	a5,sp,56
   1f1e4:	02f43c23          	sd	a5,56(s0)
   1f1e8:	809f30ef          	jal	ra,129f0 <getpid@plt>
   1f1ec:	00a42623          	sw	a0,12(s0)
   1f1f0:	e80ff0ef          	jal	ra,1e870 <sigprocmask@plt+0xb810>
   1f1f4:	02010513          	addi	a0,sp,32
   1f1f8:	dd0f70ef          	jal	ra,167c8 <sigprocmask@plt+0x3768>
   1f1fc:	00813783          	ld	a5,8(sp)
   1f200:	0007b783          	ld	a5,0(a5)
   1f204:	00078863          	beqz	a5,1f214 <sigprocmask@plt+0xc1b4>
   1f208:	0007c483          	lbu	s1,0(a5)
   1f20c:	fd348493          	addi	s1,s1,-45
   1f210:	0014b493          	seqz	s1,s1
   1f214:	02f43823          	sd	a5,48(s0)
   1f218:	00813783          	ld	a5,8(sp)
   1f21c:	00912e23          	sw	s1,28(sp)
   1f220:	05540493          	addi	s1,s0,85
   1f224:	00878793          	addi	a5,a5,8
   1f228:	cb818913          	addi	s2,gp,-840
   1f22c:	00f00613          	li	a2,15
   1f230:	00200593          	li	a1,2
   1f234:	00048513          	mv	a0,s1
   1f238:	00f93023          	sd	a5,0(s2)
   1f23c:	b25f30ef          	jal	ra,12d60 <memset@plt>
   1f240:	01c10513          	addi	a0,sp,28
   1f244:	958f80ef          	jal	ra,1739c <sigprocmask@plt+0x433c>
   1f248:	00050663          	beqz	a0,1f254 <sigprocmask@plt+0xc1f4>
   1f24c:	00100513          	li	a0,1
   1f250:	efdf50ef          	jal	ra,1514c <sigprocmask@plt+0x20ec>
   1f254:	00093903          	ld	s2,0(s2)
   1f258:	01843983          	ld	s3,24(s0)
   1f25c:	00093783          	ld	a5,0(s2)
   1f260:	02079263          	bnez	a5,1f284 <sigprocmask@plt+0xc224>
   1f264:	00098c63          	beqz	s3,1f27c <sigprocmask@plt+0xc21c>
   1f268:	000245b7          	lui	a1,0x24
   1f26c:	00025537          	lui	a0,0x25
   1f270:	18858593          	addi	a1,a1,392 # 24188 <sigprocmask@plt+0x11128>
   1f274:	f4450513          	addi	a0,a0,-188 # 24f44 <sigprocmask@plt+0x11ee4>
   1f278:	fedf60ef          	jal	ra,16264 <sigprocmask@plt+0x3204>
   1f27c:	00100793          	li	a5,1
   1f280:	04f40da3          	sb	a5,91(s0)
   1f284:	05843703          	ld	a4,88(s0)
   1f288:	0ff00793          	li	a5,255
   1f28c:	01879793          	slli	a5,a5,0x18
   1f290:	0ff78793          	addi	a5,a5,255
   1f294:	00f777b3          	and	a5,a4,a5
   1f298:	01000737          	lui	a4,0x1000
   1f29c:	00270713          	addi	a4,a4,2 # 1000002 <optind+0xfd8a32>
   1f2a0:	02e79463          	bne	a5,a4,1f2c8 <sigprocmask@plt+0xc268>
   1f2a4:	02099263          	bnez	s3,1f2c8 <sigprocmask@plt+0xc268>
   1f2a8:	00000513          	li	a0,0
   1f2ac:	fe4f30ef          	jal	ra,12a90 <isatty@plt>
   1f2b0:	00050c63          	beqz	a0,1f2c8 <sigprocmask@plt+0xc268>
   1f2b4:	00100513          	li	a0,1
   1f2b8:	fd8f30ef          	jal	ra,12a90 <isatty@plt>
   1f2bc:	00050663          	beqz	a0,1f2c8 <sigprocmask@plt+0xc268>
   1f2c0:	00100793          	li	a5,1
   1f2c4:	04f40c23          	sb	a5,88(s0)
   1f2c8:	05944703          	lbu	a4,89(s0)
   1f2cc:	00200793          	li	a5,2
   1f2d0:	00f71663          	bne	a4,a5,1f2dc <sigprocmask@plt+0xc27c>
   1f2d4:	05844783          	lbu	a5,88(s0)
   1f2d8:	04f40ca3          	sb	a5,89(s0)
   1f2dc:	00048513          	mv	a0,s1
   1f2e0:	06440793          	addi	a5,s0,100
   1f2e4:	00200713          	li	a4,2
   1f2e8:	00054683          	lbu	a3,0(a0)
   1f2ec:	00e69463          	bne	a3,a4,1f2f4 <sigprocmask@plt+0xc294>
   1f2f0:	00050023          	sb	zero,0(a0)
   1f2f4:	00150513          	addi	a0,a0,1
   1f2f8:	fea798e3          	bne	a5,a0,1f2e8 <sigprocmask@plt+0xc288>
   1f2fc:	04098a63          	beqz	s3,1f350 <sigprocmask@plt+0xc2f0>
   1f300:	00093783          	ld	a5,0(s2)
   1f304:	00890493          	addi	s1,s2,8
   1f308:	00f43c23          	sd	a5,24(s0)
   1f30c:	00893783          	ld	a5,8(s2)
   1f310:	04079c63          	bnez	a5,1f368 <sigprocmask@plt+0xc308>
   1f314:	d701b783          	ld	a5,-656(gp)
   1f318:	0097b423          	sd	s1,8(a5)
   1f31c:	0004b703          	ld	a4,0(s1)
   1f320:	04071e63          	bnez	a4,1f37c <sigprocmask@plt+0xc31c>
   1f324:	05844783          	lbu	a5,88(s0)
   1f328:	06079463          	bnez	a5,1f390 <sigprocmask@plt+0xc330>
   1f32c:	cb9f60ef          	jal	ra,15fe4 <sigprocmask@plt+0x2f84>
   1f330:	01c12783          	lw	a5,28(sp)
   1f334:	dc078ee3          	beqz	a5,1f110 <sigprocmask@plt+0xc0b0>
   1f338:	00024537          	lui	a0,0x24
   1f33c:	00100793          	li	a5,1
   1f340:	19050513          	addi	a0,a0,400 # 24190 <sigprocmask@plt+0x11130>
   1f344:	00f12c23          	sw	a5,24(sp)
   1f348:	8c0ff0ef          	jal	ra,1e408 <sigprocmask@plt+0xb3a8>
   1f34c:	d85ff06f          	j	1f0d0 <sigprocmask@plt+0xc070>
   1f350:	05b44783          	lbu	a5,91(s0)
   1f354:	00090493          	mv	s1,s2
   1f358:	fa079ee3          	bnez	a5,1f314 <sigprocmask@plt+0xc2b4>
   1f35c:	00093503          	ld	a0,0(s2)
   1f360:	00000593          	li	a1,0
   1f364:	d2cf70ef          	jal	ra,16890 <sigprocmask@plt+0x3830>
   1f368:	0004b783          	ld	a5,0(s1)
   1f36c:	00848493          	addi	s1,s1,8
   1f370:	02f43823          	sd	a5,48(s0)
   1f374:	ccf1bc23          	sd	a5,-808(gp)
   1f378:	f9dff06f          	j	1f314 <sigprocmask@plt+0xc2b4>
   1f37c:	0007a703          	lw	a4,0(a5)
   1f380:	00848493          	addi	s1,s1,8
   1f384:	0017071b          	addiw	a4,a4,1
   1f388:	00e7a023          	sw	a4,0(a5)
   1f38c:	f91ff06f          	j	1f31c <sigprocmask@plt+0xc2bc>
   1f390:	00000593          	li	a1,0
   1f394:	00100513          	li	a0,1
   1f398:	8a9f30ef          	jal	ra,12c40 <signal@plt>
   1f39c:	f91ff06f          	j	1f32c <sigprocmask@plt+0xc2cc>
   1f3a0:	00024537          	lui	a0,0x24
   1f3a4:	1b050513          	addi	a0,a0,432 # 241b0 <sigprocmask@plt+0x11150>
   1f3a8:	8fdf60ef          	jal	ra,15ca4 <sigprocmask@plt+0x2c44>
   1f3ac:	d6050ce3          	beqz	a0,1f124 <sigprocmask@plt+0xc0c4>
   1f3b0:	00054783          	lbu	a5,0(a0)
   1f3b4:	d60788e3          	beqz	a5,1f124 <sigprocmask@plt+0xc0c4>
   1f3b8:	850ff0ef          	jal	ra,1e408 <sigprocmask@plt+0xb3a8>
   1f3bc:	d69ff06f          	j	1f124 <sigprocmask@plt+0xc0c4>
   1f3c0:	00100593          	li	a1,1
   1f3c4:	cf1fd0ef          	jal	ra,1d0b4 <sigprocmask@plt+0xa054>
   1f3c8:	d85ff06f          	j	1f14c <sigprocmask@plt+0xc0ec>
   1f3cc:	00257513          	andi	a0,a0,2
   1f3d0:	0085b783          	ld	a5,8(a1)
   1f3d4:	00050463          	beqz	a0,1f3dc <sigprocmask@plt+0xc37c>
   1f3d8:	0005b783          	ld	a5,0(a1)
   1f3dc:	fff00713          	li	a4,-1
   1f3e0:	00e79863          	bne	a5,a4,1f3f0 <sigprocmask@plt+0xc390>
   1f3e4:	00025537          	lui	a0,0x25
   1f3e8:	86850513          	addi	a0,a0,-1944 # 24868 <sigprocmask@plt+0x11808>
   1f3ec:	e54f306f          	j	12a40 <puts@plt>
   1f3f0:	00164583          	lbu	a1,1(a2)
   1f3f4:	00025537          	lui	a0,0x25
   1f3f8:	87850513          	addi	a0,a0,-1928 # 24878 <sigprocmask@plt+0x11818>
   1f3fc:	00b7d5b3          	srl	a1,a5,a1
   1f400:	d20f306f          	j	12920 <printf@plt>
   1f404:	ee010113          	addi	sp,sp,-288
   1f408:	0f413823          	sd	s4,240(sp)
   1f40c:	0d713c23          	sd	s7,216(sp)
   1f410:	01053a03          	ld	s4,16(a0)
   1f414:	ca01bb83          	ld	s7,-864(gp)
   1f418:	10913423          	sd	s1,264(sp)
   1f41c:	11213023          	sd	s2,256(sp)
   1f420:	10113c23          	sd	ra,280(sp)
   1f424:	10813823          	sd	s0,272(sp)
   1f428:	0f313c23          	sd	s3,248(sp)
   1f42c:	0f513423          	sd	s5,232(sp)
   1f430:	0f613023          	sd	s6,224(sp)
   1f434:	0d813823          	sd	s8,208(sp)
   1f438:	0d913423          	sd	s9,200(sp)
   1f43c:	0da13023          	sd	s10,192(sp)
   1f440:	0bb13c23          	sd	s11,184(sp)
   1f444:	00050493          	mv	s1,a0
   1f448:	000ba023          	sw	zero,0(s7)
   1f44c:	000a0913          	mv	s2,s4
   1f450:	00093403          	ld	s0,0(s2)
   1f454:	1c041663          	bnez	s0,1f620 <sigprocmask@plt+0xc5c0>
   1f458:	0204b503          	ld	a0,32(s1)
   1f45c:	22050863          	beqz	a0,1f68c <sigprocmask@plt+0xc62c>
   1f460:	00a00613          	li	a2,10
   1f464:	00000593          	li	a1,0
   1f468:	f48f50ef          	jal	ra,14bb0 <sigprocmask@plt+0x1b50>
   1f46c:	00050b1b          	sext.w	s6,a0
   1f470:	4c0b4e63          	bltz	s6,1f94c <sigprocmask@plt+0xc8ec>
   1f474:	000ba783          	lw	a5,0(s7)
   1f478:	4c079a63          	bnez	a5,1f94c <sigprocmask@plt+0xc8ec>
   1f47c:	0304b503          	ld	a0,48(s1)
   1f480:	20050a63          	beqz	a0,1f694 <sigprocmask@plt+0xc634>
   1f484:	00a00613          	li	a2,10
   1f488:	00000593          	li	a1,0
   1f48c:	f24f50ef          	jal	ra,14bb0 <sigprocmask@plt+0x1b50>
   1f490:	000ba783          	lw	a5,0(s7)
   1f494:	0005051b          	sext.w	a0,a0
   1f498:	4c079063          	bnez	a5,1f958 <sigprocmask@plt+0xc8f8>
   1f49c:	00200737          	lui	a4,0x200
   1f4a0:	00050793          	mv	a5,a0
   1f4a4:	00e56663          	bltu	a0,a4,1f4b0 <sigprocmask@plt+0xc450>
   1f4a8:	00200d37          	lui	s10,0x200
   1f4ac:	fffd079b          	addiw	a5,s10,-1
   1f4b0:	3e800d13          	li	s10,1000
   1f4b4:	02fd0d3b          	mulw	s10,s10,a5
   1f4b8:	0384b503          	ld	a0,56(s1)
   1f4bc:	02012423          	sw	zero,40(sp)
   1f4c0:	1c051e63          	bnez	a0,1f69c <sigprocmask@plt+0xc63c>
   1f4c4:	0304b783          	ld	a5,48(s1)
   1f4c8:	20079063          	bnez	a5,1f6c8 <sigprocmask@plt+0xc668>
   1f4cc:	0284b783          	ld	a5,40(s1)
   1f4d0:	02078263          	beqz	a5,1f4f4 <sigprocmask@plt+0xc494>
   1f4d4:	02812503          	lw	a0,40(sp)
   1f4d8:	db8f30ef          	jal	ra,12a90 <isatty@plt>
   1f4dc:	00050c63          	beqz	a0,1f4f4 <sigprocmask@plt+0xc494>
   1f4e0:	000277b7          	lui	a5,0x27
   1f4e4:	e487b583          	ld	a1,-440(a5) # 26e48 <stderr>
   1f4e8:	0284b503          	ld	a0,40(s1)
   1f4ec:	eb4f30ef          	jal	ra,12ba0 <fputs_unlocked@plt>
   1f4f0:	9c8f50ef          	jal	ra,146b8 <sigprocmask@plt+0x1658>
   1f4f4:	0184ba83          	ld	s5,24(s1)
   1f4f8:	000a9463          	bnez	s5,1f500 <sigprocmask@plt+0xc4a0>
   1f4fc:	c5918a93          	addi	s5,gp,-935
   1f500:	0004ac83          	lw	s9,0(s1)
   1f504:	001cf913          	andi	s2,s9,1
   1f508:	012b67b3          	or	a5,s6,s2
   1f50c:	04078e63          	beqz	a5,1f568 <sigprocmask@plt+0xc508>
   1f510:	02812503          	lw	a0,40(sp)
   1f514:	03010593          	addi	a1,sp,48
   1f518:	899f30ef          	jal	ra,12db0 <tcgetattr@plt>
   1f51c:	03c00613          	li	a2,60
   1f520:	03010593          	addi	a1,sp,48
   1f524:	07010513          	addi	a0,sp,112
   1f528:	ce8f30ef          	jal	ra,12a10 <memcpy@plt>
   1f52c:	000b0c63          	beqz	s6,1f544 <sigprocmask@plt+0xc4e4>
   1f530:	03c12783          	lw	a5,60(sp)
   1f534:	ffd7f793          	andi	a5,a5,-3
   1f538:	02f12e23          	sw	a5,60(sp)
   1f53c:	10000793          	li	a5,256
   1f540:	04f11323          	sh	a5,70(sp)
   1f544:	00090863          	beqz	s2,1f554 <sigprocmask@plt+0xc4f4>
   1f548:	03c12783          	lw	a5,60(sp)
   1f54c:	f977f793          	andi	a5,a5,-105
   1f550:	02f12e23          	sw	a5,60(sp)
   1f554:	02812503          	lw	a0,40(sp)
   1f558:	03010613          	addi	a2,sp,48
   1f55c:	00000593          	li	a1,0
   1f560:	001cec93          	ori	s9,s9,1
   1f564:	a8df30ef          	jal	ra,12ff0 <tcsetattr@plt>
   1f568:	0304b783          	ld	a5,48(s1)
   1f56c:	00078663          	beqz	a5,1f578 <sigprocmask@plt+0xc518>
   1f570:	c74f50ef          	jal	ra,149e4 <sigprocmask@plt+0x1984>
   1f574:	01a50d3b          	addw	s10,a0,s10
   1f578:	0404b783          	ld	a5,64(s1)
   1f57c:	00a00713          	li	a4,10
   1f580:	00e13023          	sd	a4,0(sp)
   1f584:	00078663          	beqz	a5,1f590 <sigprocmask@plt+0xc530>
   1f588:	0007c783          	lbu	a5,0(a5)
   1f58c:	00f13023          	sd	a5,0(sp)
   1f590:	002cf793          	andi	a5,s9,2
   1f594:	00000913          	li	s2,0
   1f598:	00000d93          	li	s11,0
   1f59c:	00100c13          	li	s8,1
   1f5a0:	00000993          	li	s3,0
   1f5a4:	00f13423          	sd	a5,8(sp)
   1f5a8:	0ff9f793          	andi	a5,s3,255
   1f5ac:	00079a63          	bnez	a5,1f5c0 <sigprocmask@plt+0xc560>
   1f5b0:	00090513          	mv	a0,s2
   1f5b4:	1019859b          	addiw	a1,s3,257
   1f5b8:	f85f40ef          	jal	ra,1453c <sigprocmask@plt+0x14dc>
   1f5bc:	00050913          	mv	s2,a0
   1f5c0:	0304b783          	ld	a5,48(s1)
   1f5c4:	12078463          	beqz	a5,1f6ec <sigprocmask@plt+0xc68c>
   1f5c8:	c1cf50ef          	jal	ra,149e4 <sigprocmask@plt+0x1984>
   1f5cc:	40ad063b          	subw	a2,s10,a0
   1f5d0:	36c05863          	blez	a2,1f940 <sigprocmask@plt+0xc8e0>
   1f5d4:	000ba023          	sw	zero,0(s7)
   1f5d8:	00100793          	li	a5,1
   1f5dc:	00100593          	li	a1,1
   1f5e0:	02810513          	addi	a0,sp,40
   1f5e4:	02f11623          	sh	a5,44(sp)
   1f5e8:	ff8f30ef          	jal	ra,12de0 <poll@plt>
   1f5ec:	10a04463          	bgtz	a0,1f6f4 <sigprocmask@plt+0xc694>
   1f5f0:	000bab03          	lw	s6,0(s7)
   1f5f4:	00100413          	li	s0,1
   1f5f8:	00090513          	mv	a0,s2
   1f5fc:	001cfc93          	andi	s9,s9,1
   1f600:	a51f30ef          	jal	ra,13050 <free@plt>
   1f604:	000c8a63          	beqz	s9,1f618 <sigprocmask@plt+0xc5b8>
   1f608:	02812503          	lw	a0,40(sp)
   1f60c:	07010613          	addi	a2,sp,112
   1f610:	00000593          	li	a1,0
   1f614:	9ddf30ef          	jal	ra,12ff0 <tcsetattr@plt>
   1f618:	016ba023          	sw	s6,0(s7)
   1f61c:	0280006f          	j	1f644 <sigprocmask@plt+0xc5e4>
   1f620:	00040513          	mv	a0,s0
   1f624:	680000ef          	jal	ra,1fca4 <sigprocmask@plt+0xcc44>
   1f628:	00054783          	lbu	a5,0(a0)
   1f62c:	04078c63          	beqz	a5,1f684 <sigprocmask@plt+0xc624>
   1f630:	00093583          	ld	a1,0(s2)
   1f634:	00025537          	lui	a0,0x25
   1f638:	8b850513          	addi	a0,a0,-1864 # 248b8 <sigprocmask@plt+0x11858>
   1f63c:	a69f40ef          	jal	ra,140a4 <sigprocmask@plt+0x1044>
   1f640:	00100413          	li	s0,1
   1f644:	11813083          	ld	ra,280(sp)
   1f648:	00040513          	mv	a0,s0
   1f64c:	11013403          	ld	s0,272(sp)
   1f650:	10813483          	ld	s1,264(sp)
   1f654:	10013903          	ld	s2,256(sp)
   1f658:	0f813983          	ld	s3,248(sp)
   1f65c:	0f013a03          	ld	s4,240(sp)
   1f660:	0e813a83          	ld	s5,232(sp)
   1f664:	0e013b03          	ld	s6,224(sp)
   1f668:	0d813b83          	ld	s7,216(sp)
   1f66c:	0d013c03          	ld	s8,208(sp)
   1f670:	0c813c83          	ld	s9,200(sp)
   1f674:	0c013d03          	ld	s10,192(sp)
   1f678:	0b813d83          	ld	s11,184(sp)
   1f67c:	12010113          	addi	sp,sp,288
   1f680:	00008067          	ret
   1f684:	00890913          	addi	s2,s2,8
   1f688:	dc9ff06f          	j	1f450 <sigprocmask@plt+0xc3f0>
   1f68c:	00000b13          	li	s6,0
   1f690:	dedff06f          	j	1f47c <sigprocmask@plt+0xc41c>
   1f694:	00000d13          	li	s10,0
   1f698:	e21ff06f          	j	1f4b8 <sigprocmask@plt+0xc458>
   1f69c:	00a00613          	li	a2,10
   1f6a0:	00000593          	li	a1,0
   1f6a4:	d0cf50ef          	jal	ra,14bb0 <sigprocmask@plt+0x1b50>
   1f6a8:	0005051b          	sext.w	a0,a0
   1f6ac:	02a12423          	sw	a0,40(sp)
   1f6b0:	00054663          	bltz	a0,1f6bc <sigprocmask@plt+0xc65c>
   1f6b4:	000ba783          	lw	a5,0(s7)
   1f6b8:	e00786e3          	beqz	a5,1f4c4 <sigprocmask@plt+0xc464>
   1f6bc:	00025437          	lui	s0,0x25
   1f6c0:	89040413          	addi	s0,s0,-1904 # 24890 <sigprocmask@plt+0x11830>
   1f6c4:	f81ff06f          	j	1f644 <sigprocmask@plt+0xc5e4>
   1f6c8:	e00d12e3          	bnez	s10,1f4cc <sigprocmask@plt+0xc46c>
   1f6cc:	00100793          	li	a5,1
   1f6d0:	00000613          	li	a2,0
   1f6d4:	00100593          	li	a1,1
   1f6d8:	02810513          	addi	a0,sp,40
   1f6dc:	02f11623          	sh	a5,44(sp)
   1f6e0:	f00f30ef          	jal	ra,12de0 <poll@plt>
   1f6e4:	00152413          	slti	s0,a0,1
   1f6e8:	f5dff06f          	j	1f644 <sigprocmask@plt+0xc5e4>
   1f6ec:	fff00613          	li	a2,-1
   1f6f0:	ee5ff06f          	j	1f5d4 <sigprocmask@plt+0xc574>
   1f6f4:	02812503          	lw	a0,40(sp)
   1f6f8:	013906b3          	add	a3,s2,s3
   1f6fc:	00068593          	mv	a1,a3
   1f700:	00100613          	li	a2,1
   1f704:	00d13823          	sd	a3,16(sp)
   1f708:	d48f30ef          	jal	ra,12c50 <read@plt>
   1f70c:	00100793          	li	a5,1
   1f710:	01013683          	ld	a3,16(sp)
   1f714:	10f50063          	beq	a0,a5,1f814 <sigprocmask@plt+0xc7b4>
   1f718:	000bab03          	lw	s6,0(s7)
   1f71c:	00100413          	li	s0,1
   1f720:	000a3783          	ld	a5,0(s4)
   1f724:	1e078e63          	beqz	a5,1f920 <sigprocmask@plt+0xc8c0>
   1f728:	fff98c1b          	addiw	s8,s3,-1
   1f72c:	fff00d13          	li	s10,-1
   1f730:	01700d93          	li	s11,23
   1f734:	00400713          	li	a4,4
   1f738:	000c099b          	sext.w	s3,s8
   1f73c:	03a98863          	beq	s3,s10,1f76c <sigprocmask@plt+0xc70c>
   1f740:	018907b3          	add	a5,s2,s8
   1f744:	0007c583          	lbu	a1,0(a5)
   1f748:	ff75879b          	addiw	a5,a1,-9
   1f74c:	0ff7f793          	andi	a5,a5,255
   1f750:	01b78463          	beq	a5,s11,1f758 <sigprocmask@plt+0xc6f8>
   1f754:	00f76c63          	bltu	a4,a5,1f76c <sigprocmask@plt+0xc70c>
   1f758:	000a8513          	mv	a0,s5
   1f75c:	835f30ef          	jal	ra,12f90 <strchr@plt>
   1f760:	fffc0c13          	addi	s8,s8,-1
   1f764:	00400713          	li	a4,4
   1f768:	fc0518e3          	bnez	a0,1f738 <sigprocmask@plt+0xc6d8>
   1f76c:	0019879b          	addiw	a5,s3,1
   1f770:	00f907b3          	add	a5,s2,a5
   1f774:	00078023          	sb	zero,0(a5)
   1f778:	fff00793          	li	a5,-1
   1f77c:	06f98463          	beq	s3,a5,1f7e4 <sigprocmask@plt+0xc784>
   1f780:	013907b3          	add	a5,s2,s3
   1f784:	0007c583          	lbu	a1,0(a5)
   1f788:	000a8513          	mv	a0,s5
   1f78c:	805f30ef          	jal	ra,12f90 <strchr@plt>
   1f790:	04050a63          	beqz	a0,1f7e4 <sigprocmask@plt+0xc784>
   1f794:	01700d13          	li	s10,23
   1f798:	00400d93          	li	s11,4
   1f79c:	00098c1b          	sext.w	s8,s3
   1f7a0:	020c0663          	beqz	s8,1f7cc <sigprocmask@plt+0xc76c>
   1f7a4:	013907b3          	add	a5,s2,s3
   1f7a8:	fff7c583          	lbu	a1,-1(a5)
   1f7ac:	ff75879b          	addiw	a5,a1,-9
   1f7b0:	0ff7f793          	andi	a5,a5,255
   1f7b4:	01a78463          	beq	a5,s10,1f7bc <sigprocmask@plt+0xc75c>
   1f7b8:	00fdea63          	bltu	s11,a5,1f7cc <sigprocmask@plt+0xc76c>
   1f7bc:	000a8513          	mv	a0,s5
   1f7c0:	fd0f30ef          	jal	ra,12f90 <strchr@plt>
   1f7c4:	fff98993          	addi	s3,s3,-1
   1f7c8:	fc051ae3          	bnez	a0,1f79c <sigprocmask@plt+0xc73c>
   1f7cc:	000a8593          	mv	a1,s5
   1f7d0:	00090513          	mv	a0,s2
   1f7d4:	e8cf30ef          	jal	ra,12e60 <strcspn@plt>
   1f7d8:	01856663          	bltu	a0,s8,1f7e4 <sigprocmask@plt+0xc784>
   1f7dc:	01890c33          	add	s8,s2,s8
   1f7e0:	000c0023          	sb	zero,0(s8)
   1f7e4:	0084b783          	ld	a5,8(s1)
   1f7e8:	000a3503          	ld	a0,0(s4)
   1f7ec:	00090593          	mv	a1,s2
   1f7f0:	000249b7          	lui	s3,0x24
   1f7f4:	000780e7          	jalr	a5
   1f7f8:	008a3503          	ld	a0,8(s4)
   1f7fc:	008a0a13          	addi	s4,s4,8
   1f800:	de050ce3          	beqz	a0,1f5f8 <sigprocmask@plt+0xc598>
   1f804:	0084b783          	ld	a5,8(s1)
   1f808:	d5098593          	addi	a1,s3,-688 # 23d50 <sigprocmask@plt+0x10cf0>
   1f80c:	000780e7          	jalr	a5
   1f810:	fe9ff06f          	j	1f7f8 <sigprocmask@plt+0xc798>
   1f814:	00813703          	ld	a4,8(sp)
   1f818:	0006c783          	lbu	a5,0(a3)
   1f81c:	02071463          	bnez	a4,1f844 <sigprocmask@plt+0xc7e4>
   1f820:	000d8e63          	beqz	s11,1f83c <sigprocmask@plt+0xc7dc>
   1f824:	00a00713          	li	a4,10
   1f828:	00000d93          	li	s11,0
   1f82c:	0ce79a63          	bne	a5,a4,1f900 <sigprocmask@plt+0xc8a0>
   1f830:	fffb0b1b          	addiw	s6,s6,-1
   1f834:	d60b1ae3          	bnez	s6,1f5a8 <sigprocmask@plt+0xc548>
   1f838:	ee9ff06f          	j	1f720 <sigprocmask@plt+0xc6c0>
   1f83c:	05c00713          	li	a4,92
   1f840:	0ce78463          	beq	a5,a4,1f908 <sigprocmask@plt+0xc8a8>
   1f844:	00013703          	ld	a4,0(sp)
   1f848:	00d13c23          	sd	a3,24(sp)
   1f84c:	0cf70663          	beq	a4,a5,1f918 <sigprocmask@plt+0xc8b8>
   1f850:	fe0780e3          	beqz	a5,1f830 <sigprocmask@plt+0xc7d0>
   1f854:	0404b703          	ld	a4,64(s1)
   1f858:	0a071463          	bnez	a4,1f900 <sigprocmask@plt+0xc8a0>
   1f85c:	000a3703          	ld	a4,0(s4)
   1f860:	0a070063          	beqz	a4,1f900 <sigprocmask@plt+0xc8a0>
   1f864:	00078593          	mv	a1,a5
   1f868:	000a8513          	mv	a0,s5
   1f86c:	00f13823          	sd	a5,16(sp)
   1f870:	f20f30ef          	jal	ra,12f90 <strchr@plt>
   1f874:	01013783          	ld	a5,16(sp)
   1f878:	01813683          	ld	a3,24(sp)
   1f87c:	020c0463          	beqz	s8,1f8a4 <sigprocmask@plt+0xc844>
   1f880:	02050263          	beqz	a0,1f8a4 <sigprocmask@plt+0xc844>
   1f884:	ff77871b          	addiw	a4,a5,-9
   1f888:	0ff77713          	andi	a4,a4,255
   1f88c:	01700613          	li	a2,23
   1f890:	fac700e3          	beq	a4,a2,1f830 <sigprocmask@plt+0xc7d0>
   1f894:	00400613          	li	a2,4
   1f898:	f8e67ce3          	bgeu	a2,a4,1f830 <sigprocmask@plt+0xc7d0>
   1f89c:	00200713          	li	a4,2
   1f8a0:	06ec0863          	beq	s8,a4,1f910 <sigprocmask@plt+0xc8b0>
   1f8a4:	008a3703          	ld	a4,8(s4)
   1f8a8:	00f13823          	sd	a5,16(sp)
   1f8ac:	04070863          	beqz	a4,1f8fc <sigprocmask@plt+0xc89c>
   1f8b0:	04050663          	beqz	a0,1f8fc <sigprocmask@plt+0xc89c>
   1f8b4:	00068023          	sb	zero,0(a3)
   1f8b8:	0084b703          	ld	a4,8(s1)
   1f8bc:	000a3503          	ld	a0,0(s4)
   1f8c0:	00090593          	mv	a1,s2
   1f8c4:	008a0a13          	addi	s4,s4,8
   1f8c8:	000700e7          	jalr	a4 # 200000 <optind+0x1d8a30>
   1f8cc:	01013783          	ld	a5,16(sp)
   1f8d0:	01700713          	li	a4,23
   1f8d4:	00200c13          	li	s8,2
   1f8d8:	ff77879b          	addiw	a5,a5,-9
   1f8dc:	0ff7f793          	andi	a5,a5,255
   1f8e0:	00000993          	li	s3,0
   1f8e4:	f4e786e3          	beq	a5,a4,1f830 <sigprocmask@plt+0xc7d0>
   1f8e8:	00400713          	li	a4,4
   1f8ec:	00100c13          	li	s8,1
   1f8f0:	f4f760e3          	bltu	a4,a5,1f830 <sigprocmask@plt+0xc7d0>
   1f8f4:	00200c13          	li	s8,2
   1f8f8:	f39ff06f          	j	1f830 <sigprocmask@plt+0xc7d0>
   1f8fc:	00000c13          	li	s8,0
   1f900:	0019899b          	addiw	s3,s3,1
   1f904:	f2dff06f          	j	1f830 <sigprocmask@plt+0xc7d0>
   1f908:	00100d93          	li	s11,1
   1f90c:	f25ff06f          	j	1f830 <sigprocmask@plt+0xc7d0>
   1f910:	00100c13          	li	s8,1
   1f914:	f1dff06f          	j	1f830 <sigprocmask@plt+0xc7d0>
   1f918:	00000b13          	li	s6,0
   1f91c:	e05ff06f          	j	1f720 <sigprocmask@plt+0xc6c0>
   1f920:	013909b3          	add	s3,s2,s3
   1f924:	00098023          	sb	zero,0(s3)
   1f928:	0084b783          	ld	a5,8(s1)
   1f92c:	00025537          	lui	a0,0x25
   1f930:	00090593          	mv	a1,s2
   1f934:	8e050513          	addi	a0,a0,-1824 # 248e0 <sigprocmask@plt+0x11880>
   1f938:	000780e7          	jalr	a5
   1f93c:	cbdff06f          	j	1f5f8 <sigprocmask@plt+0xc598>
   1f940:	00100413          	li	s0,1
   1f944:	00000b13          	li	s6,0
   1f948:	cb1ff06f          	j	1f5f8 <sigprocmask@plt+0xc598>
   1f94c:	00025437          	lui	s0,0x25
   1f950:	8a840413          	addi	s0,s0,-1880 # 248a8 <sigprocmask@plt+0x11848>
   1f954:	cf1ff06f          	j	1f644 <sigprocmask@plt+0xc5e4>
   1f958:	00025437          	lui	s0,0x25
   1f95c:	88040413          	addi	s0,s0,-1920 # 24880 <sigprocmask@plt+0x11820>
   1f960:	ce5ff06f          	j	1f644 <sigprocmask@plt+0xc5e4>
   1f964:	f6010113          	addi	sp,sp,-160
   1f968:	08913423          	sd	s1,136(sp)
   1f96c:	08813823          	sd	s0,144(sp)
   1f970:	09213023          	sd	s2,128(sp)
   1f974:	07313c23          	sd	s3,120(sp)
   1f978:	07513423          	sd	s5,104(sp)
   1f97c:	07613023          	sd	s6,96(sp)
   1f980:	05713c23          	sd	s7,88(sp)
   1f984:	05813823          	sd	s8,80(sp)
   1f988:	05913423          	sd	s9,72(sp)
   1f98c:	05a13023          	sd	s10,64(sp)
   1f990:	08113c23          	sd	ra,152(sp)
   1f994:	07413823          	sd	s4,112(sp)
   1f998:	03b13c23          	sd	s11,56(sp)
   1f99c:	00050913          	mv	s2,a0
   1f9a0:	dc01a823          	sw	zero,-560(gp)
   1f9a4:	821f30ef          	jal	ra,131c4 <sigprocmask@plt+0x164>
   1f9a8:	0005079b          	sext.w	a5,a0
   1f9ac:	00000413          	li	s0,0
   1f9b0:	00000993          	li	s3,0
   1f9b4:	00f13423          	sd	a5,8(sp)
   1f9b8:	00025ab7          	lui	s5,0x25
   1f9bc:	fff00b13          	li	s6,-1
   1f9c0:	04800b93          	li	s7,72
   1f9c4:	05300c13          	li	s8,83
   1f9c8:	06100c93          	li	s9,97
   1f9cc:	03f00d13          	li	s10,63
   1f9d0:	00813503          	ld	a0,8(sp)
   1f9d4:	1cca8613          	addi	a2,s5,460 # 251cc <sigprocmask@plt+0x1216c>
   1f9d8:	00090593          	mv	a1,s2
   1f9dc:	b64f30ef          	jal	ra,12d40 <getopt@plt>
   1f9e0:	03650a63          	beq	a0,s6,1fa14 <sigprocmask@plt+0xc9b4>
   1f9e4:	01751663          	bne	a0,s7,1f9f0 <sigprocmask@plt+0xc990>
   1f9e8:	00146413          	ori	s0,s0,1
   1f9ec:	fe5ff06f          	j	1f9d0 <sigprocmask@plt+0xc970>
   1f9f0:	01851663          	bne	a0,s8,1f9fc <sigprocmask@plt+0xc99c>
   1f9f4:	00246413          	ori	s0,s0,2
   1f9f8:	fd9ff06f          	j	1f9d0 <sigprocmask@plt+0xc970>
   1f9fc:	01951663          	bne	a0,s9,1fa08 <sigprocmask@plt+0xc9a8>
   1fa00:	00446413          	ori	s0,s0,4
   1fa04:	fcdff06f          	j	1f9d0 <sigprocmask@plt+0xc970>
   1fa08:	23a50263          	beq	a0,s10,1fc2c <sigprocmask@plt+0xcbcc>
   1fa0c:	0019899b          	addiw	s3,s3,1
   1fa10:	fc1ff06f          	j	1f9d0 <sigprocmask@plt+0xc970>
   1fa14:	00347793          	andi	a5,s0,3
   1fa18:	00079463          	bnez	a5,1fa20 <sigprocmask@plt+0xc9c0>
   1fa1c:	00346413          	ori	s0,s0,3
   1fa20:	00447793          	andi	a5,s0,4
   1fa24:	0a078a63          	beqz	a5,1fad8 <sigprocmask@plt+0xca78>
   1fa28:	000254b7          	lui	s1,0x25
   1fa2c:	00025937          	lui	s2,0x25
   1fa30:	00025a37          	lui	s4,0x25
   1fa34:	dc048493          	addi	s1,s1,-576 # 24dc0 <sigprocmask@plt+0x11d60>
   1fa38:	00000993          	li	s3,0
   1fa3c:	0ae90913          	addi	s2,s2,174 # 250ae <sigprocmask@plt+0x1204e>
   1fa40:	09ea0a13          	addi	s4,s4,158 # 2509e <sigprocmask@plt+0x1203e>
   1fa44:	00025b37          	lui	s6,0x25
   1fa48:	00f00a93          	li	s5,15
   1fa4c:	0004c503          	lbu	a0,0(s1)
   1fa50:	02010593          	addi	a1,sp,32
   1fa54:	e7df20ef          	jal	ra,128d0 <getrlimit@plt>
   1fa58:	013a07b3          	add	a5,s4,s3
   1fa5c:	0007c603          	lbu	a2,0(a5)
   1fa60:	00090593          	mv	a1,s2
   1fa64:	8e8b0513          	addi	a0,s6,-1816 # 248e8 <sigprocmask@plt+0x11888>
   1fa68:	eb9f20ef          	jal	ra,12920 <printf@plt>
   1fa6c:	00048613          	mv	a2,s1
   1fa70:	02010593          	addi	a1,sp,32
   1fa74:	00040513          	mv	a0,s0
   1fa78:	955ff0ef          	jal	ra,1f3cc <sigprocmask@plt+0xc36c>
   1fa7c:	00090513          	mv	a0,s2
   1fa80:	cf0f30ef          	jal	ra,12f70 <strlen@plt>
   1fa84:	00150513          	addi	a0,a0,1
   1fa88:	00198993          	addi	s3,s3,1
   1fa8c:	00a90933          	add	s2,s2,a0
   1fa90:	00248493          	addi	s1,s1,2
   1fa94:	fb599ce3          	bne	s3,s5,1fa4c <sigprocmask@plt+0xc9ec>
   1fa98:	00000513          	li	a0,0
   1fa9c:	09813083          	ld	ra,152(sp)
   1faa0:	09013403          	ld	s0,144(sp)
   1faa4:	08813483          	ld	s1,136(sp)
   1faa8:	08013903          	ld	s2,128(sp)
   1faac:	07813983          	ld	s3,120(sp)
   1fab0:	07013a03          	ld	s4,112(sp)
   1fab4:	06813a83          	ld	s5,104(sp)
   1fab8:	06013b03          	ld	s6,96(sp)
   1fabc:	05813b83          	ld	s7,88(sp)
   1fac0:	05013c03          	ld	s8,80(sp)
   1fac4:	04813c83          	ld	s9,72(sp)
   1fac8:	04013d03          	ld	s10,64(sp)
   1facc:	03813d83          	ld	s11,56(sp)
   1fad0:	0a010113          	addi	sp,sp,160
   1fad4:	00008067          	ret
   1fad8:	ca01b783          	ld	a5,-864(gp)
   1fadc:	00025cb7          	lui	s9,0x25
   1fae0:	00025ab7          	lui	s5,0x25
   1fae4:	dc01a823          	sw	zero,-560(gp)
   1fae8:	09ec8d13          	addi	s10,s9,158 # 2509e <sigprocmask@plt+0x1203e>
   1faec:	dc0a8a93          	addi	s5,s5,-576 # 24dc0 <sigprocmask@plt+0x11d60>
   1faf0:	00f13823          	sd	a5,16(sp)
   1faf4:	00813503          	ld	a0,8(sp)
   1faf8:	000257b7          	lui	a5,0x25
   1fafc:	1cc78613          	addi	a2,a5,460 # 251cc <sigprocmask@plt+0x1216c>
   1fb00:	00090593          	mv	a1,s2
   1fb04:	a3cf30ef          	jal	ra,12d40 <getopt@plt>
   1fb08:	fff00793          	li	a5,-1
   1fb0c:	00050593          	mv	a1,a0
   1fb10:	16f50663          	beq	a0,a5,1fc7c <sigprocmask@plt+0xcc1c>
   1fb14:	04800793          	li	a5,72
   1fb18:	fcf50ee3          	beq	a0,a5,1faf4 <sigprocmask@plt+0xca94>
   1fb1c:	05300793          	li	a5,83
   1fb20:	fcf50ae3          	beq	a0,a5,1faf4 <sigprocmask@plt+0xca94>
   1fb24:	00100793          	li	a5,1
   1fb28:	00f51463          	bne	a0,a5,1fb30 <sigprocmask@plt+0xcad0>
   1fb2c:	06600593          	li	a1,102
   1fb30:	09ec8513          	addi	a0,s9,158
   1fb34:	c8cf30ef          	jal	ra,12fc0 <strchrnul@plt>
   1fb38:	dc01bd83          	ld	s11,-576(gp)
   1fb3c:	020d9863          	bnez	s11,1fb6c <sigprocmask@plt+0xcb0c>
   1fb40:	dd01a783          	lw	a5,-560(gp)
   1fb44:	00379693          	slli	a3,a5,0x3
   1fb48:	00d906b3          	add	a3,s2,a3
   1fb4c:	0006b683          	ld	a3,0(a3)
   1fb50:	00068e63          	beqz	a3,1fb6c <sigprocmask@plt+0xcb0c>
   1fb54:	0006c583          	lbu	a1,0(a3)
   1fb58:	02d00613          	li	a2,45
   1fb5c:	00c58863          	beq	a1,a2,1fb6c <sigprocmask@plt+0xcb0c>
   1fb60:	0017879b          	addiw	a5,a5,1
   1fb64:	dcf1a823          	sw	a5,-560(gp)
   1fb68:	00068d93          	mv	s11,a3
   1fb6c:	41a50a33          	sub	s4,a0,s10
   1fb70:	020a1b93          	slli	s7,s4,0x20
   1fb74:	020bdb93          	srli	s7,s7,0x20
   1fb78:	001b9b13          	slli	s6,s7,0x1
   1fb7c:	016a8b33          	add	s6,s5,s6
   1fb80:	000b4c03          	lbu	s8,0(s6)
   1fb84:	000a069b          	sext.w	a3,s4
   1fb88:	02010593          	addi	a1,sp,32
   1fb8c:	000c0513          	mv	a0,s8
   1fb90:	00d13c23          	sd	a3,24(sp)
   1fb94:	d3df20ef          	jal	ra,128d0 <getrlimit@plt>
   1fb98:	040d9a63          	bnez	s11,1fbec <sigprocmask@plt+0xcb8c>
   1fb9c:	00100713          	li	a4,1
   1fba0:	03377863          	bgeu	a4,s3,1fbd0 <sigprocmask@plt+0xcb70>
   1fba4:	01813683          	ld	a3,24(sp)
   1fba8:	00025537          	lui	a0,0x25
   1fbac:	0ae50513          	addi	a0,a0,174 # 250ae <sigprocmask@plt+0x1204e>
   1fbb0:	00068593          	mv	a1,a3
   1fbb4:	fc5f30ef          	jal	ra,13b78 <sigprocmask@plt+0xb18>
   1fbb8:	017d0bb3          	add	s7,s10,s7
   1fbbc:	000bc603          	lbu	a2,0(s7)
   1fbc0:	00050593          	mv	a1,a0
   1fbc4:	00025537          	lui	a0,0x25
   1fbc8:	8e850513          	addi	a0,a0,-1816 # 248e8 <sigprocmask@plt+0x11888>
   1fbcc:	d55f20ef          	jal	ra,12920 <printf@plt>
   1fbd0:	020a1613          	slli	a2,s4,0x20
   1fbd4:	01f65613          	srli	a2,a2,0x1f
   1fbd8:	00ca8633          	add	a2,s5,a2
   1fbdc:	02010593          	addi	a1,sp,32
   1fbe0:	00040513          	mv	a0,s0
   1fbe4:	fe8ff0ef          	jal	ra,1f3cc <sigprocmask@plt+0xc36c>
   1fbe8:	f0dff06f          	j	1faf4 <sigprocmask@plt+0xca94>
   1fbec:	000255b7          	lui	a1,0x25
   1fbf0:	86858593          	addi	a1,a1,-1944 # 24868 <sigprocmask@plt+0x11808>
   1fbf4:	000d8513          	mv	a0,s11
   1fbf8:	9f8f30ef          	jal	ra,12df0 <strcmp@plt>
   1fbfc:	06050c63          	beqz	a0,1fc74 <sigprocmask@plt+0xcc14>
   1fc00:	00a00613          	li	a2,10
   1fc04:	00000593          	li	a1,0
   1fc08:	000d8513          	mv	a0,s11
   1fc0c:	f29f40ef          	jal	ra,14b34 <sigprocmask@plt+0x1ad4>
   1fc10:	01013783          	ld	a5,16(sp)
   1fc14:	0007a783          	lw	a5,0(a5)
   1fc18:	00078e63          	beqz	a5,1fc34 <sigprocmask@plt+0xcbd4>
   1fc1c:	00025537          	lui	a0,0x25
   1fc20:	000d8593          	mv	a1,s11
   1fc24:	8f850513          	addi	a0,a0,-1800 # 248f8 <sigprocmask@plt+0x11898>
   1fc28:	c7cf40ef          	jal	ra,140a4 <sigprocmask@plt+0x1044>
   1fc2c:	00100513          	li	a0,1
   1fc30:	e6dff06f          	j	1fa9c <sigprocmask@plt+0xca3c>
   1fc34:	001b4783          	lbu	a5,1(s6)
   1fc38:	00f51533          	sll	a0,a0,a5
   1fc3c:	00147793          	andi	a5,s0,1
   1fc40:	00078463          	beqz	a5,1fc48 <sigprocmask@plt+0xcbe8>
   1fc44:	02a13423          	sd	a0,40(sp)
   1fc48:	00247793          	andi	a5,s0,2
   1fc4c:	00078463          	beqz	a5,1fc54 <sigprocmask@plt+0xcbf4>
   1fc50:	02a13023          	sd	a0,32(sp)
   1fc54:	02010593          	addi	a1,sp,32
   1fc58:	000c0513          	mv	a0,s8
   1fc5c:	f05f20ef          	jal	ra,12b60 <setrlimit@plt>
   1fc60:	e8055ae3          	bgez	a0,1faf4 <sigprocmask@plt+0xca94>
   1fc64:	00025537          	lui	a0,0x25
   1fc68:	91050513          	addi	a0,a0,-1776 # 24910 <sigprocmask@plt+0x118b0>
   1fc6c:	998f40ef          	jal	ra,13e04 <sigprocmask@plt+0xda4>
   1fc70:	fbdff06f          	j	1fc2c <sigprocmask@plt+0xcbcc>
   1fc74:	fff00513          	li	a0,-1
   1fc78:	fc5ff06f          	j	1fc3c <sigprocmask@plt+0xcbdc>
   1fc7c:	e0099ee3          	bnez	s3,1fa98 <sigprocmask@plt+0xca38>
   1fc80:	02010593          	addi	a1,sp,32
   1fc84:	00100513          	li	a0,1
   1fc88:	c49f20ef          	jal	ra,128d0 <getrlimit@plt>
   1fc8c:	00025637          	lui	a2,0x25
   1fc90:	dc660613          	addi	a2,a2,-570 # 24dc6 <sigprocmask@plt+0x11d66>
   1fc94:	02010593          	addi	a1,sp,32
   1fc98:	00040513          	mv	a0,s0
   1fc9c:	f30ff0ef          	jal	ra,1f3cc <sigprocmask@plt+0xc36c>
   1fca0:	df9ff06f          	j	1fa98 <sigprocmask@plt+0xca38>
   1fca4:	00054783          	lbu	a5,0(a0)
   1fca8:	05f00713          	li	a4,95
   1fcac:	00e78c63          	beq	a5,a4,1fcc4 <sigprocmask@plt+0xcc64>
   1fcb0:	0207e793          	ori	a5,a5,32
   1fcb4:	f9f7879b          	addiw	a5,a5,-97
   1fcb8:	0ff7f793          	andi	a5,a5,255
   1fcbc:	01900713          	li	a4,25
   1fcc0:	02f76e63          	bltu	a4,a5,1fcfc <sigprocmask@plt+0xcc9c>
   1fcc4:	05f00693          	li	a3,95
   1fcc8:	00900613          	li	a2,9
   1fccc:	01900593          	li	a1,25
   1fcd0:	00154783          	lbu	a5,1(a0)
   1fcd4:	00150513          	addi	a0,a0,1
   1fcd8:	02078263          	beqz	a5,1fcfc <sigprocmask@plt+0xcc9c>
   1fcdc:	fed78ae3          	beq	a5,a3,1fcd0 <sigprocmask@plt+0xcc70>
   1fce0:	fd07871b          	addiw	a4,a5,-48
   1fce4:	0ff77713          	andi	a4,a4,255
   1fce8:	fee674e3          	bgeu	a2,a4,1fcd0 <sigprocmask@plt+0xcc70>
   1fcec:	0207e793          	ori	a5,a5,32
   1fcf0:	f9f7879b          	addiw	a5,a5,-97
   1fcf4:	0ff7f793          	andi	a5,a5,255
   1fcf8:	fcf5fce3          	bgeu	a1,a5,1fcd0 <sigprocmask@plt+0xcc70>
   1fcfc:	00008067          	ret
   1fd00:	02c58463          	beq	a1,a2,1fd28 <sigprocmask@plt+0xccc8>
   1fd04:	00161613          	slli	a2,a2,0x1
   1fd08:	00159593          	slli	a1,a1,0x1
   1fd0c:	00c50633          	add	a2,a0,a2
   1fd10:	00b50533          	add	a0,a0,a1
   1fd14:	00061783          	lh	a5,0(a2)
   1fd18:	00250513          	addi	a0,a0,2
   1fd1c:	00260613          	addi	a2,a2,2
   1fd20:	fef51f23          	sh	a5,-2(a0)
   1fd24:	fe0798e3          	bnez	a5,1fd14 <sigprocmask@plt+0xccb4>
   1fd28:	00008067          	ret
   1fd2c:	ff010113          	addi	sp,sp,-16
   1fd30:	00813023          	sd	s0,0(sp)
   1fd34:	d781b403          	ld	s0,-648(gp)
   1fd38:	00113423          	sd	ra,8(sp)
   1fd3c:	05043783          	ld	a5,80(s0)
   1fd40:	02079863          	bnez	a5,1fd70 <sigprocmask@plt+0xcd10>
   1fd44:	00813083          	ld	ra,8(sp)
   1fd48:	00013403          	ld	s0,0(sp)
   1fd4c:	01010113          	addi	sp,sp,16
   1fd50:	00008067          	ret
   1fd54:	fff7879b          	addiw	a5,a5,-1
   1fd58:	04f42c23          	sw	a5,88(s0)
   1fd5c:	02079793          	slli	a5,a5,0x20
   1fd60:	01d7d793          	srli	a5,a5,0x1d
   1fd64:	00f507b3          	add	a5,a0,a5
   1fd68:	0007b503          	ld	a0,0(a5)
   1fd6c:	ae4f30ef          	jal	ra,13050 <free@plt>
   1fd70:	05842783          	lw	a5,88(s0)
   1fd74:	05043503          	ld	a0,80(s0)
   1fd78:	fc079ee3          	bnez	a5,1fd54 <sigprocmask@plt+0xccf4>
   1fd7c:	ad4f30ef          	jal	ra,13050 <free@plt>
   1fd80:	04043823          	sd	zero,80(s0)
   1fd84:	fc1ff06f          	j	1fd44 <sigprocmask@plt+0xcce4>
   1fd88:	ff010113          	addi	sp,sp,-16
   1fd8c:	00813023          	sd	s0,0(sp)
   1fd90:	d781b403          	ld	s0,-648(gp)
   1fd94:	00113423          	sd	ra,8(sp)
   1fd98:	03043503          	ld	a0,48(s0)
   1fd9c:	ab4f30ef          	jal	ra,13050 <free@plt>
   1fda0:	04043503          	ld	a0,64(s0)
   1fda4:	aacf30ef          	jal	ra,13050 <free@plt>
   1fda8:	04843503          	ld	a0,72(s0)
   1fdac:	c5d18793          	addi	a5,gp,-931
   1fdb0:	00f50463          	beq	a0,a5,1fdb8 <sigprocmask@plt+0xcd58>
   1fdb4:	a9cf30ef          	jal	ra,13050 <free@plt>
   1fdb8:	00040513          	mv	a0,s0
   1fdbc:	00013403          	ld	s0,0(sp)
   1fdc0:	00813083          	ld	ra,8(sp)
   1fdc4:	01010113          	addi	sp,sp,16
   1fdc8:	a88f306f          	j	13050 <free@plt>
   1fdcc:	fc010113          	addi	sp,sp,-64
   1fdd0:	02813823          	sd	s0,48(sp)
   1fdd4:	02113c23          	sd	ra,56(sp)
   1fdd8:	02913423          	sd	s1,40(sp)
   1fddc:	03213023          	sd	s2,32(sp)
   1fde0:	01313c23          	sd	s3,24(sp)
   1fde4:	01413823          	sd	s4,16(sp)
   1fde8:	01513423          	sd	s5,8(sp)
   1fdec:	01613023          	sd	s6,0(sp)
   1fdf0:	00050413          	mv	s0,a0
   1fdf4:	97cf30ef          	jal	ra,12f70 <strlen@plt>
   1fdf8:	0005051b          	sext.w	a0,a0
   1fdfc:	00a407b3          	add	a5,s0,a0
   1fe00:	00a78733          	add	a4,a5,a0
   1fe04:	0007c783          	lbu	a5,0(a5)
   1fe08:	fff50513          	addi	a0,a0,-1
   1fe0c:	00f71023          	sh	a5,0(a4)
   1fe10:	0005079b          	sext.w	a5,a0
   1fe14:	fe07d4e3          	bgez	a5,1fdfc <sigprocmask@plt+0xcd9c>
   1fe18:	00040913          	mv	s2,s0
   1fe1c:	00040493          	mv	s1,s0
   1fe20:	00000593          	li	a1,0
   1fe24:	05c00a13          	li	s4,92
   1fe28:	00049783          	lh	a5,0(s1)
   1fe2c:	04079063          	bnez	a5,1fe6c <sigprocmask@plt+0xce0c>
   1fe30:	00000493          	li	s1,0
   1fe34:	00000993          	li	s3,0
   1fe38:	02700a13          	li	s4,39
   1fe3c:	02200a93          	li	s5,34
   1fe40:	00199693          	slli	a3,s3,0x1
   1fe44:	00d406b3          	add	a3,s0,a3
   1fe48:	00069703          	lh	a4,0(a3)
   1fe4c:	04071663          	bnez	a4,1fe98 <sigprocmask@plt+0xce38>
   1fe50:	00000793          	li	a5,0
   1fe54:	03b00a13          	li	s4,59
   1fe58:	02600493          	li	s1,38
   1fe5c:	03c00a93          	li	s5,60
   1fe60:	07c00993          	li	s3,124
   1fe64:	03e00b13          	li	s6,62
   1fe68:	0cc0006f          	j	1ff34 <sigprocmask@plt+0xced4>
   1fe6c:	0015899b          	addiw	s3,a1,1
   1fe70:	01479e63          	bne	a5,s4,1fe8c <sigprocmask@plt+0xce2c>
   1fe74:	00098613          	mv	a2,s3
   1fe78:	00040513          	mv	a0,s0
   1fe7c:	e85ff0ef          	jal	ra,1fd00 <sigprocmask@plt+0xcca0>
   1fe80:	0004d783          	lhu	a5,0(s1)
   1fe84:	1007e793          	ori	a5,a5,256
   1fe88:	00f49023          	sh	a5,0(s1)
   1fe8c:	00248493          	addi	s1,s1,2
   1fe90:	00098593          	mv	a1,s3
   1fe94:	f95ff06f          	j	1fe28 <sigprocmask@plt+0xcdc8>
   1fe98:	0007079b          	sext.w	a5,a4
   1fe9c:	fa070ce3          	beqz	a4,1fe54 <sigprocmask@plt+0xcdf4>
   1fea0:	0019861b          	addiw	a2,s3,1
   1fea4:	01478463          	beq	a5,s4,1feac <sigprocmask@plt+0xce4c>
   1fea8:	03579063          	bne	a5,s5,1fec8 <sigprocmask@plt+0xce68>
   1feac:	00048463          	beqz	s1,1feb4 <sigprocmask@plt+0xce54>
   1feb0:	00f49e63          	bne	s1,a5,1fecc <sigprocmask@plt+0xce6c>
   1feb4:	00098593          	mv	a1,s3
   1feb8:	00040513          	mv	a0,s0
   1febc:	00f4c4b3          	xor	s1,s1,a5
   1fec0:	e41ff0ef          	jal	ra,1fd00 <sigprocmask@plt+0xcca0>
   1fec4:	f7dff06f          	j	1fe40 <sigprocmask@plt+0xcde0>
   1fec8:	00048663          	beqz	s1,1fed4 <sigprocmask@plt+0xce74>
   1fecc:	10076713          	ori	a4,a4,256
   1fed0:	00e69023          	sh	a4,0(a3)
   1fed4:	0006099b          	sext.w	s3,a2
   1fed8:	f69ff06f          	j	1fe40 <sigprocmask@plt+0xcde0>
   1fedc:	0007059b          	sext.w	a1,a4
   1fee0:	01470663          	beq	a4,s4,1feec <sigprocmask@plt+0xce8c>
   1fee4:	00958463          	beq	a1,s1,1feec <sigprocmask@plt+0xce8c>
   1fee8:	05359463          	bne	a1,s3,1ff30 <sigprocmask@plt+0xced0>
   1feec:	00078863          	beqz	a5,1fefc <sigprocmask@plt+0xce9c>
   1fef0:	ffe69703          	lh	a4,-2(a3)
   1fef4:	02958863          	beq	a1,s1,1ff24 <sigprocmask@plt+0xcec4>
   1fef8:	1b358e63          	beq	a1,s3,200b4 <sigprocmask@plt+0xd054>
   1fefc:	00269603          	lh	a2,2(a3)
   1ff00:	0017879b          	addiw	a5,a5,1
   1ff04:	00040513          	mv	a0,s0
   1ff08:	40b60633          	sub	a2,a2,a1
   1ff0c:	00163613          	seqz	a2,a2
   1ff10:	00f6063b          	addw	a2,a2,a5
   1ff14:	00000593          	li	a1,0
   1ff18:	de9ff0ef          	jal	ra,1fd00 <sigprocmask@plt+0xcca0>
   1ff1c:	fff00793          	li	a5,-1
   1ff20:	0100006f          	j	1ff30 <sigprocmask@plt+0xced0>
   1ff24:	ffd77713          	andi	a4,a4,-3
   1ff28:	0007071b          	sext.w	a4,a4
   1ff2c:	fd5718e3          	bne	a4,s5,1fefc <sigprocmask@plt+0xce9c>
   1ff30:	0017879b          	addiw	a5,a5,1
   1ff34:	00179693          	slli	a3,a5,0x1
   1ff38:	00d406b3          	add	a3,s0,a3
   1ff3c:	00069703          	lh	a4,0(a3)
   1ff40:	f8071ee3          	bnez	a4,1fedc <sigprocmask@plt+0xce7c>
   1ff44:	00040493          	mv	s1,s0
   1ff48:	00000593          	li	a1,0
   1ff4c:	06000a13          	li	s4,96
   1ff50:	00049783          	lh	a5,0(s1)
   1ff54:	02078a63          	beqz	a5,1ff88 <sigprocmask@plt+0xcf28>
   1ff58:	0015899b          	addiw	s3,a1,1
   1ff5c:	17479863          	bne	a5,s4,200cc <sigprocmask@plt+0xd06c>
   1ff60:	00098793          	mv	a5,s3
   1ff64:	00179713          	slli	a4,a5,0x1
   1ff68:	00e40733          	add	a4,s0,a4
   1ff6c:	00071703          	lh	a4,0(a4)
   1ff70:	0007861b          	sext.w	a2,a5
   1ff74:	14071463          	bnez	a4,200bc <sigprocmask@plt+0xd05c>
   1ff78:	00098613          	mv	a2,s3
   1ff7c:	00000593          	li	a1,0
   1ff80:	00040513          	mv	a0,s0
   1ff84:	d7dff0ef          	jal	ra,1fd00 <sigprocmask@plt+0xcca0>
   1ff88:	00000613          	li	a2,0
   1ff8c:	02800493          	li	s1,40
   1ff90:	07b00993          	li	s3,123
   1ff94:	00161793          	slli	a5,a2,0x1
   1ff98:	00f407b3          	add	a5,s0,a5
   1ff9c:	00079783          	lh	a5,0(a5)
   1ffa0:	12079c63          	bnez	a5,200d8 <sigprocmask@plt+0xd078>
   1ffa4:	02000693          	li	a3,32
   1ffa8:	0007861b          	sext.w	a2,a5
   1ffac:	00178793          	addi	a5,a5,1
   1ffb0:	00179713          	slli	a4,a5,0x1
   1ffb4:	00e40733          	add	a4,s0,a4
   1ffb8:	ffe71703          	lh	a4,-2(a4)
   1ffbc:	fed706e3          	beq	a4,a3,1ffa8 <sigprocmask@plt+0xcf48>
   1ffc0:	00000593          	li	a1,0
   1ffc4:	00040513          	mv	a0,s0
   1ffc8:	d39ff0ef          	jal	ra,1fd00 <sigprocmask@plt+0xcca0>
   1ffcc:	00000713          	li	a4,0
   1ffd0:	00000493          	li	s1,0
   1ffd4:	02000693          	li	a3,32
   1ffd8:	06300613          	li	a2,99
   1ffdc:	06400593          	li	a1,100
   1ffe0:	00200513          	li	a0,2
   1ffe4:	03c00813          	li	a6,60
   1ffe8:	00171793          	slli	a5,a4,0x1
   1ffec:	00f407b3          	add	a5,s0,a5
   1fff0:	00079783          	lh	a5,0(a5)
   1fff4:	10079663          	bnez	a5,20100 <sigprocmask@plt+0xd0a0>
   1fff8:	00000713          	li	a4,0
   1fffc:	0007079b          	sext.w	a5,a4
   20000:	00170713          	addi	a4,a4,1
   20004:	00171693          	slli	a3,a4,0x1
   20008:	00d406b3          	add	a3,s0,a3
   2000c:	ffe69683          	lh	a3,-2(a3)
   20010:	fe0696e3          	bnez	a3,1fffc <sigprocmask@plt+0xcf9c>
   20014:	500006b7          	lui	a3,0x50000
   20018:	04168693          	addi	a3,a3,65 # 50000041 <optind+0x4ffd8a71>
   2001c:	fff7879b          	addiw	a5,a5,-1
   20020:	fff00513          	li	a0,-1
   20024:	03e00813          	li	a6,62
   20028:	02069693          	slli	a3,a3,0x20
   2002c:	07c00893          	li	a7,124
   20030:	0007861b          	sext.w	a2,a5
   20034:	04a60063          	beq	a2,a0,20074 <sigprocmask@plt+0xd014>
   20038:	00179713          	slli	a4,a5,0x1
   2003c:	00e40733          	add	a4,s0,a4
   20040:	00071583          	lh	a1,0(a4)
   20044:	03059713          	slli	a4,a1,0x30
   20048:	03075713          	srli	a4,a4,0x30
   2004c:	00e86863          	bltu	a6,a4,2005c <sigprocmask@plt+0xcffc>
   20050:	00e6d733          	srl	a4,a3,a4
   20054:	00177713          	andi	a4,a4,1
   20058:	00071663          	bnez	a4,20064 <sigprocmask@plt+0xd004>
   2005c:	fff78793          	addi	a5,a5,-1
   20060:	fd1598e3          	bne	a1,a7,20030 <sigprocmask@plt+0xcfd0>
   20064:	0016061b          	addiw	a2,a2,1
   20068:	00000593          	li	a1,0
   2006c:	00040513          	mv	a0,s0
   20070:	c91ff0ef          	jal	ra,1fd00 <sigprocmask@plt+0xcca0>
   20074:	00094783          	lbu	a5,0(s2)
   20078:	00140413          	addi	s0,s0,1
   2007c:	00290913          	addi	s2,s2,2
   20080:	fef40fa3          	sb	a5,-1(s0)
   20084:	fe0798e3          	bnez	a5,20074 <sigprocmask@plt+0xd014>
   20088:	03813083          	ld	ra,56(sp)
   2008c:	03013403          	ld	s0,48(sp)
   20090:	02013903          	ld	s2,32(sp)
   20094:	01813983          	ld	s3,24(sp)
   20098:	01013a03          	ld	s4,16(sp)
   2009c:	00813a83          	ld	s5,8(sp)
   200a0:	00013b03          	ld	s6,0(sp)
   200a4:	00048513          	mv	a0,s1
   200a8:	02813483          	ld	s1,40(sp)
   200ac:	04010113          	addi	sp,sp,64
   200b0:	00008067          	ret
   200b4:	e7670ee3          	beq	a4,s6,1ff30 <sigprocmask@plt+0xced0>
   200b8:	e45ff06f          	j	1fefc <sigprocmask@plt+0xce9c>
   200bc:	00178793          	addi	a5,a5,1
   200c0:	eb4712e3          	bne	a4,s4,1ff64 <sigprocmask@plt+0xcf04>
   200c4:	00040513          	mv	a0,s0
   200c8:	c39ff0ef          	jal	ra,1fd00 <sigprocmask@plt+0xcca0>
   200cc:	00248493          	addi	s1,s1,2
   200d0:	00098593          	mv	a1,s3
   200d4:	e7dff06f          	j	1ff50 <sigprocmask@plt+0xcef0>
   200d8:	0007871b          	sext.w	a4,a5
   200dc:	00978463          	beq	a5,s1,200e4 <sigprocmask@plt+0xd084>
   200e0:	01371c63          	bne	a4,s3,200f8 <sigprocmask@plt+0xd098>
   200e4:	0016061b          	addiw	a2,a2,1
   200e8:	00000593          	li	a1,0
   200ec:	00040513          	mv	a0,s0
   200f0:	c11ff0ef          	jal	ra,1fd00 <sigprocmask@plt+0xcca0>
   200f4:	fff00613          	li	a2,-1
   200f8:	0016061b          	addiw	a2,a2,1
   200fc:	e99ff06f          	j	1ff94 <sigprocmask@plt+0xcf34>
   20100:	00d78c63          	beq	a5,a3,20118 <sigprocmask@plt+0xd0b8>
   20104:	ffd7f793          	andi	a5,a5,-3
   20108:	0007879b          	sext.w	a5,a5
   2010c:	03078663          	beq	a5,a6,20138 <sigprocmask@plt+0xd0d8>
   20110:	00170713          	addi	a4,a4,1
   20114:	ed5ff06f          	j	1ffe8 <sigprocmask@plt+0xcf88>
   20118:	02049063          	bnez	s1,20138 <sigprocmask@plt+0xd0d8>
   2011c:	00044783          	lbu	a5,0(s0)
   20120:	00c79c63          	bne	a5,a2,20138 <sigprocmask@plt+0xd0d8>
   20124:	00244783          	lbu	a5,2(s0)
   20128:	00b79863          	bne	a5,a1,20138 <sigprocmask@plt+0xd0d8>
   2012c:	00a71663          	bne	a4,a0,20138 <sigprocmask@plt+0xd0d8>
   20130:	00100493          	li	s1,1
   20134:	fddff06f          	j	20110 <sigprocmask@plt+0xd0b0>
   20138:	00200493          	li	s1,2
   2013c:	ebdff06f          	j	1fff8 <sigprocmask@plt+0xcf98>
   20140:	81010113          	addi	sp,sp,-2032
   20144:	7c913c23          	sd	s1,2008(sp)
   20148:	00050493          	mv	s1,a0
   2014c:	02853503          	ld	a0,40(a0)
   20150:	7e113423          	sd	ra,2024(sp)
   20154:	7e813023          	sd	s0,2016(sp)
   20158:	7d213823          	sd	s2,2000(sp)
   2015c:	7d313423          	sd	s3,1992(sp)
   20160:	7d413023          	sd	s4,1984(sp)
   20164:	fc010113          	addi	sp,sp,-64
   20168:	fd5f30ef          	jal	ra,1413c <sigprocmask@plt+0x10dc>
   2016c:	0a050a63          	beqz	a0,20220 <sigprocmask@plt+0xd1c0>
   20170:	0184a903          	lw	s2,24(s1)
   20174:	00050993          	mv	s3,a0
   20178:	02091063          	bnez	s2,20198 <sigprocmask@plt+0xd138>
   2017c:	7f800613          	li	a2,2040
   20180:	00000593          	li	a1,0
   20184:	00810513          	addi	a0,sp,8
   20188:	bd9f20ef          	jal	ra,12d60 <memset@plt>
   2018c:	0204a223          	sw	zero,36(s1)
   20190:	00000413          	li	s0,0
   20194:	0340006f          	j	201c8 <sigprocmask@plt+0xd168>
   20198:	fff9041b          	addiw	s0,s2,-1
   2019c:	0004091b          	sext.w	s2,s0
   201a0:	02041413          	slli	s0,s0,0x20
   201a4:	01d45413          	srli	s0,s0,0x1d
   201a8:	00848433          	add	s0,s1,s0
   201ac:	03043503          	ld	a0,48(s0)
   201b0:	ea1f20ef          	jal	ra,13050 <free@plt>
   201b4:	02043823          	sd	zero,48(s0)
   201b8:	fc1ff06f          	j	20178 <sigprocmask@plt+0xd118>
   201bc:	000a4783          	lbu	a5,0(s4)
   201c0:	08079263          	bnez	a5,20244 <sigprocmask@plt+0xd1e4>
   201c4:	e8df20ef          	jal	ra,13050 <free@plt>
   201c8:	00098513          	mv	a0,s3
   201cc:	508030ef          	jal	ra,236d4 <sigprocmask@plt+0x10674>
   201d0:	00050a13          	mv	s4,a0
   201d4:	fe0514e3          	bnez	a0,201bc <sigprocmask@plt+0xd15c>
   201d8:	00098513          	mv	a0,s3
   201dc:	bb5f20ef          	jal	ra,12d90 <fclose@plt>
   201e0:	0244a783          	lw	a5,36(s1)
   201e4:	02078463          	beqz	a5,2020c <sigprocmask@plt+0xd1ac>
   201e8:	0204a703          	lw	a4,32(s1)
   201ec:	000016b7          	lui	a3,0x1
   201f0:	02041793          	slli	a5,s0,0x20
   201f4:	80068693          	addi	a3,a3,-2048 # 800 <longjmp@plt-0x12080>
   201f8:	01d7d793          	srli	a5,a5,0x1d
   201fc:	002686b3          	add	a3,a3,sp
   20200:	00f687b3          	add	a5,a3,a5
   20204:	8087b783          	ld	a5,-2040(a5)
   20208:	06078e63          	beqz	a5,20284 <sigprocmask@plt+0xd224>
   2020c:	00000913          	li	s2,0
   20210:	3ff00a13          	li	s4,1023
   20214:	0204a703          	lw	a4,32(s1)
   20218:	06e96e63          	bltu	s2,a4,20294 <sigprocmask@plt+0xd234>
   2021c:	0124ac23          	sw	s2,24(s1)
   20220:	04010113          	addi	sp,sp,64
   20224:	7e813083          	ld	ra,2024(sp)
   20228:	7e013403          	ld	s0,2016(sp)
   2022c:	7d813483          	ld	s1,2008(sp)
   20230:	7d013903          	ld	s2,2000(sp)
   20234:	7c813983          	ld	s3,1992(sp)
   20238:	7c013a03          	ld	s4,1984(sp)
   2023c:	7f010113          	addi	sp,sp,2032
   20240:	00008067          	ret
   20244:	000017b7          	lui	a5,0x1
   20248:	02041913          	slli	s2,s0,0x20
   2024c:	80078793          	addi	a5,a5,-2048 # 800 <longjmp@plt-0x12080>
   20250:	002787b3          	add	a5,a5,sp
   20254:	01d95913          	srli	s2,s2,0x1d
   20258:	01278933          	add	s2,a5,s2
   2025c:	80893503          	ld	a0,-2040(s2)
   20260:	0014041b          	addiw	s0,s0,1
   20264:	dedf20ef          	jal	ra,13050 <free@plt>
   20268:	0244a783          	lw	a5,36(s1)
   2026c:	81493423          	sd	s4,-2040(s2)
   20270:	0017879b          	addiw	a5,a5,1
   20274:	02f4a223          	sw	a5,36(s1)
   20278:	0204a783          	lw	a5,32(s1)
   2027c:	f48796e3          	bne	a5,s0,201c8 <sigprocmask@plt+0xd168>
   20280:	f11ff06f          	j	20190 <sigprocmask@plt+0xd130>
   20284:	0014041b          	addiw	s0,s0,1
   20288:	f6e412e3          	bne	s0,a4,201ec <sigprocmask@plt+0xd18c>
   2028c:	00000413          	li	s0,0
   20290:	f5dff06f          	j	201ec <sigprocmask@plt+0xd18c>
   20294:	000016b7          	lui	a3,0x1
   20298:	02041793          	slli	a5,s0,0x20
   2029c:	80068693          	addi	a3,a3,-2048 # 800 <longjmp@plt-0x12080>
   202a0:	01d7d793          	srli	a5,a5,0x1d
   202a4:	002686b3          	add	a3,a3,sp
   202a8:	00f687b3          	add	a5,a3,a5
   202ac:	8087b983          	ld	s3,-2040(a5)
   202b0:	f60986e3          	beqz	s3,2021c <sigprocmask@plt+0xd1bc>
   202b4:	0014041b          	addiw	s0,s0,1
   202b8:	00871463          	bne	a4,s0,202c0 <sigprocmask@plt+0xd260>
   202bc:	00000413          	li	s0,0
   202c0:	00098513          	mv	a0,s3
   202c4:	cadf20ef          	jal	ra,12f70 <strlen@plt>
   202c8:	0005051b          	sext.w	a0,a0
   202cc:	00aa7463          	bgeu	s4,a0,202d4 <sigprocmask@plt+0xd274>
   202d0:	3e098fa3          	sb	zero,1023(s3)
   202d4:	02091793          	slli	a5,s2,0x20
   202d8:	0207d793          	srli	a5,a5,0x20
   202dc:	00678793          	addi	a5,a5,6
   202e0:	00379793          	slli	a5,a5,0x3
   202e4:	00f487b3          	add	a5,s1,a5
   202e8:	0137b023          	sd	s3,0(a5)
   202ec:	0019091b          	addiw	s2,s2,1
   202f0:	f25ff06f          	j	20214 <sigprocmask@plt+0xd1b4>
   202f4:	0ff00793          	li	a5,255
   202f8:	02a7e863          	bltu	a5,a0,20328 <sigprocmask@plt+0xd2c8>
   202fc:	00050593          	mv	a1,a0
   20300:	00025537          	lui	a0,0x25
   20304:	ff010113          	addi	sp,sp,-16
   20308:	92850513          	addi	a0,a0,-1752 # 24928 <sigprocmask@plt+0x118c8>
   2030c:	00113423          	sd	ra,8(sp)
   20310:	cb1f20ef          	jal	ra,12fc0 <strchrnul@plt>
   20314:	00054503          	lbu	a0,0(a0)
   20318:	00813083          	ld	ra,8(sp)
   2031c:	00a03533          	snez	a0,a0
   20320:	01010113          	addi	sp,sp,16
   20324:	00008067          	ret
   20328:	00000513          	li	a0,0
   2032c:	00008067          	ret
   20330:	ff010113          	addi	sp,sp,-16
   20334:	00813023          	sd	s0,0(sp)
   20338:	00113423          	sd	ra,8(sp)
   2033c:	d781b403          	ld	s0,-648(gp)
   20340:	04050063          	beqz	a0,20380 <sigprocmask@plt+0xd320>
   20344:	03043503          	ld	a0,48(s0)
   20348:	000277b7          	lui	a5,0x27
   2034c:	e387b583          	ld	a1,-456(a5) # 26e38 <stdout>
   20350:	851f20ef          	jal	ra,12ba0 <fputs_unlocked@plt>
   20354:	01442783          	lw	a5,20(s0)
   20358:	00842703          	lw	a4,8(s0)
   2035c:	00813083          	ld	ra,8(sp)
   20360:	00042c23          	sw	zero,24(s0)
   20364:	02e7d6bb          	divuw	a3,a5,a4
   20368:	02e7f7bb          	remuw	a5,a5,a4
   2036c:	00d42823          	sw	a3,16(s0)
   20370:	00f42623          	sw	a5,12(s0)
   20374:	00013403          	ld	s0,0(sp)
   20378:	01010113          	addi	sp,sp,16
   2037c:	00008067          	ret
   20380:	03843503          	ld	a0,56(s0)
   20384:	fc5ff06f          	j	20348 <sigprocmask@plt+0xd2e8>
   20388:	f6010113          	addi	sp,sp,-160
   2038c:	00a13423          	sd	a0,8(sp)
   20390:	00100513          	li	a0,1
   20394:	09213023          	sd	s2,128(sp)
   20398:	07313c23          	sd	s3,120(sp)
   2039c:	07413823          	sd	s4,112(sp)
   203a0:	07513423          	sd	s5,104(sp)
   203a4:	07613023          	sd	s6,96(sp)
   203a8:	05713c23          	sd	s7,88(sp)
   203ac:	05813823          	sd	s8,80(sp)
   203b0:	08113c23          	sd	ra,152(sp)
   203b4:	08813823          	sd	s0,144(sp)
   203b8:	08913423          	sd	s1,136(sp)
   203bc:	05913423          	sd	s9,72(sp)
   203c0:	05a13023          	sd	s10,64(sp)
   203c4:	03b13c23          	sd	s11,56(sp)
   203c8:	9a4f40ef          	jal	ra,1456c <sigprocmask@plt+0x150c>
   203cc:	d781ba03          	ld	s4,-648(gp)
   203d0:	00025b37          	lui	s6,0x25
   203d4:	00024bb7          	lui	s7,0x24
   203d8:	00050993          	mv	s3,a0
   203dc:	000108a3          	sb	zero,17(sp)
   203e0:	05b00a93          	li	s5,91
   203e4:	00000913          	li	s2,0
   203e8:	00000c13          	li	s8,0
   203ec:	f5cb0b13          	addi	s6,s6,-164 # 24f5c <sigprocmask@plt+0x11efc>
   203f0:	d50b8b93          	addi	s7,s7,-688 # 23d50 <sigprocmask@plt+0x10cf0>
   203f4:	00813483          	ld	s1,8(sp)
   203f8:	0004c783          	lbu	a5,0(s1)
   203fc:	08079263          	bnez	a5,20480 <sigprocmask@plt+0xd420>
   20400:	000257b7          	lui	a5,0x25
   20404:	f5c78793          	addi	a5,a5,-164 # 24f5c <sigprocmask@plt+0x11efc>
   20408:	00f90663          	beq	s2,a5,20414 <sigprocmask@plt+0xd3b4>
   2040c:	00090513          	mv	a0,s2
   20410:	c41f20ef          	jal	ra,13050 <free@plt>
   20414:	d781b403          	ld	s0,-648(gp)
   20418:	00a00593          	li	a1,10
   2041c:	00098513          	mv	a0,s3
   20420:	03343c23          	sd	s3,56(s0)
   20424:	03343823          	sd	s3,48(s0)
   20428:	f28f20ef          	jal	ra,12b50 <strrchr@plt>
   2042c:	00a13423          	sd	a0,8(sp)
   20430:	00050663          	beqz	a0,2043c <sigprocmask@plt+0xd3dc>
   20434:	00150513          	addi	a0,a0,1
   20438:	02a43c23          	sd	a0,56(s0)
   2043c:	00100513          	li	a0,1
   20440:	ef1ff0ef          	jal	ra,20330 <sigprocmask@plt+0xd2d0>
   20444:	09813083          	ld	ra,152(sp)
   20448:	09013403          	ld	s0,144(sp)
   2044c:	08813483          	ld	s1,136(sp)
   20450:	08013903          	ld	s2,128(sp)
   20454:	07813983          	ld	s3,120(sp)
   20458:	07013a03          	ld	s4,112(sp)
   2045c:	06813a83          	ld	s5,104(sp)
   20460:	06013b03          	ld	s6,96(sp)
   20464:	05813b83          	ld	s7,88(sp)
   20468:	05013c03          	ld	s8,80(sp)
   2046c:	04813c83          	ld	s9,72(sp)
   20470:	04013d03          	ld	s10,64(sp)
   20474:	03813d83          	ld	s11,56(sp)
   20478:	0a010113          	addi	sp,sp,160
   2047c:	00008067          	ret
   20480:	01010793          	addi	a5,sp,16
   20484:	00148c93          	addi	s9,s1,1
   20488:	00f13c23          	sd	a5,24(sp)
   2048c:	01913423          	sd	s9,8(sp)
   20490:	0004c403          	lbu	s0,0(s1)
   20494:	05c00793          	li	a5,92
   20498:	0cf41263          	bne	s0,a5,2055c <sigprocmask@plt+0xd4fc>
   2049c:	0014c403          	lbu	s0,1(s1)
   204a0:	07400793          	li	a5,116
   204a4:	00f40863          	beq	s0,a5,204b4 <sigprocmask@plt+0xd454>
   204a8:	00810513          	addi	a0,sp,8
   204ac:	45c020ef          	jal	ra,22908 <sigprocmask@plt+0xf8a8>
   204b0:	00050413          	mv	s0,a0
   204b4:	00813783          	ld	a5,8(sp)
   204b8:	0afc9263          	bne	s9,a5,2055c <sigprocmask@plt+0xd4fc>
   204bc:	0014c783          	lbu	a5,1(s1)
   204c0:	f40780e3          	beqz	a5,20400 <sigprocmask@plt+0xd3a0>
   204c4:	001c8c93          	addi	s9,s9,1
   204c8:	01913423          	sd	s9,8(sp)
   204cc:	0014c403          	lbu	s0,1(s1)
   204d0:	07800793          	li	a5,120
   204d4:	1cf40463          	beq	s0,a5,2069c <sigprocmask@plt+0xd63c>
   204d8:	0887e263          	bltu	a5,s0,2055c <sigprocmask@plt+0xd4fc>
   204dc:	07700793          	li	a5,119
   204e0:	12f40e63          	beq	s0,a5,2061c <sigprocmask@plt+0xd5bc>
   204e4:	07500793          	li	a5,117
   204e8:	0af40263          	beq	s0,a5,2058c <sigprocmask@plt+0xd52c>
   204ec:	07600713          	li	a4,118
   204f0:	06e40663          	beq	s0,a4,2055c <sigprocmask@plt+0xd4fc>
   204f4:	07400713          	li	a4,116
   204f8:	04e40463          	beq	s0,a4,20540 <sigprocmask@plt+0xd4e0>
   204fc:	06f40063          	beq	s0,a5,2055c <sigprocmask@plt+0xd4fc>
   20500:	06800793          	li	a5,104
   20504:	08f40e63          	beq	s0,a5,205a0 <sigprocmask@plt+0xd540>
   20508:	05d00793          	li	a5,93
   2050c:	0487e863          	bltu	a5,s0,2055c <sigprocmask@plt+0xd4fc>
   20510:	05300793          	li	a5,83
   20514:	0487e863          	bltu	a5,s0,20564 <sigprocmask@plt+0xd504>
   20518:	04800793          	li	a5,72
   2051c:	08f40263          	beq	s0,a5,205a0 <sigprocmask@plt+0xd540>
   20520:	00000493          	li	s1,0
   20524:	0887ee63          	bltu	a5,s0,205c0 <sigprocmask@plt+0xd560>
   20528:	02400793          	li	a5,36
   2052c:	0cf40e63          	beq	s0,a5,20608 <sigprocmask@plt+0xd5a8>
   20530:	fc04079b          	addiw	a5,s0,-64
   20534:	0ff7f793          	andi	a5,a5,255
   20538:	00100713          	li	a4,1
   2053c:	08f76263          	bltu	a4,a5,205c0 <sigprocmask@plt+0xd560>
   20540:	02010493          	addi	s1,sp,32
   20544:	00000613          	li	a2,0
   20548:	00900593          	li	a1,9
   2054c:	00048513          	mv	a0,s1
   20550:	c30f40ef          	jal	ra,14980 <sigprocmask@plt+0x1920>
   20554:	fe050ea3          	sb	zero,-3(a0)
   20558:	00913c23          	sd	s1,24(sp)
   2055c:	00000493          	li	s1,0
   20560:	0600006f          	j	205c0 <sigprocmask@plt+0xd560>
   20564:	fac4079b          	addiw	a5,s0,-84
   20568:	0ff7f793          	andi	a5,a5,255
   2056c:	00900713          	li	a4,9
   20570:	fef766e3          	bltu	a4,a5,2055c <sigprocmask@plt+0xd4fc>
   20574:	00025737          	lui	a4,0x25
   20578:	00279793          	slli	a5,a5,0x2
   2057c:	c5470713          	addi	a4,a4,-940 # 24c54 <sigprocmask@plt+0x11bf4>
   20580:	00e787b3          	add	a5,a5,a4
   20584:	0007a783          	lw	a5,0(a5)
   20588:	00078067          	jr	a5
   2058c:	040a3783          	ld	a5,64(s4)
   20590:	00079463          	bnez	a5,20598 <sigprocmask@plt+0xd538>
   20594:	000b8793          	mv	a5,s7
   20598:	00f13c23          	sd	a5,24(sp)
   2059c:	fc1ff06f          	j	2055c <sigprocmask@plt+0xd4fc>
   205a0:	744020ef          	jal	ra,22ce4 <sigprocmask@plt+0xfc84>
   205a4:	00a13c23          	sd	a0,24(sp)
   205a8:	06800793          	li	a5,104
   205ac:	00050493          	mv	s1,a0
   205b0:	00f41863          	bne	s0,a5,205c0 <sigprocmask@plt+0xd560>
   205b4:	02e00593          	li	a1,46
   205b8:	a09f20ef          	jal	ra,12fc0 <strchrnul@plt>
   205bc:	00050023          	sb	zero,0(a0)
   205c0:	01813503          	ld	a0,24(sp)
   205c4:	00810823          	sb	s0,16(sp)
   205c8:	9a9f20ef          	jal	ra,12f70 <strlen@plt>
   205cc:	00a00713          	li	a4,10
   205d0:	00050793          	mv	a5,a0
   205d4:	00050c9b          	sext.w	s9,a0
   205d8:	16e41463          	bne	s0,a4,20740 <sigprocmask@plt+0xd6e0>
   205dc:	000a2a23          	sw	zero,20(s4)
   205e0:	019c0c3b          	addw	s8,s8,s9
   205e4:	001c059b          	addiw	a1,s8,1
   205e8:	00098513          	mv	a0,s3
   205ec:	f51f30ef          	jal	ra,1453c <sigprocmask@plt+0x14dc>
   205f0:	01813583          	ld	a1,24(sp)
   205f4:	dccf20ef          	jal	ra,12bc0 <strcat@plt>
   205f8:	00050993          	mv	s3,a0
   205fc:	00048513          	mv	a0,s1
   20600:	a51f20ef          	jal	ra,13050 <free@plt>
   20604:	df1ff06f          	j	203f4 <sigprocmask@plt+0xd394>
   20608:	b48f20ef          	jal	ra,12950 <geteuid@plt>
   2060c:	0005051b          	sext.w	a0,a0
   20610:	fa0518e3          	bnez	a0,205c0 <sigprocmask@plt+0xd560>
   20614:	02300413          	li	s0,35
   20618:	fa9ff06f          	j	205c0 <sigprocmask@plt+0xd560>
   2061c:	04091663          	bnez	s2,20668 <sigprocmask@plt+0xd608>
   20620:	00000513          	li	a0,0
   20624:	bfcf40ef          	jal	ra,14a20 <sigprocmask@plt+0x19c0>
   20628:	00050913          	mv	s2,a0
   2062c:	06050463          	beqz	a0,20694 <sigprocmask@plt+0xd634>
   20630:	048a3583          	ld	a1,72(s4)
   20634:	0005c783          	lbu	a5,0(a1)
   20638:	02078863          	beqz	a5,20668 <sigprocmask@plt+0xd608>
   2063c:	d14f30ef          	jal	ra,13b50 <sigprocmask@plt+0xaf0>
   20640:	00050593          	mv	a1,a0
   20644:	02050263          	beqz	a0,20668 <sigprocmask@plt+0xd608>
   20648:	00054783          	lbu	a5,0(a0)
   2064c:	02f00713          	li	a4,47
   20650:	00e78463          	beq	a5,a4,20658 <sigprocmask@plt+0xd5f8>
   20654:	00079a63          	bnez	a5,20668 <sigprocmask@plt+0xd608>
   20658:	07e00793          	li	a5,126
   2065c:	00f90023          	sb	a5,0(s2)
   20660:	00190513          	addi	a0,s2,1
   20664:	768020ef          	jal	ra,22dcc <sigprocmask@plt+0xfd6c>
   20668:	01213c23          	sd	s2,24(sp)
   2066c:	07700793          	li	a5,119
   20670:	00000493          	li	s1,0
   20674:	f4f406e3          	beq	s0,a5,205c0 <sigprocmask@plt+0xd560>
   20678:	02f00593          	li	a1,47
   2067c:	00090513          	mv	a0,s2
   20680:	cd0f20ef          	jal	ra,12b50 <strrchr@plt>
   20684:	00050493          	mv	s1,a0
   20688:	f2050ce3          	beqz	a0,205c0 <sigprocmask@plt+0xd560>
   2068c:	00150493          	addi	s1,a0,1
   20690:	ec9ff06f          	j	20558 <sigprocmask@plt+0xd4f8>
   20694:	000b0913          	mv	s2,s6
   20698:	fd1ff06f          	j	20668 <sigprocmask@plt+0xd608>
   2069c:	02010493          	addi	s1,sp,32
   206a0:	00000413          	li	s0,0
   206a4:	00048c93          	mv	s9,s1
   206a8:	00300d93          	li	s11,3
   206ac:	00813783          	ld	a5,8(sp)
   206b0:	01000613          	li	a2,16
   206b4:	01810593          	addi	a1,sp,24
   206b8:	0007c783          	lbu	a5,0(a5)
   206bc:	000c8513          	mv	a0,s9
   206c0:	000480a3          	sb	zero,1(s1)
   206c4:	00f48023          	sb	a5,0(s1)
   206c8:	bf8f20ef          	jal	ra,12ac0 <strtoul@plt>
   206cc:	0005051b          	sext.w	a0,a0
   206d0:	0ff00713          	li	a4,255
   206d4:	00040d1b          	sext.w	s10,s0
   206d8:	00a76a63          	bltu	a4,a0,206ec <sigprocmask@plt+0xd68c>
   206dc:	01813783          	ld	a5,24(sp)
   206e0:	00140413          	addi	s0,s0,1
   206e4:	419787b3          	sub	a5,a5,s9
   206e8:	0287da63          	bge	a5,s0,2071c <sigprocmask@plt+0xd6bc>
   206ec:	03010793          	addi	a5,sp,48
   206f0:	01a78d33          	add	s10,a5,s10
   206f4:	fe0d0823          	sb	zero,-16(s10) # 1ffff0 <optind+0x1d8a20>
   206f8:	01000613          	li	a2,16
   206fc:	00000593          	li	a1,0
   20700:	000c8513          	mv	a0,s9
   20704:	bbcf20ef          	jal	ra,12ac0 <strtoul@plt>
   20708:	0ff57413          	andi	s0,a0,255
   2070c:	00041463          	bnez	s0,20714 <sigprocmask@plt+0xd6b4>
   20710:	03f00413          	li	s0,63
   20714:	01010793          	addi	a5,sp,16
   20718:	e81ff06f          	j	20598 <sigprocmask@plt+0xd538>
   2071c:	00813783          	ld	a5,8(sp)
   20720:	00148493          	addi	s1,s1,1
   20724:	00178793          	addi	a5,a5,1
   20728:	00f13423          	sd	a5,8(sp)
   2072c:	f9b410e3          	bne	s0,s11,206ac <sigprocmask@plt+0xd64c>
   20730:	fc9ff06f          	j	206f8 <sigprocmask@plt+0xd698>
   20734:	e28a94e3          	bne	s5,s0,2055c <sigprocmask@plt+0xd4fc>
   20738:	006aca93          	xori	s5,s5,6
   2073c:	cb9ff06f          	j	203f4 <sigprocmask@plt+0xd394>
   20740:	05d00713          	li	a4,93
   20744:	e8ea8ee3          	beq	s5,a4,205e0 <sigprocmask@plt+0xd580>
   20748:	00100713          	li	a4,1
   2074c:	01813503          	ld	a0,24(sp)
   20750:	02ec9263          	bne	s9,a4,20774 <sigprocmask@plt+0xd714>
   20754:	00054703          	lbu	a4,0(a0)
   20758:	03f00693          	li	a3,63
   2075c:	08074713          	xori	a4,a4,128
   20760:	e8e6f0e3          	bgeu	a3,a4,205e0 <sigprocmask@plt+0xd580>
   20764:	014a2503          	lw	a0,20(s4)
   20768:	00a787bb          	addw	a5,a5,a0
   2076c:	00fa2a23          	sw	a5,20(s4)
   20770:	e71ff06f          	j	205e0 <sigprocmask@plt+0xd580>
   20774:	50d020ef          	jal	ra,23480 <sigprocmask@plt+0x10420>
   20778:	014a2783          	lw	a5,20(s4)
   2077c:	fedff06f          	j	20768 <sigprocmask@plt+0xd708>
   20780:	ff010113          	addi	sp,sp,-16
   20784:	00813023          	sd	s0,0(sp)
   20788:	d781b403          	ld	s0,-648(gp)
   2078c:	00050593          	mv	a1,a0
   20790:	00113423          	sd	ra,8(sp)
   20794:	02042603          	lw	a2,32(s0)
   20798:	02843503          	ld	a0,40(s0)
   2079c:	fff6061b          	addiw	a2,a2,-1
   207a0:	229020ef          	jal	ra,231c8 <sigprocmask@plt+0x10168>
   207a4:	00055463          	bgez	a0,207ac <sigprocmask@plt+0xd74c>
   207a8:	00000513          	li	a0,0
   207ac:	02843783          	ld	a5,40(s0)
   207b0:	00813083          	ld	ra,8(sp)
   207b4:	00013403          	ld	s0,0(sp)
   207b8:	00251713          	slli	a4,a0,0x2
   207bc:	00e787b3          	add	a5,a5,a4
   207c0:	0007a023          	sw	zero,0(a5)
   207c4:	01010113          	addi	sp,sp,16
   207c8:	00008067          	ret
   207cc:	f9010113          	addi	sp,sp,-112
   207d0:	06813023          	sd	s0,96(sp)
   207d4:	04913c23          	sd	s1,88(sp)
   207d8:	05213823          	sd	s2,80(sp)
   207dc:	05313423          	sd	s3,72(sp)
   207e0:	05413023          	sd	s4,64(sp)
   207e4:	03513c23          	sd	s5,56(sp)
   207e8:	03613823          	sd	s6,48(sp)
   207ec:	03713423          	sd	s7,40(sp)
   207f0:	03813023          	sd	s8,32(sp)
   207f4:	06113423          	sd	ra,104(sp)
   207f8:	00050913          	mv	s2,a0
   207fc:	00b13423          	sd	a1,8(sp)
   20800:	eb9f30ef          	jal	ra,146b8 <sigprocmask@plt+0x1658>
   20804:	d781b983          	ld	s3,-648(gp)
   20808:	ca01b783          	ld	a5,-864(gp)
   2080c:	00813603          	ld	a2,8(sp)
   20810:	01810493          	addi	s1,sp,24
   20814:	00000413          	li	s0,0
   20818:	00048a93          	mv	s5,s1
   2081c:	00100a13          	li	s4,1
   20820:	00100b13          	li	s6,1
   20824:	00078c13          	mv	s8,a5
   20828:	00600b93          	li	s7,6
   2082c:	0769a223          	sw	s6,100(s3)
   20830:	00090593          	mv	a1,s2
   20834:	00000513          	li	a0,0
   20838:	198020ef          	jal	ra,229d0 <sigprocmask@plt+0xf970>
   2083c:	0609a223          	sw	zero,100(s3)
   20840:	000c2783          	lw	a5,0(s8)
   20844:	04078263          	beqz	a5,20888 <sigprocmask@plt+0xd828>
   20848:	00b00713          	li	a4,11
   2084c:	00e79463          	bne	a5,a4,20854 <sigprocmask@plt+0xd7f4>
   20850:	06041863          	bnez	s0,208c0 <sigprocmask@plt+0xd860>
   20854:	06813083          	ld	ra,104(sp)
   20858:	06013403          	ld	s0,96(sp)
   2085c:	05813483          	ld	s1,88(sp)
   20860:	05013903          	ld	s2,80(sp)
   20864:	04813983          	ld	s3,72(sp)
   20868:	04013a03          	ld	s4,64(sp)
   2086c:	03813a83          	ld	s5,56(sp)
   20870:	03013b03          	ld	s6,48(sp)
   20874:	02813b83          	ld	s7,40(sp)
   20878:	02013c03          	ld	s8,32(sp)
   2087c:	0005051b          	sext.w	a0,a0
   20880:	07010113          	addi	sp,sp,112
   20884:	00008067          	ret
   20888:	0005079b          	sext.w	a5,a0
   2088c:	fc07c4e3          	bltz	a5,20854 <sigprocmask@plt+0xd7f4>
   20890:	00a48023          	sb	a0,0(s1)
   20894:	00100613          	li	a2,1
   20898:	000a8593          	mv	a1,s5
   2089c:	01410513          	addi	a0,sp,20
   208a0:	0014041b          	addiw	s0,s0,1
   208a4:	000480a3          	sb	zero,1(s1)
   208a8:	121020ef          	jal	ra,231c8 <sigprocmask@plt+0x10168>
   208ac:	03450663          	beq	a0,s4,208d8 <sigprocmask@plt+0xd878>
   208b0:	00148493          	addi	s1,s1,1
   208b4:	01740663          	beq	s0,s7,208c0 <sigprocmask@plt+0xd860>
   208b8:	03200613          	li	a2,50
   208bc:	f71ff06f          	j	2082c <sigprocmask@plt+0xd7cc>
   208c0:	00090513          	mv	a0,s2
   208c4:	fff4061b          	addiw	a2,s0,-1
   208c8:	01910593          	addi	a1,sp,25
   208cc:	320020ef          	jal	ra,22bec <sigprocmask@plt+0xfb8c>
   208d0:	03f00513          	li	a0,63
   208d4:	f81ff06f          	j	20854 <sigprocmask@plt+0xd7f4>
   208d8:	01412503          	lw	a0,20(sp)
   208dc:	f79ff06f          	j	20854 <sigprocmask@plt+0xd7f4>
   208e0:	fe010113          	addi	sp,sp,-32
   208e4:	00913423          	sd	s1,8(sp)
   208e8:	d781b483          	ld	s1,-648(gp)
   208ec:	00113c23          	sd	ra,24(sp)
   208f0:	00813823          	sd	s0,16(sp)
   208f4:	0184a783          	lw	a5,24(s1)
   208f8:	00050713          	mv	a4,a0
   208fc:	00f56463          	bltu	a0,a5,20904 <sigprocmask@plt+0xd8a4>
   20900:	00078713          	mv	a4,a5
   20904:	0007041b          	sext.w	s0,a4
   20908:	02040a63          	beqz	s0,2093c <sigprocmask@plt+0xd8dc>
   2090c:	40e787bb          	subw	a5,a5,a4
   20910:	00c4a703          	lw	a4,12(s1)
   20914:	00f4ac23          	sw	a5,24(s1)
   20918:	04876c63          	bltu	a4,s0,20970 <sigprocmask@plt+0xd910>
   2091c:	408707bb          	subw	a5,a4,s0
   20920:	00f4a623          	sw	a5,12(s1)
   20924:	00400793          	li	a5,4
   20928:	0287e463          	bltu	a5,s0,20950 <sigprocmask@plt+0xd8f0>
   2092c:	00800513          	li	a0,8
   20930:	fff4041b          	addiw	s0,s0,-1
   20934:	d8df30ef          	jal	ra,146c0 <sigprocmask@plt+0x1660>
   20938:	fe041ae3          	bnez	s0,2092c <sigprocmask@plt+0xd8cc>
   2093c:	01813083          	ld	ra,24(sp)
   20940:	01013403          	ld	s0,16(sp)
   20944:	00813483          	ld	s1,8(sp)
   20948:	02010113          	addi	sp,sp,32
   2094c:	00008067          	ret
   20950:	00025537          	lui	a0,0x25
   20954:	00040593          	mv	a1,s0
   20958:	95050513          	addi	a0,a0,-1712 # 24950 <sigprocmask@plt+0x118f0>
   2095c:	01013403          	ld	s0,16(sp)
   20960:	01813083          	ld	ra,24(sp)
   20964:	00813483          	ld	s1,8(sp)
   20968:	02010113          	addi	sp,sp,32
   2096c:	fb5f106f          	j	12920 <printf@plt>
   20970:	0084a603          	lw	a2,8(s1)
   20974:	0104a683          	lw	a3,16(s1)
   20978:	fff74593          	not	a1,a4
   2097c:	008585bb          	addw	a1,a1,s0
   20980:	02d607bb          	mulw	a5,a2,a3
   20984:	00025537          	lui	a0,0x25
   20988:	95850513          	addi	a0,a0,-1704 # 24958 <sigprocmask@plt+0x118f8>
   2098c:	02c5d5bb          	divuw	a1,a1,a2
   20990:	00e787bb          	addw	a5,a5,a4
   20994:	408787bb          	subw	a5,a5,s0
   20998:	02c7f7bb          	remuw	a5,a5,a2
   2099c:	0015859b          	addiw	a1,a1,1
   209a0:	40b686bb          	subw	a3,a3,a1
   209a4:	00d4a823          	sw	a3,16(s1)
   209a8:	00f4a623          	sw	a5,12(s1)
   209ac:	f75f10ef          	jal	ra,12920 <printf@plt>
   209b0:	00c4a583          	lw	a1,12(s1)
   209b4:	f80584e3          	beqz	a1,2093c <sigprocmask@plt+0xd8dc>
   209b8:	00025537          	lui	a0,0x25
   209bc:	96050513          	addi	a0,a0,-1696 # 24960 <sigprocmask@plt+0x11900>
   209c0:	f9dff06f          	j	2095c <sigprocmask@plt+0xd8fc>
   209c4:	fe010113          	addi	sp,sp,-32
   209c8:	00813823          	sd	s0,16(sp)
   209cc:	d781b403          	ld	s0,-648(gp)
   209d0:	00913423          	sd	s1,8(sp)
   209d4:	01213023          	sd	s2,0(sp)
   209d8:	02843483          	ld	s1,40(s0)
   209dc:	00113c23          	sd	ra,24(sp)
   209e0:	02000913          	li	s2,32
   209e4:	00100513          	li	a0,1
   209e8:	ef9ff0ef          	jal	ra,208e0 <sigprocmask@plt+0xd880>
   209ec:	01842783          	lw	a5,24(s0)
   209f0:	04078c63          	beqz	a5,20a48 <sigprocmask@plt+0xd9e8>
   209f4:	02079793          	slli	a5,a5,0x20
   209f8:	01e7d793          	srli	a5,a5,0x1e
   209fc:	00f487b3          	add	a5,s1,a5
   20a00:	0007a503          	lw	a0,0(a5)
   20a04:	ff2500e3          	beq	a0,s2,209e4 <sigprocmask@plt+0xd984>
   20a08:	8edff0ef          	jal	ra,202f4 <sigprocmask@plt+0xd294>
   20a0c:	fc051ce3          	bnez	a0,209e4 <sigprocmask@plt+0xd984>
   20a10:	02000913          	li	s2,32
   20a14:	01842783          	lw	a5,24(s0)
   20a18:	fff7879b          	addiw	a5,a5,-1
   20a1c:	02079793          	slli	a5,a5,0x20
   20a20:	01e7d793          	srli	a5,a5,0x1e
   20a24:	00f487b3          	add	a5,s1,a5
   20a28:	0007a503          	lw	a0,0(a5)
   20a2c:	01250e63          	beq	a0,s2,20a48 <sigprocmask@plt+0xd9e8>
   20a30:	8c5ff0ef          	jal	ra,202f4 <sigprocmask@plt+0xd294>
   20a34:	00051a63          	bnez	a0,20a48 <sigprocmask@plt+0xd9e8>
   20a38:	00100513          	li	a0,1
   20a3c:	ea5ff0ef          	jal	ra,208e0 <sigprocmask@plt+0xd880>
   20a40:	01842783          	lw	a5,24(s0)
   20a44:	fc0798e3          	bnez	a5,20a14 <sigprocmask@plt+0xd9b4>
   20a48:	01813083          	ld	ra,24(sp)
   20a4c:	01013403          	ld	s0,16(sp)
   20a50:	00813483          	ld	s1,8(sp)
   20a54:	00013903          	ld	s2,0(sp)
   20a58:	02010113          	addi	sp,sp,32
   20a5c:	00008067          	ret
   20a60:	fc010113          	addi	sp,sp,-64
   20a64:	02113c23          	sd	ra,56(sp)
   20a68:	02813823          	sd	s0,48(sp)
   20a6c:	02913423          	sd	s1,40(sp)
   20a70:	03213023          	sd	s2,32(sp)
   20a74:	01413823          	sd	s4,16(sp)
   20a78:	01513423          	sd	s5,8(sp)
   20a7c:	01313c23          	sd	s3,24(sp)
   20a80:	00050913          	mv	s2,a0
   20a84:	cecf20ef          	jal	ra,12f70 <strlen@plt>
   20a88:	00150513          	addi	a0,a0,1
   20a8c:	00151513          	slli	a0,a0,0x1
   20a90:	addf30ef          	jal	ra,1456c <sigprocmask@plt+0x150c>
   20a94:	00050493          	mv	s1,a0
   20a98:	00000413          	li	s0,0
   20a9c:	00025a37          	lui	s4,0x25
   20aa0:	05c00a93          	li	s5,92
   20aa4:	00094983          	lbu	s3,0(s2)
   20aa8:	02099663          	bnez	s3,20ad4 <sigprocmask@plt+0xda74>
   20aac:	03813083          	ld	ra,56(sp)
   20ab0:	03013403          	ld	s0,48(sp)
   20ab4:	02013903          	ld	s2,32(sp)
   20ab8:	01813983          	ld	s3,24(sp)
   20abc:	01013a03          	ld	s4,16(sp)
   20ac0:	00813a83          	ld	s5,8(sp)
   20ac4:	00048513          	mv	a0,s1
   20ac8:	02813483          	ld	s1,40(sp)
   20acc:	04010113          	addi	sp,sp,64
   20ad0:	00008067          	ret
   20ad4:	00098593          	mv	a1,s3
   20ad8:	968a0513          	addi	a0,s4,-1688 # 24968 <sigprocmask@plt+0x11908>
   20adc:	cb4f20ef          	jal	ra,12f90 <strchr@plt>
   20ae0:	00050863          	beqz	a0,20af0 <sigprocmask@plt+0xda90>
   20ae4:	008487b3          	add	a5,s1,s0
   20ae8:	01578023          	sb	s5,0(a5)
   20aec:	0014041b          	addiw	s0,s0,1
   20af0:	008487b3          	add	a5,s1,s0
   20af4:	00190913          	addi	s2,s2,1
   20af8:	01378023          	sb	s3,0(a5)
   20afc:	0014041b          	addiw	s0,s0,1
   20b00:	fa5ff06f          	j	20aa4 <sigprocmask@plt+0xda44>
   20b04:	fe010113          	addi	sp,sp,-32
   20b08:	00913423          	sd	s1,8(sp)
   20b0c:	00113c23          	sd	ra,24(sp)
   20b10:	00813823          	sd	s0,16(sp)
   20b14:	00050493          	mv	s1,a0
   20b18:	00050713          	mv	a4,a0
   20b1c:	01f00693          	li	a3,31
   20b20:	07f00613          	li	a2,127
   20b24:	00074783          	lbu	a5,0(a4)
   20b28:	04079863          	bnez	a5,20b78 <sigprocmask@plt+0xdb18>
   20b2c:	d781b403          	ld	s0,-648(gp)
   20b30:	000015b7          	lui	a1,0x1
   20b34:	80458593          	addi	a1,a1,-2044 # 804 <longjmp@plt-0x1207c>
   20b38:	05842603          	lw	a2,88(s0)
   20b3c:	05043503          	ld	a0,80(s0)
   20b40:	175020ef          	jal	ra,234b4 <sigprocmask@plt+0x10454>
   20b44:	05842703          	lw	a4,88(s0)
   20b48:	04a43823          	sd	a0,80(s0)
   20b4c:	01813083          	ld	ra,24(sp)
   20b50:	02071793          	slli	a5,a4,0x20
   20b54:	01d7d793          	srli	a5,a5,0x1d
   20b58:	00f507b3          	add	a5,a0,a5
   20b5c:	0097b023          	sd	s1,0(a5)
   20b60:	0017071b          	addiw	a4,a4,1
   20b64:	04e42c23          	sw	a4,88(s0)
   20b68:	01013403          	ld	s0,16(sp)
   20b6c:	00813483          	ld	s1,8(sp)
   20b70:	02010113          	addi	sp,sp,32
   20b74:	00008067          	ret
   20b78:	00f6f463          	bgeu	a3,a5,20b80 <sigprocmask@plt+0xdb20>
   20b7c:	00c79e63          	bne	a5,a2,20b98 <sigprocmask@plt+0xdb38>
   20b80:	01013403          	ld	s0,16(sp)
   20b84:	01813083          	ld	ra,24(sp)
   20b88:	00048513          	mv	a0,s1
   20b8c:	00813483          	ld	s1,8(sp)
   20b90:	02010113          	addi	sp,sp,32
   20b94:	cbcf206f          	j	13050 <free@plt>
   20b98:	00170713          	addi	a4,a4,1
   20b9c:	f89ff06f          	j	20b24 <sigprocmask@plt+0xdac4>
   20ba0:	fd010113          	addi	sp,sp,-48
   20ba4:	00913c23          	sd	s1,24(sp)
   20ba8:	00150493          	addi	s1,a0,1
   20bac:	00048513          	mv	a0,s1
   20bb0:	02113423          	sd	ra,40(sp)
   20bb4:	01213823          	sd	s2,16(sp)
   20bb8:	01313423          	sd	s3,8(sp)
   20bbc:	02813023          	sd	s0,32(sp)
   20bc0:	bb0f20ef          	jal	ra,12f70 <strlen@plt>
   20bc4:	00050913          	mv	s2,a0
   20bc8:	000259b7          	lui	s3,0x25
   20bcc:	fe5f10ef          	jal	ra,12bb0 <setpwent@plt>
   20bd0:	b80f20ef          	jal	ra,12f50 <getpwent@plt>
   20bd4:	00050413          	mv	s0,a0
   20bd8:	02051463          	bnez	a0,20c00 <sigprocmask@plt+0xdba0>
   20bdc:	ec5f10ef          	jal	ra,12aa0 <endpwent@plt>
   20be0:	02813083          	ld	ra,40(sp)
   20be4:	02013403          	ld	s0,32(sp)
   20be8:	01813483          	ld	s1,24(sp)
   20bec:	00813983          	ld	s3,8(sp)
   20bf0:	0019051b          	addiw	a0,s2,1
   20bf4:	01013903          	ld	s2,16(sp)
   20bf8:	03010113          	addi	sp,sp,48
   20bfc:	00008067          	ret
   20c00:	00043503          	ld	a0,0(s0)
   20c04:	00048593          	mv	a1,s1
   20c08:	f49f20ef          	jal	ra,13b50 <sigprocmask@plt+0xaf0>
   20c0c:	fc0502e3          	beqz	a0,20bd0 <sigprocmask@plt+0xdb70>
   20c10:	00043583          	ld	a1,0(s0)
   20c14:	98898513          	addi	a0,s3,-1656 # 24988 <sigprocmask@plt+0x11928>
   20c18:	aadf30ef          	jal	ra,146c4 <sigprocmask@plt+0x1664>
   20c1c:	ee9ff0ef          	jal	ra,20b04 <sigprocmask@plt+0xdaa4>
   20c20:	fb1ff06f          	j	20bd0 <sigprocmask@plt+0xdb70>
   20c24:	ed010113          	addi	sp,sp,-304
   20c28:	10913c23          	sd	s1,280(sp)
   20c2c:	000244b7          	lui	s1,0x24
   20c30:	f6848793          	addi	a5,s1,-152 # 23f68 <sigprocmask@plt+0x10f08>
   20c34:	11413023          	sd	s4,256(sp)
   20c38:	00058a13          	mv	s4,a1
   20c3c:	02f00593          	li	a1,47
   20c40:	12813023          	sd	s0,288(sp)
   20c44:	11313423          	sd	s3,264(sp)
   20c48:	02f13c23          	sd	a5,56(sp)
   20c4c:	12113423          	sd	ra,296(sp)
   20c50:	11213823          	sd	s2,272(sp)
   20c54:	0f513c23          	sd	s5,248(sp)
   20c58:	0f613823          	sd	s6,240(sp)
   20c5c:	0f713423          	sd	s7,232(sp)
   20c60:	0f813023          	sd	s8,224(sp)
   20c64:	0d913c23          	sd	s9,216(sp)
   20c68:	0da13823          	sd	s10,208(sp)
   20c6c:	0db13423          	sd	s11,200(sp)
   20c70:	00050993          	mv	s3,a0
   20c74:	eddf10ef          	jal	ra,12b50 <strrchr@plt>
   20c78:	f6848793          	addi	a5,s1,-152
   20c7c:	00f13823          	sd	a5,16(sp)
   20c80:	00050413          	mv	s0,a0
   20c84:	16051a63          	bnez	a0,20df8 <sigprocmask@plt+0xdd98>
   20c88:	0a0a0663          	beqz	s4,20d34 <sigprocmask@plt+0xdcd4>
   20c8c:	03810913          	addi	s2,sp,56
   20c90:	00100a93          	li	s5,1
   20c94:	00098513          	mv	a0,s3
   20c98:	ad8f20ef          	jal	ra,12f70 <strlen@plt>
   20c9c:	00050b13          	mv	s6,a0
   20ca0:	000a1c63          	bnez	s4,20cb8 <sigprocmask@plt+0xdc58>
   20ca4:	00041a63          	bnez	s0,20cb8 <sigprocmask@plt+0xdc58>
   20ca8:	d781bc03          	ld	s8,-648(gp)
   20cac:	000c3783          	ld	a5,0(s8)
   20cb0:	0107b783          	ld	a5,16(a5)
   20cb4:	20079e63          	bnez	a5,20ed0 <sigprocmask@plt+0xde70>
   20cb8:	fff00c93          	li	s9,-1
   20cbc:	020cdc93          	srli	s9,s9,0x20
   20cc0:	019b77b3          	and	a5,s6,s9
   20cc4:	00090b93          	mv	s7,s2
   20cc8:	00000d13          	li	s10,0
   20ccc:	00f13c23          	sd	a5,24(sp)
   20cd0:	21aa9863          	bne	s5,s10,20ee0 <sigprocmask@plt+0xde80>
   20cd4:	03810793          	addi	a5,sp,56
   20cd8:	00f90a63          	beq	s2,a5,20cec <sigprocmask@plt+0xdc8c>
   20cdc:	00093503          	ld	a0,0(s2)
   20ce0:	b70f20ef          	jal	ra,13050 <free@plt>
   20ce4:	00090513          	mv	a0,s2
   20ce8:	b68f20ef          	jal	ra,13050 <free@plt>
   20cec:	00040513          	mv	a0,s0
   20cf0:	b60f20ef          	jal	ra,13050 <free@plt>
   20cf4:	12813083          	ld	ra,296(sp)
   20cf8:	12013403          	ld	s0,288(sp)
   20cfc:	11813483          	ld	s1,280(sp)
   20d00:	11013903          	ld	s2,272(sp)
   20d04:	10813983          	ld	s3,264(sp)
   20d08:	10013a03          	ld	s4,256(sp)
   20d0c:	0f813a83          	ld	s5,248(sp)
   20d10:	0e813b83          	ld	s7,232(sp)
   20d14:	0e013c03          	ld	s8,224(sp)
   20d18:	0d813c83          	ld	s9,216(sp)
   20d1c:	0d013d03          	ld	s10,208(sp)
   20d20:	0c813d83          	ld	s11,200(sp)
   20d24:	000b051b          	sext.w	a0,s6
   20d28:	0f013b03          	ld	s6,240(sp)
   20d2c:	13010113          	addi	sp,sp,304
   20d30:	00008067          	ret
   20d34:	d781b783          	ld	a5,-648(gp)
   20d38:	0007b703          	ld	a4,0(a5)
   20d3c:	00072783          	lw	a5,0(a4)
   20d40:	0107f793          	andi	a5,a5,16
   20d44:	0a078063          	beqz	a5,20de4 <sigprocmask@plt+0xdd84>
   20d48:	00873483          	ld	s1,8(a4)
   20d4c:	f40480e3          	beqz	s1,20c8c <sigprocmask@plt+0xdc2c>
   20d50:	0004c783          	lbu	a5,0(s1)
   20d54:	f2078ce3          	beqz	a5,20c8c <sigprocmask@plt+0xdc2c>
   20d58:	03a00713          	li	a4,58
   20d5c:	00e79663          	bne	a5,a4,20d68 <sigprocmask@plt+0xdd08>
   20d60:	0014c783          	lbu	a5,1(s1)
   20d64:	f20784e3          	beqz	a5,20c8c <sigprocmask@plt+0xdc2c>
   20d68:	00048513          	mv	a0,s1
   20d6c:	00100913          	li	s2,1
   20d70:	03a00593          	li	a1,58
   20d74:	a1cf20ef          	jal	ra,12f90 <strchr@plt>
   20d78:	00050793          	mv	a5,a0
   20d7c:	0019091b          	addiw	s2,s2,1
   20d80:	00050863          	beqz	a0,20d90 <sigprocmask@plt+0xdd30>
   20d84:	0017c783          	lbu	a5,1(a5)
   20d88:	00150513          	addi	a0,a0,1
   20d8c:	fe0792e3          	bnez	a5,20d70 <sigprocmask@plt+0xdd10>
   20d90:	02091513          	slli	a0,s2,0x20
   20d94:	01d55513          	srli	a0,a0,0x1d
   20d98:	fd4f30ef          	jal	ra,1456c <sigprocmask@plt+0x150c>
   20d9c:	00050913          	mv	s2,a0
   20da0:	00048513          	mv	a0,s1
   20da4:	801f30ef          	jal	ra,145a4 <sigprocmask@plt+0x1544>
   20da8:	00a93023          	sd	a0,0(s2)
   20dac:	00100a93          	li	s5,1
   20db0:	03a00593          	li	a1,58
   20db4:	9dcf20ef          	jal	ra,12f90 <strchr@plt>
   20db8:	0c050863          	beqz	a0,20e88 <sigprocmask@plt+0xde28>
   20dbc:	00154783          	lbu	a5,1(a0)
   20dc0:	00050023          	sb	zero,0(a0)
   20dc4:	ec0788e3          	beqz	a5,20c94 <sigprocmask@plt+0xdc34>
   20dc8:	020a9793          	slli	a5,s5,0x20
   20dcc:	01d7d793          	srli	a5,a5,0x1d
   20dd0:	00150513          	addi	a0,a0,1
   20dd4:	00f907b3          	add	a5,s2,a5
   20dd8:	00a7b023          	sd	a0,0(a5)
   20ddc:	001a8a9b          	addiw	s5,s5,1
   20de0:	fd1ff06f          	j	20db0 <sigprocmask@plt+0xdd50>
   20de4:	00025537          	lui	a0,0x25
   20de8:	99050513          	addi	a0,a0,-1648 # 24990 <sigprocmask@plt+0x11930>
   20dec:	bc5f10ef          	jal	ra,129b0 <getenv@plt>
   20df0:	00050493          	mv	s1,a0
   20df4:	f59ff06f          	j	20d4c <sigprocmask@plt+0xdcec>
   20df8:	00150a93          	addi	s5,a0,1
   20dfc:	413a85bb          	subw	a1,s5,s3
   20e00:	00098513          	mv	a0,s3
   20e04:	fc8f30ef          	jal	ra,145cc <sigprocmask@plt+0x156c>
   20e08:	00054703          	lbu	a4,0(a0)
   20e0c:	07e00793          	li	a5,126
   20e10:	00050413          	mv	s0,a0
   20e14:	02f71c63          	bne	a4,a5,20e4c <sigprocmask@plt+0xddec>
   20e18:	00154783          	lbu	a5,1(a0)
   20e1c:	02f00993          	li	s3,47
   20e20:	00150913          	addi	s2,a0,1
   20e24:	03379a63          	bne	a5,s3,20e58 <sigprocmask@plt+0xddf8>
   20e28:	d781b783          	ld	a5,-648(gp)
   20e2c:	0487b503          	ld	a0,72(a5)
   20e30:	00050e63          	beqz	a0,20e4c <sigprocmask@plt+0xddec>
   20e34:	00090593          	mv	a1,s2
   20e38:	d65f20ef          	jal	ra,13b9c <sigprocmask@plt+0xb3c>
   20e3c:	00050493          	mv	s1,a0
   20e40:	00040513          	mv	a0,s0
   20e44:	a0cf20ef          	jal	ra,13050 <free@plt>
   20e48:	00048413          	mv	s0,s1
   20e4c:	02813c23          	sd	s0,56(sp)
   20e50:	000a8993          	mv	s3,s5
   20e54:	e39ff06f          	j	20c8c <sigprocmask@plt+0xdc2c>
   20e58:	02f00593          	li	a1,47
   20e5c:	00090513          	mv	a0,s2
   20e60:	930f20ef          	jal	ra,12f90 <strchr@plt>
   20e64:	00050493          	mv	s1,a0
   20e68:	00050023          	sb	zero,0(a0)
   20e6c:	00090513          	mv	a0,s2
   20e70:	fc1f10ef          	jal	ra,12e30 <getpwnam@plt>
   20e74:	01348023          	sb	s3,0(s1)
   20e78:	fc050ae3          	beqz	a0,20e4c <sigprocmask@plt+0xddec>
   20e7c:	02053503          	ld	a0,32(a0)
   20e80:	00048913          	mv	s2,s1
   20e84:	fadff06f          	j	20e30 <sigprocmask@plt+0xddd0>
   20e88:	00000413          	li	s0,0
   20e8c:	e09ff06f          	j	20c94 <sigprocmask@plt+0xdc34>
   20e90:	001b8b9b          	addiw	s7,s7,1
   20e94:	000c3783          	ld	a5,0(s8)
   20e98:	000b8513          	mv	a0,s7
   20e9c:	0107b783          	ld	a5,16(a5)
   20ea0:	000780e7          	jalr	a5
   20ea4:	00050493          	mv	s1,a0
   20ea8:	e00508e3          	beqz	a0,20cb8 <sigprocmask@plt+0xdc58>
   20eac:	00050593          	mv	a1,a0
   20eb0:	000c8613          	mv	a2,s9
   20eb4:	00098513          	mv	a0,s3
   20eb8:	da9f10ef          	jal	ra,12c60 <strncmp@plt>
   20ebc:	fc051ae3          	bnez	a0,20e90 <sigprocmask@plt+0xde30>
   20ec0:	00048513          	mv	a0,s1
   20ec4:	ee0f30ef          	jal	ra,145a4 <sigprocmask@plt+0x1544>
   20ec8:	c3dff0ef          	jal	ra,20b04 <sigprocmask@plt+0xdaa4>
   20ecc:	fc5ff06f          	j	20e90 <sigprocmask@plt+0xde30>
   20ed0:	02051c93          	slli	s9,a0,0x20
   20ed4:	00000b93          	li	s7,0
   20ed8:	020cdc93          	srli	s9,s9,0x20
   20edc:	fb9ff06f          	j	20e94 <sigprocmask@plt+0xde34>
   20ee0:	000bb783          	ld	a5,0(s7)
   20ee4:	00079863          	bnez	a5,20ef4 <sigprocmask@plt+0xde94>
   20ee8:	01013783          	ld	a5,16(sp)
   20eec:	00100a13          	li	s4,1
   20ef0:	00fbb023          	sd	a5,0(s7)
   20ef4:	000bb783          	ld	a5,0(s7)
   20ef8:	00078513          	mv	a0,a5
   20efc:	00f13423          	sd	a5,8(sp)
   20f00:	ed1f10ef          	jal	ra,12dd0 <opendir@plt>
   20f04:	00050c13          	mv	s8,a0
   20f08:	00050c63          	beqz	a0,20f20 <sigprocmask@plt+0xdec0>
   20f0c:	000c0513          	mv	a0,s8
   20f10:	bc1f10ef          	jal	ra,12ad0 <readdir@plt>
   20f14:	00051c63          	bnez	a0,20f2c <sigprocmask@plt+0xdecc>
   20f18:	000c0513          	mv	a0,s8
   20f1c:	884f20ef          	jal	ra,12fa0 <closedir@plt>
   20f20:	001d0d1b          	addiw	s10,s10,1
   20f24:	008b8b93          	addi	s7,s7,8
   20f28:	da9ff06f          	j	20cd0 <sigprocmask@plt+0xdc70>
   20f2c:	0009c783          	lbu	a5,0(s3)
   20f30:	02079263          	bnez	a5,20f54 <sigprocmask@plt+0xdef4>
   20f34:	01354783          	lbu	a5,19(a0)
   20f38:	02e00713          	li	a4,46
   20f3c:	00e79c63          	bne	a5,a4,20f54 <sigprocmask@plt+0xdef4>
   20f40:	01454703          	lbu	a4,20(a0)
   20f44:	fc0704e3          	beqz	a4,20f0c <sigprocmask@plt+0xdeac>
   20f48:	00f71663          	bne	a4,a5,20f54 <sigprocmask@plt+0xdef4>
   20f4c:	01554783          	lbu	a5,21(a0)
   20f50:	fa078ee3          	beqz	a5,20f0c <sigprocmask@plt+0xdeac>
   20f54:	01813603          	ld	a2,24(sp)
   20f58:	01350493          	addi	s1,a0,19
   20f5c:	00048593          	mv	a1,s1
   20f60:	00098513          	mv	a0,s3
   20f64:	cfdf10ef          	jal	ra,12c60 <strncmp@plt>
   20f68:	fa0512e3          	bnez	a0,20f0c <sigprocmask@plt+0xdeac>
   20f6c:	00813503          	ld	a0,8(sp)
   20f70:	00048593          	mv	a1,s1
   20f74:	c29f20ef          	jal	ra,13b9c <sigprocmask@plt+0xb3c>
   20f78:	04010593          	addi	a1,sp,64
   20f7c:	00050d93          	mv	s11,a0
   20f80:	f41f10ef          	jal	ra,12ec0 <stat@plt>
   20f84:	06051263          	bnez	a0,20fe8 <sigprocmask@plt+0xdf88>
   20f88:	00048513          	mv	a0,s1
   20f8c:	fe5f10ef          	jal	ra,12f70 <strlen@plt>
   20f90:	0025059b          	addiw	a1,a0,2
   20f94:	02059593          	slli	a1,a1,0x20
   20f98:	0005069b          	sext.w	a3,a0
   20f9c:	02a13023          	sd	a0,32(sp)
   20fa0:	0205d593          	srli	a1,a1,0x20
   20fa4:	000d8513          	mv	a0,s11
   20fa8:	02d13423          	sd	a3,40(sp)
   20fac:	d90f30ef          	jal	ra,1453c <sigprocmask@plt+0x14dc>
   20fb0:	00048593          	mv	a1,s1
   20fb4:	00050d93          	mv	s11,a0
   20fb8:	8e9f10ef          	jal	ra,128a0 <strcpy@plt>
   20fbc:	05012603          	lw	a2,80(sp)
   20fc0:	0000f7b7          	lui	a5,0xf
   20fc4:	02013703          	ld	a4,32(sp)
   20fc8:	00f67633          	and	a2,a2,a5
   20fcc:	0006061b          	sext.w	a2,a2
   20fd0:	000047b7          	lui	a5,0x4
   20fd4:	02813683          	ld	a3,40(sp)
   20fd8:	02f60663          	beq	a2,a5,21004 <sigprocmask@plt+0xdfa4>
   20fdc:	00100793          	li	a5,1
   20fe0:	00fa0c63          	beq	s4,a5,20ff8 <sigprocmask@plt+0xdf98>
   20fe4:	04c0006f          	j	21030 <sigprocmask@plt+0xdfd0>
   20fe8:	04010593          	addi	a1,sp,64
   20fec:	000d8513          	mv	a0,s11
   20ff0:	c21f10ef          	jal	ra,12c10 <lstat@plt>
   20ff4:	f8050ae3          	beqz	a0,20f88 <sigprocmask@plt+0xdf28>
   20ff8:	000d8513          	mv	a0,s11
   20ffc:	854f20ef          	jal	ra,13050 <free@plt>
   21000:	f0dff06f          	j	20f0c <sigprocmask@plt+0xdeac>
   21004:	000a1463          	bnez	s4,2100c <sigprocmask@plt+0xdfac>
   21008:	fe0408e3          	beqz	s0,20ff8 <sigprocmask@plt+0xdf98>
   2100c:	0016869b          	addiw	a3,a3,1
   21010:	01977733          	and	a4,a4,s9
   21014:	02069693          	slli	a3,a3,0x20
   21018:	00ed8733          	add	a4,s11,a4
   2101c:	02f00793          	li	a5,47
   21020:	0206d693          	srli	a3,a3,0x20
   21024:	00f70023          	sb	a5,0(a4)
   21028:	00dd86b3          	add	a3,s11,a3
   2102c:	00068023          	sb	zero,0(a3)
   21030:	000d8513          	mv	a0,s11
   21034:	ad1ff0ef          	jal	ra,20b04 <sigprocmask@plt+0xdaa4>
   21038:	ed5ff06f          	j	20f0c <sigprocmask@plt+0xdeac>
   2103c:	fc010113          	addi	sp,sp,-64
   21040:	02813823          	sd	s0,48(sp)
   21044:	d781b403          	ld	s0,-648(gp)
   21048:	02113c23          	sd	ra,56(sp)
   2104c:	02913423          	sd	s1,40(sp)
   21050:	01842783          	lw	a5,24(s0)
   21054:	02843703          	ld	a4,40(s0)
   21058:	03213023          	sd	s2,32(sp)
   2105c:	02079693          	slli	a3,a5,0x20
   21060:	0206d693          	srli	a3,a3,0x20
   21064:	00269693          	slli	a3,a3,0x2
   21068:	00d70733          	add	a4,a4,a3
   2106c:	00072583          	lw	a1,0(a4)
   21070:	0a058a63          	beqz	a1,21124 <sigprocmask@plt+0xe0c4>
   21074:	00c42703          	lw	a4,12(s0)
   21078:	0017879b          	addiw	a5,a5,1
   2107c:	00f42c23          	sw	a5,24(s0)
   21080:	0017079b          	addiw	a5,a4,1
   21084:	00f42623          	sw	a5,12(s0)
   21088:	2ff00793          	li	a5,767
   2108c:	06b7de63          	bge	a5,a1,21108 <sigprocmask@plt+0xe0a8>
   21090:	03f00593          	li	a1,63
   21094:	01010613          	addi	a2,sp,16
   21098:	01810513          	addi	a0,sp,24
   2109c:	00c42483          	lw	s1,12(s0)
   210a0:	00842903          	lw	s2,8(s0)
   210a4:	00010823          	sb	zero,16(sp)
   210a8:	058020ef          	jal	ra,23100 <sigprocmask@plt+0x100a0>
   210ac:	02a05063          	blez	a0,210cc <sigprocmask@plt+0xe06c>
   210b0:	02010793          	addi	a5,sp,32
   210b4:	00a78533          	add	a0,a5,a0
   210b8:	000277b7          	lui	a5,0x27
   210bc:	e387b583          	ld	a1,-456(a5) # 26e38 <stdout>
   210c0:	fe050c23          	sb	zero,-8(a0)
   210c4:	01810513          	addi	a0,sp,24
   210c8:	ad9f10ef          	jal	ra,12ba0 <fputs_unlocked@plt>
   210cc:	412484bb          	subw	s1,s1,s2
   210d0:	0204c063          	bltz	s1,210f0 <sigprocmask@plt+0xe090>
   210d4:	00025537          	lui	a0,0x25
   210d8:	99850513          	addi	a0,a0,-1640 # 24998 <sigprocmask@plt+0x11938>
   210dc:	965f10ef          	jal	ra,12a40 <puts@plt>
   210e0:	01042783          	lw	a5,16(s0)
   210e4:	00042623          	sw	zero,12(s0)
   210e8:	0017879b          	addiw	a5,a5,1
   210ec:	00f42823          	sw	a5,16(s0)
   210f0:	03813083          	ld	ra,56(sp)
   210f4:	03013403          	ld	s0,48(sp)
   210f8:	02813483          	ld	s1,40(sp)
   210fc:	02013903          	ld	s2,32(sp)
   21100:	04010113          	addi	sp,sp,64
   21104:	00008067          	ret
   21108:	00058513          	mv	a0,a1
   2110c:	00b13423          	sd	a1,8(sp)
   21110:	138020ef          	jal	ra,23248 <sigprocmask@plt+0x101e8>
   21114:	00100793          	li	a5,1
   21118:	f6f51ce3          	bne	a0,a5,21090 <sigprocmask@plt+0xe030>
   2111c:	00813583          	ld	a1,8(sp)
   21120:	f75ff06f          	j	21094 <sigprocmask@plt+0xe034>
   21124:	02000593          	li	a1,32
   21128:	f6dff06f          	j	21094 <sigprocmask@plt+0xe034>
   2112c:	d781b783          	ld	a5,-648(gp)
   21130:	0187a703          	lw	a4,24(a5)
   21134:	01c7a783          	lw	a5,28(a5)
   21138:	00f77463          	bgeu	a4,a5,21140 <sigprocmask@plt+0xe0e0>
   2113c:	f01ff06f          	j	2103c <sigprocmask@plt+0xdfdc>
   21140:	00008067          	ret
   21144:	fe010113          	addi	sp,sp,-32
   21148:	00813823          	sd	s0,16(sp)
   2114c:	d781b403          	ld	s0,-648(gp)
   21150:	00913423          	sd	s1,8(sp)
   21154:	01213023          	sd	s2,0(sp)
   21158:	02843483          	ld	s1,40(s0)
   2115c:	00113c23          	sd	ra,24(sp)
   21160:	02000913          	li	s2,32
   21164:	01846783          	lwu	a5,24(s0)
   21168:	00279793          	slli	a5,a5,0x2
   2116c:	00f487b3          	add	a5,s1,a5
   21170:	0007a503          	lw	a0,0(a5)
   21174:	02050a63          	beqz	a0,211a8 <sigprocmask@plt+0xe148>
   21178:	05250463          	beq	a0,s2,211c0 <sigprocmask@plt+0xe160>
   2117c:	978ff0ef          	jal	ra,202f4 <sigprocmask@plt+0xd294>
   21180:	04051063          	bnez	a0,211c0 <sigprocmask@plt+0xe160>
   21184:	fa9ff0ef          	jal	ra,2112c <sigprocmask@plt+0xe0cc>
   21188:	01846783          	lwu	a5,24(s0)
   2118c:	00279793          	slli	a5,a5,0x2
   21190:	00f487b3          	add	a5,s1,a5
   21194:	0007a503          	lw	a0,0(a5)
   21198:	fdf57793          	andi	a5,a0,-33
   2119c:	00078663          	beqz	a5,211a8 <sigprocmask@plt+0xe148>
   211a0:	954ff0ef          	jal	ra,202f4 <sigprocmask@plt+0xd294>
   211a4:	fe0500e3          	beqz	a0,21184 <sigprocmask@plt+0xe124>
   211a8:	01813083          	ld	ra,24(sp)
   211ac:	01013403          	ld	s0,16(sp)
   211b0:	00813483          	ld	s1,8(sp)
   211b4:	00013903          	ld	s2,0(sp)
   211b8:	02010113          	addi	sp,sp,32
   211bc:	00008067          	ret
   211c0:	f6dff0ef          	jal	ra,2112c <sigprocmask@plt+0xe0cc>
   211c4:	fa1ff06f          	j	21164 <sigprocmask@plt+0xe104>
   211c8:	ff010113          	addi	sp,sp,-16
   211cc:	00813023          	sd	s0,0(sp)
   211d0:	d781b403          	ld	s0,-648(gp)
   211d4:	00113423          	sd	ra,8(sp)
   211d8:	01842703          	lw	a4,24(s0)
   211dc:	01c42783          	lw	a5,28(s0)
   211e0:	00f76a63          	bltu	a4,a5,211f4 <sigprocmask@plt+0xe194>
   211e4:	00813083          	ld	ra,8(sp)
   211e8:	00013403          	ld	s0,0(sp)
   211ec:	01010113          	addi	sp,sp,16
   211f0:	00008067          	ret
   211f4:	e49ff0ef          	jal	ra,2103c <sigprocmask@plt+0xdfdc>
   211f8:	fe1ff06f          	j	211d8 <sigprocmask@plt+0xe178>
   211fc:	ff010113          	addi	sp,sp,-16
   21200:	00113423          	sd	ra,8(sp)
   21204:	fc5ff0ef          	jal	ra,211c8 <sigprocmask@plt+0xe168>
   21208:	d781b783          	ld	a5,-648(gp)
   2120c:	0187a703          	lw	a4,24(a5)
   21210:	00070663          	beqz	a4,2121c <sigprocmask@plt+0xe1bc>
   21214:	00c7a783          	lw	a5,12(a5)
   21218:	00078a63          	beqz	a5,2122c <sigprocmask@plt+0xe1cc>
   2121c:	00813083          	ld	ra,8(sp)
   21220:	00a00513          	li	a0,10
   21224:	01010113          	addi	sp,sp,16
   21228:	c98f306f          	j	146c0 <sigprocmask@plt+0x1660>
   2122c:	00813083          	ld	ra,8(sp)
   21230:	01010113          	addi	sp,sp,16
   21234:	00008067          	ret
   21238:	fe010113          	addi	sp,sp,-32
   2123c:	00813823          	sd	s0,16(sp)
   21240:	00913423          	sd	s1,8(sp)
   21244:	00113c23          	sd	ra,24(sp)
   21248:	00058413          	mv	s0,a1
   2124c:	00060493          	mv	s1,a2
   21250:	00a05a63          	blez	a0,21264 <sigprocmask@plt+0xe204>
   21254:	00050593          	mv	a1,a0
   21258:	00025537          	lui	a0,0x25
   2125c:	9a050513          	addi	a0,a0,-1632 # 249a0 <sigprocmask@plt+0x11940>
   21260:	ec0f10ef          	jal	ra,12920 <printf@plt>
   21264:	00d00513          	li	a0,13
   21268:	c58f30ef          	jal	ra,146c0 <sigprocmask@plt+0x1660>
   2126c:	00048513          	mv	a0,s1
   21270:	8c0ff0ef          	jal	ra,20330 <sigprocmask@plt+0xd2d0>
   21274:	f55ff0ef          	jal	ra,211c8 <sigprocmask@plt+0xe168>
   21278:	00025537          	lui	a0,0x25
   2127c:	9a850513          	addi	a0,a0,-1624 # 249a8 <sigprocmask@plt+0x11948>
   21280:	ea0f10ef          	jal	ra,12920 <printf@plt>
   21284:	00040513          	mv	a0,s0
   21288:	01013403          	ld	s0,16(sp)
   2128c:	01813083          	ld	ra,24(sp)
   21290:	00813483          	ld	s1,8(sp)
   21294:	02010113          	addi	sp,sp,32
   21298:	e48ff06f          	j	208e0 <sigprocmask@plt+0xd880>
   2129c:	ff010113          	addi	sp,sp,-16
   212a0:	00000513          	li	a0,0
   212a4:	00113423          	sd	ra,8(sp)
   212a8:	93cf30ef          	jal	ra,143e4 <sigprocmask@plt+0x1384>
   212ac:	d781b783          	ld	a5,-648(gp)
   212b0:	0005071b          	sext.w	a4,a0
   212b4:	0187a683          	lw	a3,24(a5)
   212b8:	0147a503          	lw	a0,20(a5)
   212bc:	01c7a583          	lw	a1,28(a5)
   212c0:	00e7a423          	sw	a4,8(a5)
   212c4:	00d5053b          	addw	a0,a0,a3
   212c8:	40d585bb          	subw	a1,a1,a3
   212cc:	02e556bb          	divuw	a3,a0,a4
   212d0:	0107a783          	lw	a5,16(a5)
   212d4:	0007871b          	sext.w	a4,a5
   212d8:	0007851b          	sext.w	a0,a5
   212dc:	00e6e463          	bltu	a3,a4,212e4 <sigprocmask@plt+0xe284>
   212e0:	00068513          	mv	a0,a3
   212e4:	00813083          	ld	ra,8(sp)
   212e8:	00000613          	li	a2,0
   212ec:	01010113          	addi	sp,sp,16
   212f0:	f49ff06f          	j	21238 <sigprocmask@plt+0xe1d8>
   212f4:	d781b783          	ld	a5,-648(gp)
   212f8:	0647a703          	lw	a4,100(a5)
   212fc:	0007071b          	sext.w	a4,a4
   21300:	02070e63          	beqz	a4,2133c <sigprocmask@plt+0xe2dc>
   21304:	fe010113          	addi	sp,sp,-32
   21308:	00813823          	sd	s0,16(sp)
   2130c:	ca01b403          	ld	s0,-864(gp)
   21310:	00913423          	sd	s1,8(sp)
   21314:	00113c23          	sd	ra,24(sp)
   21318:	00042483          	lw	s1,0(s0)
   2131c:	f81ff0ef          	jal	ra,2129c <sigprocmask@plt+0xe23c>
   21320:	b98f30ef          	jal	ra,146b8 <sigprocmask@plt+0x1658>
   21324:	01813083          	ld	ra,24(sp)
   21328:	00942023          	sw	s1,0(s0)
   2132c:	01013403          	ld	s0,16(sp)
   21330:	00813483          	ld	s1,8(sp)
   21334:	02010113          	addi	sp,sp,32
   21338:	00008067          	ret
   2133c:	0607a703          	lw	a4,96(a5)
   21340:	0017071b          	addiw	a4,a4,1
   21344:	06e7a023          	sw	a4,96(a5)
   21348:	00008067          	ret
   2134c:	fe010113          	addi	sp,sp,-32
   21350:	00813823          	sd	s0,16(sp)
   21354:	d781b403          	ld	s0,-648(gp)
   21358:	00913423          	sd	s1,8(sp)
   2135c:	00113c23          	sd	ra,24(sp)
   21360:	01842483          	lw	s1,24(s0)
   21364:	01c42603          	lw	a2,28(s0)
   21368:	06960063          	beq	a2,s1,213c8 <sigprocmask@plt+0xe368>
   2136c:	0004871b          	sext.w	a4,s1
   21370:	02843503          	ld	a0,40(s0)
   21374:	00271793          	slli	a5,a4,0x2
   21378:	40e6063b          	subw	a2,a2,a4
   2137c:	00478593          	addi	a1,a5,4
   21380:	00b505b3          	add	a1,a0,a1
   21384:	00261613          	slli	a2,a2,0x2
   21388:	00f50533          	add	a0,a0,a5
   2138c:	de4f10ef          	jal	ra,12970 <memmove@plt>
   21390:	01c42783          	lw	a5,28(s0)
   21394:	fff7879b          	addiw	a5,a5,-1
   21398:	00f42e23          	sw	a5,28(s0)
   2139c:	e2dff0ef          	jal	ra,211c8 <sigprocmask@plt+0xe168>
   213a0:	00025537          	lui	a0,0x25
   213a4:	9a850513          	addi	a0,a0,-1624 # 249a8 <sigprocmask@plt+0x11948>
   213a8:	d78f10ef          	jal	ra,12920 <printf@plt>
   213ac:	01842503          	lw	a0,24(s0)
   213b0:	01013403          	ld	s0,16(sp)
   213b4:	01813083          	ld	ra,24(sp)
   213b8:	4095053b          	subw	a0,a0,s1
   213bc:	00813483          	ld	s1,8(sp)
   213c0:	02010113          	addi	sp,sp,32
   213c4:	d1cff06f          	j	208e0 <sigprocmask@plt+0xd880>
   213c8:	01813083          	ld	ra,24(sp)
   213cc:	01013403          	ld	s0,16(sp)
   213d0:	00813483          	ld	s1,8(sp)
   213d4:	02010113          	addi	sp,sp,32
   213d8:	00008067          	ret
   213dc:	d781b783          	ld	a5,-648(gp)
   213e0:	0187a783          	lw	a5,24(a5)
   213e4:	02078063          	beqz	a5,21404 <sigprocmask@plt+0xe3a4>
   213e8:	ff010113          	addi	sp,sp,-16
   213ec:	00100513          	li	a0,1
   213f0:	00113423          	sd	ra,8(sp)
   213f4:	cecff0ef          	jal	ra,208e0 <sigprocmask@plt+0xd880>
   213f8:	00813083          	ld	ra,8(sp)
   213fc:	01010113          	addi	sp,sp,16
   21400:	f4dff06f          	j	2134c <sigprocmask@plt+0xe2ec>
   21404:	00008067          	ret
   21408:	d781b783          	ld	a5,-648(gp)
   2140c:	fff5861b          	addiw	a2,a1,-1
   21410:	02061613          	slli	a2,a2,0x20
   21414:	0287b583          	ld	a1,40(a5)
   21418:	ff010113          	addi	sp,sp,-16
   2141c:	02065613          	srli	a2,a2,0x20
   21420:	00813023          	sd	s0,0(sp)
   21424:	00113423          	sd	ra,8(sp)
   21428:	00050413          	mv	s0,a0
   2142c:	4d9010ef          	jal	ra,23104 <sigprocmask@plt+0x100a4>
   21430:	00055463          	bgez	a0,21438 <sigprocmask@plt+0xe3d8>
   21434:	00000513          	li	a0,0
   21438:	00a40433          	add	s0,s0,a0
   2143c:	00040023          	sb	zero,0(s0)
   21440:	00813083          	ld	ra,8(sp)
   21444:	00013403          	ld	s0,0(sp)
   21448:	0005051b          	sext.w	a0,a0
   2144c:	01010113          	addi	sp,sp,16
   21450:	00008067          	ret
   21454:	be010113          	addi	sp,sp,-1056
   21458:	40913423          	sd	s1,1032(sp)
   2145c:	d781b483          	ld	s1,-648(gp)
   21460:	40113c23          	sd	ra,1048(sp)
   21464:	40813823          	sd	s0,1040(sp)
   21468:	0284b783          	ld	a5,40(s1)
   2146c:	0007a783          	lw	a5,0(a5)
   21470:	04078063          	beqz	a5,214b0 <sigprocmask@plt+0xe450>
   21474:	0004b783          	ld	a5,0(s1)
   21478:	01c7a403          	lw	s0,28(a5)
   2147c:	00640413          	addi	s0,s0,6
   21480:	00341413          	slli	s0,s0,0x3
   21484:	008787b3          	add	a5,a5,s0
   21488:	0007b503          	ld	a0,0(a5)
   2148c:	bc5f10ef          	jal	ra,13050 <free@plt>
   21490:	40000593          	li	a1,1024
   21494:	00010513          	mv	a0,sp
   21498:	f71ff0ef          	jal	ra,21408 <sigprocmask@plt+0xe3a8>
   2149c:	0004b483          	ld	s1,0(s1)
   214a0:	00010513          	mv	a0,sp
   214a4:	900f30ef          	jal	ra,145a4 <sigprocmask@plt+0x1544>
   214a8:	00848433          	add	s0,s1,s0
   214ac:	00a43023          	sd	a0,0(s0)
   214b0:	41813083          	ld	ra,1048(sp)
   214b4:	41013403          	ld	s0,1040(sp)
   214b8:	40813483          	ld	s1,1032(sp)
   214bc:	42010113          	addi	sp,sp,1056
   214c0:	00008067          	ret
   214c4:	ff010113          	addi	sp,sp,-16
   214c8:	00813023          	sd	s0,0(sp)
   214cc:	d781b403          	ld	s0,-648(gp)
   214d0:	00113423          	sd	ra,8(sp)
   214d4:	00043783          	ld	a5,0(s0)
   214d8:	0007a703          	lw	a4,0(a5)
   214dc:	00177713          	andi	a4,a4,1
   214e0:	02070a63          	beqz	a4,21514 <sigprocmask@plt+0xe4b4>
   214e4:	01c7a703          	lw	a4,28(a5)
   214e8:	0187a783          	lw	a5,24(a5)
   214ec:	02f75463          	bge	a4,a5,21514 <sigprocmask@plt+0xe4b4>
   214f0:	f65ff0ef          	jal	ra,21454 <sigprocmask@plt+0xe3f4>
   214f4:	00043703          	ld	a4,0(s0)
   214f8:	01c72783          	lw	a5,28(a4)
   214fc:	0017851b          	addiw	a0,a5,1
   21500:	00a72e23          	sw	a0,28(a4)
   21504:	00813083          	ld	ra,8(sp)
   21508:	00013403          	ld	s0,0(sp)
   2150c:	01010113          	addi	sp,sp,16
   21510:	00008067          	ret
   21514:	00700513          	li	a0,7
   21518:	9a8f30ef          	jal	ra,146c0 <sigprocmask@plt+0x1660>
   2151c:	00000513          	li	a0,0
   21520:	fe5ff06f          	j	21504 <sigprocmask@plt+0xe4a4>
   21524:	fe010113          	addi	sp,sp,-32
   21528:	00813823          	sd	s0,16(sp)
   2152c:	d781b403          	ld	s0,-648(gp)
   21530:	00113c23          	sd	ra,24(sp)
   21534:	00043783          	ld	a5,0(s0)
   21538:	0007a503          	lw	a0,0(a5)
   2153c:	00157513          	andi	a0,a0,1
   21540:	00a13423          	sd	a0,8(sp)
   21544:	02050a63          	beqz	a0,21578 <sigprocmask@plt+0xe518>
   21548:	01c7a783          	lw	a5,28(a5)
   2154c:	02078663          	beqz	a5,21578 <sigprocmask@plt+0xe518>
   21550:	f05ff0ef          	jal	ra,21454 <sigprocmask@plt+0xe3f4>
   21554:	00043703          	ld	a4,0(s0)
   21558:	00813503          	ld	a0,8(sp)
   2155c:	01c72783          	lw	a5,28(a4)
   21560:	fff7879b          	addiw	a5,a5,-1
   21564:	00f72e23          	sw	a5,28(a4)
   21568:	01813083          	ld	ra,24(sp)
   2156c:	01013403          	ld	s0,16(sp)
   21570:	02010113          	addi	sp,sp,32
   21574:	00008067          	ret
   21578:	00700513          	li	a0,7
   2157c:	944f30ef          	jal	ra,146c0 <sigprocmask@plt+0x1660>
   21580:	00000513          	li	a0,0
   21584:	fe5ff06f          	j	21568 <sigprocmask@plt+0xe508>
   21588:	f8010113          	addi	sp,sp,-128
   2158c:	06813823          	sd	s0,112(sp)
   21590:	d781b403          	ld	s0,-648(gp)
   21594:	06113c23          	sd	ra,120(sp)
   21598:	06913423          	sd	s1,104(sp)
   2159c:	00043783          	ld	a5,0(s0)
   215a0:	07213023          	sd	s2,96(sp)
   215a4:	05313c23          	sd	s3,88(sp)
   215a8:	0007a783          	lw	a5,0(a5)
   215ac:	05413823          	sd	s4,80(sp)
   215b0:	05513423          	sd	s5,72(sp)
   215b4:	05613023          	sd	s6,64(sp)
   215b8:	03713c23          	sd	s7,56(sp)
   215bc:	03813823          	sd	s8,48(sp)
   215c0:	03913423          	sd	s9,40(sp)
   215c4:	03a13023          	sd	s10,32(sp)
   215c8:	01b13c23          	sd	s11,24(sp)
   215cc:	0027f793          	andi	a5,a5,2
   215d0:	4a078463          	beqz	a5,21a78 <sigprocmask@plt+0xea18>
   215d4:	00052783          	lw	a5,0(a0)
   215d8:	00050a13          	mv	s4,a0
   215dc:	14078663          	beqz	a5,21728 <sigprocmask@plt+0xe6c8>
   215e0:	05842783          	lw	a5,88(s0)
   215e4:	48078a63          	beqz	a5,21a78 <sigprocmask@plt+0xea18>
   215e8:	01842783          	lw	a5,24(s0)
   215ec:	00000a13          	li	s4,0
   215f0:	00000493          	li	s1,0
   215f4:	00f13023          	sd	a5,0(sp)
   215f8:	c05ff0ef          	jal	ra,211fc <sigprocmask@plt+0xe19c>
   215fc:	05842903          	lw	s2,88(s0)
   21600:	000a079b          	sext.w	a5,s4
   21604:	0527ca63          	blt	a5,s2,21658 <sigprocmask@plt+0xe5f8>
   21608:	00842783          	lw	a5,8(s0)
   2160c:	00248b9b          	addiw	s7,s1,2
   21610:	00100993          	li	s3,1
   21614:	0377d6bb          	divuw	a3,a5,s7
   21618:	00090493          	mv	s1,s2
   2161c:	00d9fc63          	bgeu	s3,a3,21634 <sigprocmask@plt+0xe5d4>
   21620:	02d967bb          	remw	a5,s2,a3
   21624:	00068993          	mv	s3,a3
   21628:	02d944bb          	divw	s1,s2,a3
   2162c:	00078463          	beqz	a5,21634 <sigprocmask@plt+0xe5d4>
   21630:	0014849b          	addiw	s1,s1,1
   21634:	00349c93          	slli	s9,s1,0x3
   21638:	00000a13          	li	s4,0
   2163c:	00024d37          	lui	s10,0x24
   21640:	00025db7          	lui	s11,0x25
   21644:	000a0a9b          	sext.w	s5,s4
   21648:	089ad863          	bge	s5,s1,216d8 <sigprocmask@plt+0xe678>
   2164c:	003a1c13          	slli	s8,s4,0x3
   21650:	00100b13          	li	s6,1
   21654:	0540006f          	j	216a8 <sigprocmask@plt+0xe648>
   21658:	05043783          	ld	a5,80(s0)
   2165c:	003a1713          	slli	a4,s4,0x3
   21660:	00e787b3          	add	a5,a5,a4
   21664:	0007b503          	ld	a0,0(a5)
   21668:	619010ef          	jal	ra,23480 <sigprocmask@plt+0x10420>
   2166c:	00050793          	mv	a5,a0
   21670:	0005051b          	sext.w	a0,a0
   21674:	00955463          	bge	a0,s1,2167c <sigprocmask@plt+0xe61c>
   21678:	00048793          	mv	a5,s1
   2167c:	0007849b          	sext.w	s1,a5
   21680:	001a0a13          	addi	s4,s4,1
   21684:	f7dff06f          	j	21600 <sigprocmask@plt+0xe5a0>
   21688:	00b13423          	sd	a1,8(sp)
   2168c:	5f5010ef          	jal	ra,23480 <sigprocmask@plt+0x10420>
   21690:	00813583          	ld	a1,8(sp)
   21694:	40ab863b          	subw	a2,s7,a0
   21698:	d50d0693          	addi	a3,s10,-688 # 23d50 <sigprocmask@plt+0x10cf0>
   2169c:	9b0d8513          	addi	a0,s11,-1616 # 249b0 <sigprocmask@plt+0x11950>
   216a0:	a80f10ef          	jal	ra,12920 <printf@plt>
   216a4:	001b0b1b          	addiw	s6,s6,1
   216a8:	05043783          	ld	a5,80(s0)
   216ac:	018787b3          	add	a5,a5,s8
   216b0:	0007b583          	ld	a1,0(a5)
   216b4:	00058513          	mv	a0,a1
   216b8:	013b0863          	beq	s6,s3,216c8 <sigprocmask@plt+0xe668>
   216bc:	009a8abb          	addw	s5,s5,s1
   216c0:	019c0c33          	add	s8,s8,s9
   216c4:	fd2ac2e3          	blt	s5,s2,21688 <sigprocmask@plt+0xe628>
   216c8:	234010ef          	jal	ra,228fc <sigprocmask@plt+0xf89c>
   216cc:	b74f10ef          	jal	ra,12a40 <puts@plt>
   216d0:	001a0a13          	addi	s4,s4,1
   216d4:	f71ff06f          	j	21644 <sigprocmask@plt+0xe5e4>
   216d8:	01c42583          	lw	a1,28(s0)
   216dc:	00013783          	ld	a5,0(sp)
   216e0:	07013403          	ld	s0,112(sp)
   216e4:	07813083          	ld	ra,120(sp)
   216e8:	06813483          	ld	s1,104(sp)
   216ec:	06013903          	ld	s2,96(sp)
   216f0:	05813983          	ld	s3,88(sp)
   216f4:	05013a03          	ld	s4,80(sp)
   216f8:	04813a83          	ld	s5,72(sp)
   216fc:	04013b03          	ld	s6,64(sp)
   21700:	03813b83          	ld	s7,56(sp)
   21704:	03013c03          	ld	s8,48(sp)
   21708:	02813c83          	ld	s9,40(sp)
   2170c:	02013d03          	ld	s10,32(sp)
   21710:	01813d83          	ld	s11,24(sp)
   21714:	00100613          	li	a2,1
   21718:	40f585bb          	subw	a1,a1,a5
   2171c:	00000513          	li	a0,0
   21720:	08010113          	addi	sp,sp,128
   21724:	b15ff06f          	j	21238 <sigprocmask@plt+0xe1d8>
   21728:	00100793          	li	a5,1
   2172c:	00f52023          	sw	a5,0(a0)
   21730:	00001537          	lui	a0,0x1
   21734:	80050513          	addi	a0,a0,-2048 # 800 <longjmp@plt-0x12080>
   21738:	dd5f20ef          	jal	ra,1450c <sigprocmask@plt+0x14ac>
   2173c:	01846783          	lwu	a5,24(s0)
   21740:	40000593          	li	a1,1024
   21744:	00050993          	mv	s3,a0
   21748:	00279713          	slli	a4,a5,0x2
   2174c:	02843783          	ld	a5,40(s0)
   21750:	00000913          	li	s2,0
   21754:	00e787b3          	add	a5,a5,a4
   21758:	0007a483          	lw	s1,0(a5)
   2175c:	0007a023          	sw	zero,0(a5)
   21760:	ca9ff0ef          	jal	ra,21408 <sigprocmask@plt+0xe3a8>
   21764:	01846703          	lwu	a4,24(s0)
   21768:	02843783          	ld	a5,40(s0)
   2176c:	00098513          	mv	a0,s3
   21770:	00271713          	slli	a4,a4,0x2
   21774:	00e787b3          	add	a5,a5,a4
   21778:	0097a023          	sw	s1,0(a5)
   2177c:	ff4f10ef          	jal	ra,12f70 <strlen@plt>
   21780:	00050a93          	mv	s5,a0
   21784:	00098513          	mv	a0,s3
   21788:	e44fe0ef          	jal	ra,1fdcc <sigprocmask@plt+0xcd6c>
   2178c:	00050493          	mv	s1,a0
   21790:	d9cfe0ef          	jal	ra,1fd2c <sigprocmask@plt+0xcccc>
   21794:	00043783          	ld	a5,0(s0)
   21798:	0007a783          	lw	a5,0(a5)
   2179c:	0047f793          	andi	a5,a5,4
   217a0:	02078663          	beqz	a5,217cc <sigprocmask@plt+0xe76c>
   217a4:	0009c703          	lbu	a4,0(s3)
   217a8:	07e00793          	li	a5,126
   217ac:	02f71063          	bne	a4,a5,217cc <sigprocmask@plt+0xe76c>
   217b0:	02f00593          	li	a1,47
   217b4:	00098513          	mv	a0,s3
   217b8:	fd8f10ef          	jal	ra,12f90 <strchr@plt>
   217bc:	00051863          	bnez	a0,217cc <sigprocmask@plt+0xe76c>
   217c0:	00098513          	mv	a0,s3
   217c4:	bdcff0ef          	jal	ra,20ba0 <sigprocmask@plt+0xdb40>
   217c8:	0005091b          	sext.w	s2,a0
   217cc:	05043783          	ld	a5,80(s0)
   217d0:	00079a63          	bnez	a5,217e4 <sigprocmask@plt+0xe784>
   217d4:	00048593          	mv	a1,s1
   217d8:	00098513          	mv	a0,s3
   217dc:	c48ff0ef          	jal	ra,20c24 <sigprocmask@plt+0xdbc4>
   217e0:	0005091b          	sext.w	s2,a0
   217e4:	00098513          	mv	a0,s3
   217e8:	f88f10ef          	jal	ra,12f70 <strlen@plt>
   217ec:	02091493          	slli	s1,s2,0x20
   217f0:	00a98b33          	add	s6,s3,a0
   217f4:	0204d493          	srli	s1,s1,0x20
   217f8:	409b04b3          	sub	s1,s6,s1
   217fc:	00025bb7          	lui	s7,0x25
   21800:	0964ee63          	bltu	s1,s6,2189c <sigprocmask@plt+0xe83c>
   21804:	05043503          	ld	a0,80(s0)
   21808:	04050663          	beqz	a0,21854 <sigprocmask@plt+0xe7f4>
   2180c:	05842583          	lw	a1,88(s0)
   21810:	00000c93          	li	s9,0
   21814:	00000c13          	li	s8,0
   21818:	5b1010ef          	jal	ra,235c8 <sigprocmask@plt+0x10568>
   2181c:	05043483          	ld	s1,80(s0)
   21820:	020c1793          	slli	a5,s8,0x20
   21824:	01d7d793          	srli	a5,a5,0x1d
   21828:	00f487b3          	add	a5,s1,a5
   2182c:	0007bb03          	ld	s6,0(a5)
   21830:	05842783          	lw	a5,88(s0)
   21834:	020c9b93          	slli	s7,s9,0x20
   21838:	01dbdb93          	srli	s7,s7,0x1d
   2183c:	fff7879b          	addiw	a5,a5,-1
   21840:	001c8d1b          	addiw	s10,s9,1
   21844:	06fc6a63          	bltu	s8,a5,218b8 <sigprocmask@plt+0xe858>
   21848:	017484b3          	add	s1,s1,s7
   2184c:	0164b023          	sd	s6,0(s1)
   21850:	05a42c23          	sw	s10,88(s0)
   21854:	05842703          	lw	a4,88(s0)
   21858:	00100793          	li	a5,1
   2185c:	1cf70c63          	beq	a4,a5,21a34 <sigprocmask@plt+0xe9d4>
   21860:	00700513          	li	a0,7
   21864:	e5df20ef          	jal	ra,146c0 <sigprocmask@plt+0x1660>
   21868:	05043483          	ld	s1,80(s0)
   2186c:	18048063          	beqz	s1,219ec <sigprocmask@plt+0xe98c>
   21870:	0004b503          	ld	a0,0(s1)
   21874:	d31f20ef          	jal	ra,145a4 <sigprocmask@plt+0x1544>
   21878:	00050493          	mv	s1,a0
   2187c:	00050793          	mv	a5,a0
   21880:	0007c583          	lbu	a1,0(a5)
   21884:	0a058063          	beqz	a1,21924 <sigprocmask@plt+0xe8c4>
   21888:	05842803          	lw	a6,88(s0)
   2188c:	00800693          	li	a3,8
   21890:	00100713          	li	a4,1
   21894:	40978533          	sub	a0,a5,s1
   21898:	0800006f          	j	21918 <sigprocmask@plt+0xe8b8>
   2189c:	0004c583          	lbu	a1,0(s1)
   218a0:	968b8513          	addi	a0,s7,-1688 # 24968 <sigprocmask@plt+0x11908>
   218a4:	eecf10ef          	jal	ra,12f90 <strchr@plt>
   218a8:	00050463          	beqz	a0,218b0 <sigprocmask@plt+0xe850>
   218ac:	0019091b          	addiw	s2,s2,1
   218b0:	00148493          	addi	s1,s1,1
   218b4:	f4dff06f          	j	21800 <sigprocmask@plt+0xe7a0>
   218b8:	001c079b          	addiw	a5,s8,1
   218bc:	00078c1b          	sext.w	s8,a5
   218c0:	02079793          	slli	a5,a5,0x20
   218c4:	01d7d793          	srli	a5,a5,0x1d
   218c8:	00f487b3          	add	a5,s1,a5
   218cc:	0007b583          	ld	a1,0(a5)
   218d0:	000b0513          	mv	a0,s6
   218d4:	d1cf10ef          	jal	ra,12df0 <strcmp@plt>
   218d8:	00051863          	bnez	a0,218e8 <sigprocmask@plt+0xe888>
   218dc:	000b0513          	mv	a0,s6
   218e0:	f70f10ef          	jal	ra,13050 <free@plt>
   218e4:	f39ff06f          	j	2181c <sigprocmask@plt+0xe7bc>
   218e8:	017484b3          	add	s1,s1,s7
   218ec:	0164b023          	sd	s6,0(s1)
   218f0:	000d0c93          	mv	s9,s10
   218f4:	f29ff06f          	j	2181c <sigprocmask@plt+0xe7bc>
   218f8:	05043603          	ld	a2,80(s0)
   218fc:	00d60633          	add	a2,a2,a3
   21900:	00063603          	ld	a2,0(a2)
   21904:	00868693          	addi	a3,a3,8
   21908:	00a60633          	add	a2,a2,a0
   2190c:	00064603          	lbu	a2,0(a2)
   21910:	00b61a63          	bne	a2,a1,21924 <sigprocmask@plt+0xe8c4>
   21914:	0017071b          	addiw	a4,a4,1
   21918:	ff0760e3          	bltu	a4,a6,218f8 <sigprocmask@plt+0xe898>
   2191c:	00178793          	addi	a5,a5,1
   21920:	f61ff06f          	j	21880 <sigprocmask@plt+0xe820>
   21924:	0c978463          	beq	a5,s1,219ec <sigprocmask@plt+0xe98c>
   21928:	00078023          	sb	zero,0(a5)
   2192c:	00048513          	mv	a0,s1
   21930:	930ff0ef          	jal	ra,20a60 <sigprocmask@plt+0xda00>
   21934:	00050b13          	mv	s6,a0
   21938:	00048513          	mv	a0,s1
   2193c:	f14f10ef          	jal	ra,13050 <free@plt>
   21940:	000b0513          	mv	a0,s6
   21944:	e2cf10ef          	jal	ra,12f70 <strlen@plt>
   21948:	00050a13          	mv	s4,a0
   2194c:	000b0493          	mv	s1,s6
   21950:	40098b13          	addi	s6,s3,1024
   21954:	40000593          	li	a1,1024
   21958:	000b0513          	mv	a0,s6
   2195c:	aadff0ef          	jal	ra,21408 <sigprocmask@plt+0xe3a8>
   21960:	4125053b          	subw	a0,a0,s2
   21964:	01450a3b          	addw	s4,a0,s4
   21968:	3ff00793          	li	a5,1023
   2196c:	0947c063          	blt	a5,s4,219ec <sigprocmask@plt+0xe98c>
   21970:	000a8a9b          	sext.w	s5,s5
   21974:	015b0ab3          	add	s5,s6,s5
   21978:	02091913          	slli	s2,s2,0x20
   2197c:	000a8593          	mv	a1,s5
   21980:	00098513          	mv	a0,s3
   21984:	02095913          	srli	s2,s2,0x20
   21988:	f19f00ef          	jal	ra,128a0 <strcpy@plt>
   2198c:	01248933          	add	s2,s1,s2
   21990:	00090593          	mv	a1,s2
   21994:	000a8513          	mv	a0,s5
   21998:	f09f00ef          	jal	ra,128a0 <strcpy@plt>
   2199c:	000b0513          	mv	a0,s6
   219a0:	de1fe0ef          	jal	ra,20780 <sigprocmask@plt+0xd720>
   219a4:	000245b7          	lui	a1,0x24
   219a8:	17058593          	addi	a1,a1,368 # 24170 <sigprocmask@plt+0x11110>
   219ac:	00050a13          	mv	s4,a0
   219b0:	00098693          	mv	a3,s3
   219b4:	00090613          	mv	a2,s2
   219b8:	000a8513          	mv	a0,s5
   219bc:	c94f10ef          	jal	ra,12e50 <sprintf@plt>
   219c0:	000b0513          	mv	a0,s6
   219c4:	dbdfe0ef          	jal	ra,20780 <sigprocmask@plt+0xd720>
   219c8:	0005059b          	sext.w	a1,a0
   219cc:	00b42e23          	sw	a1,28(s0)
   219d0:	414587bb          	subw	a5,a1,s4
   219d4:	00078593          	mv	a1,a5
   219d8:	0007d463          	bgez	a5,219e0 <sigprocmask@plt+0xe980>
   219dc:	00000593          	li	a1,0
   219e0:	01042503          	lw	a0,16(s0)
   219e4:	00000613          	li	a2,0
   219e8:	851ff0ef          	jal	ra,21238 <sigprocmask@plt+0xe1d8>
   219ec:	00048513          	mv	a0,s1
   219f0:	e60f10ef          	jal	ra,13050 <free@plt>
   219f4:	07013403          	ld	s0,112(sp)
   219f8:	07813083          	ld	ra,120(sp)
   219fc:	06813483          	ld	s1,104(sp)
   21a00:	06013903          	ld	s2,96(sp)
   21a04:	05013a03          	ld	s4,80(sp)
   21a08:	04813a83          	ld	s5,72(sp)
   21a0c:	04013b03          	ld	s6,64(sp)
   21a10:	03813b83          	ld	s7,56(sp)
   21a14:	03013c03          	ld	s8,48(sp)
   21a18:	02813c83          	ld	s9,40(sp)
   21a1c:	02013d03          	ld	s10,32(sp)
   21a20:	01813d83          	ld	s11,24(sp)
   21a24:	00098513          	mv	a0,s3
   21a28:	05813983          	ld	s3,88(sp)
   21a2c:	08010113          	addi	sp,sp,128
   21a30:	e20f106f          	j	13050 <free@plt>
   21a34:	05043783          	ld	a5,80(s0)
   21a38:	000a2023          	sw	zero,0(s4)
   21a3c:	0007b503          	ld	a0,0(a5)
   21a40:	820ff0ef          	jal	ra,20a60 <sigprocmask@plt+0xda00>
   21a44:	00050493          	mv	s1,a0
   21a48:	d28f10ef          	jal	ra,12f70 <strlen@plt>
   21a4c:	00a487b3          	add	a5,s1,a0
   21a50:	fff7c683          	lbu	a3,-1(a5)
   21a54:	02f00713          	li	a4,47
   21a58:	00050a13          	mv	s4,a0
   21a5c:	eee68ae3          	beq	a3,a4,21950 <sigprocmask@plt+0xe8f0>
   21a60:	02000713          	li	a4,32
   21a64:	00150a13          	addi	s4,a0,1
   21a68:	00e78023          	sb	a4,0(a5)
   21a6c:	014487b3          	add	a5,s1,s4
   21a70:	00078023          	sb	zero,0(a5)
   21a74:	eddff06f          	j	21950 <sigprocmask@plt+0xe8f0>
   21a78:	07813083          	ld	ra,120(sp)
   21a7c:	07013403          	ld	s0,112(sp)
   21a80:	06813483          	ld	s1,104(sp)
   21a84:	06013903          	ld	s2,96(sp)
   21a88:	05813983          	ld	s3,88(sp)
   21a8c:	05013a03          	ld	s4,80(sp)
   21a90:	04813a83          	ld	s5,72(sp)
   21a94:	04013b03          	ld	s6,64(sp)
   21a98:	03813b83          	ld	s7,56(sp)
   21a9c:	03013c03          	ld	s8,48(sp)
   21aa0:	02813c83          	ld	s9,40(sp)
   21aa4:	02013d03          	ld	s10,32(sp)
   21aa8:	01813d83          	ld	s11,24(sp)
   21aac:	08010113          	addi	sp,sp,128
   21ab0:	00008067          	ret
   21ab4:	ff010113          	addi	sp,sp,-16
   21ab8:	00813023          	sd	s0,0(sp)
   21abc:	00050413          	mv	s0,a0
   21ac0:	00001537          	lui	a0,0x1
   21ac4:	83050513          	addi	a0,a0,-2000 # 830 <longjmp@plt-0x12050>
   21ac8:	00113423          	sd	ra,8(sp)
   21acc:	aa1f20ef          	jal	ra,1456c <sigprocmask@plt+0x150c>
   21ad0:	00813083          	ld	ra,8(sp)
   21ad4:	00852023          	sw	s0,0(a0)
   21ad8:	fff00713          	li	a4,-1
   21adc:	00013403          	ld	s0,0(sp)
   21ae0:	00e52223          	sw	a4,4(a0)
   21ae4:	0ff00713          	li	a4,255
   21ae8:	02e52023          	sw	a4,32(a0)
   21aec:	01010113          	addi	sp,sp,16
   21af0:	00008067          	ret
   21af4:	06050663          	beqz	a0,21b60 <sigprocmask@plt+0xeb00>
   21af8:	fd010113          	addi	sp,sp,-48
   21afc:	02813023          	sd	s0,32(sp)
   21b00:	00913c23          	sd	s1,24(sp)
   21b04:	01213823          	sd	s2,16(sp)
   21b08:	01313423          	sd	s3,8(sp)
   21b0c:	02113423          	sd	ra,40(sp)
   21b10:	00050413          	mv	s0,a0
   21b14:	03050913          	addi	s2,a0,48
   21b18:	00000493          	li	s1,0
   21b1c:	000259b7          	lui	s3,0x25
   21b20:	01842783          	lw	a5,24(s0)
   21b24:	02f4c063          	blt	s1,a5,21b44 <sigprocmask@plt+0xeae4>
   21b28:	02813083          	ld	ra,40(sp)
   21b2c:	02013403          	ld	s0,32(sp)
   21b30:	01813483          	ld	s1,24(sp)
   21b34:	01013903          	ld	s2,16(sp)
   21b38:	00813983          	ld	s3,8(sp)
   21b3c:	03010113          	addi	sp,sp,48
   21b40:	00008067          	ret
   21b44:	00093603          	ld	a2,0(s2)
   21b48:	00048593          	mv	a1,s1
   21b4c:	9b898513          	addi	a0,s3,-1608 # 249b8 <sigprocmask@plt+0x11958>
   21b50:	dd1f00ef          	jal	ra,12920 <printf@plt>
   21b54:	0014849b          	addiw	s1,s1,1
   21b58:	00890913          	addi	s2,s2,8
   21b5c:	fc5ff06f          	j	21b20 <sigprocmask@plt+0xeac0>
   21b60:	00008067          	ret
   21b64:	04050a63          	beqz	a0,21bb8 <sigprocmask@plt+0xeb58>
   21b68:	fe010113          	addi	sp,sp,-32
   21b6c:	00913423          	sd	s1,8(sp)
   21b70:	01852483          	lw	s1,24(a0)
   21b74:	00813823          	sd	s0,16(sp)
   21b78:	00113c23          	sd	ra,24(sp)
   21b7c:	00050413          	mv	s0,a0
   21b80:	0004879b          	sext.w	a5,s1
   21b84:	00f04e63          	bgtz	a5,21ba0 <sigprocmask@plt+0xeb40>
   21b88:	00040513          	mv	a0,s0
   21b8c:	01013403          	ld	s0,16(sp)
   21b90:	01813083          	ld	ra,24(sp)
   21b94:	00813483          	ld	s1,8(sp)
   21b98:	02010113          	addi	sp,sp,32
   21b9c:	cb4f106f          	j	13050 <free@plt>
   21ba0:	00349793          	slli	a5,s1,0x3
   21ba4:	00f407b3          	add	a5,s0,a5
   21ba8:	0287b503          	ld	a0,40(a5)
   21bac:	fff48493          	addi	s1,s1,-1
   21bb0:	ca0f10ef          	jal	ra,13050 <free@plt>
   21bb4:	fcdff06f          	j	21b80 <sigprocmask@plt+0xeb20>
   21bb8:	00008067          	ret
   21bbc:	e3010113          	addi	sp,sp,-464
   21bc0:	1a913c23          	sd	s1,440(sp)
   21bc4:	00050493          	mv	s1,a0
   21bc8:	10000513          	li	a0,256
   21bcc:	1c813023          	sd	s0,448(sp)
   21bd0:	1b213823          	sd	s2,432(sp)
   21bd4:	1b313423          	sd	s3,424(sp)
   21bd8:	19513c23          	sd	s5,408(sp)
   21bdc:	1c113423          	sd	ra,456(sp)
   21be0:	1b413023          	sd	s4,416(sp)
   21be4:	19613823          	sd	s6,400(sp)
   21be8:	19713423          	sd	s7,392(sp)
   21bec:	19813023          	sd	s8,384(sp)
   21bf0:	17913c23          	sd	s9,376(sp)
   21bf4:	17a13823          	sd	s10,368(sp)
   21bf8:	17b13423          	sd	s11,360(sp)
   21bfc:	00058a93          	mv	s5,a1
   21c00:	00060913          	mv	s2,a2
   21c04:	00068993          	mv	s3,a3
   21c08:	02012a23          	sw	zero,52(sp)
   21c0c:	961f20ef          	jal	ra,1456c <sigprocmask@plt+0x150c>
   21c10:	00050413          	mv	s0,a0
   21c14:	d6a1bc23          	sd	a0,-648(gp)
   21c18:	05000793          	li	a5,80
   21c1c:	00f52423          	sw	a5,8(a0)
   21c20:	c5d18793          	addi	a5,gp,-931
   21c24:	04f53423          	sd	a5,72(a0)
   21c28:	00100693          	li	a3,1
   21c2c:	06010613          	addi	a2,sp,96
   21c30:	0a010593          	addi	a1,sp,160
   21c34:	00000513          	li	a0,0
   21c38:	fe0f20ef          	jal	ra,14418 <sigprocmask@plt+0x13b8>
   21c3c:	00051a63          	bnez	a0,21c50 <sigprocmask@plt+0xebf0>
   21c40:	06c12783          	lw	a5,108(sp)
   21c44:	00200713          	li	a4,2
   21c48:	00a7f793          	andi	a5,a5,10
   21c4c:	06e79e63          	bne	a5,a4,21cc8 <sigprocmask@plt+0xec68>
   21c50:	000a8513          	mv	a0,s5
   21c54:	f34fe0ef          	jal	ra,20388 <sigprocmask@plt+0xd328>
   21c58:	a61f20ef          	jal	ra,146b8 <sigprocmask@plt+0x1658>
   21c5c:	000277b7          	lui	a5,0x27
   21c60:	e407b603          	ld	a2,-448(a5) # 26e40 <stdin>
   21c64:	00098593          	mv	a1,s3
   21c68:	00090513          	mv	a0,s2
   21c6c:	ac4f10ef          	jal	ra,12f30 <fgets_unlocked@plt>
   21c70:	fff00413          	li	s0,-1
   21c74:	00050863          	beqz	a0,21c84 <sigprocmask@plt+0xec24>
   21c78:	00090513          	mv	a0,s2
   21c7c:	af4f10ef          	jal	ra,12f70 <strlen@plt>
   21c80:	0005041b          	sext.w	s0,a0
   21c84:	904fe0ef          	jal	ra,1fd88 <sigprocmask@plt+0xcd28>
   21c88:	1c813083          	ld	ra,456(sp)
   21c8c:	00040513          	mv	a0,s0
   21c90:	1c013403          	ld	s0,448(sp)
   21c94:	1b813483          	ld	s1,440(sp)
   21c98:	1b013903          	ld	s2,432(sp)
   21c9c:	1a813983          	ld	s3,424(sp)
   21ca0:	1a013a03          	ld	s4,416(sp)
   21ca4:	19813a83          	ld	s5,408(sp)
   21ca8:	19013b03          	ld	s6,400(sp)
   21cac:	18813b83          	ld	s7,392(sp)
   21cb0:	18013c03          	ld	s8,384(sp)
   21cb4:	17813c83          	ld	s9,376(sp)
   21cb8:	17013d03          	ld	s10,368(sp)
   21cbc:	16813d83          	ld	s11,360(sp)
   21cc0:	1d010113          	addi	sp,sp,464
   21cc4:	00008067          	ret
   21cc8:	40000713          	li	a4,1024
   21ccc:	00050a13          	mv	s4,a0
   21cd0:	00098793          	mv	a5,s3
   21cd4:	01375463          	bge	a4,s3,21cdc <sigprocmask@plt+0xec7c>
   21cd8:	40000793          	li	a5,1024
   21cdc:	02f42023          	sw	a5,32(s0)
   21ce0:	00078c1b          	sext.w	s8,a5
   21ce4:	12049e63          	bnez	s1,21e20 <sigprocmask@plt+0xedc0>
   21ce8:	c2018793          	addi	a5,gp,-992
   21cec:	00f43023          	sd	a5,0(s0)
   21cf0:	fff00c93          	li	s9,-1
   21cf4:	00043503          	ld	a0,0(s0)
   21cf8:	00052783          	lw	a5,0(a0)
   21cfc:	0017f793          	andi	a5,a5,1
   21d00:	02078263          	beqz	a5,21d24 <sigprocmask@plt+0xecc4>
   21d04:	02853783          	ld	a5,40(a0)
   21d08:	00078863          	beqz	a5,21d18 <sigprocmask@plt+0xecb8>
   21d0c:	01852783          	lw	a5,24(a0)
   21d10:	00079463          	bnez	a5,21d18 <sigprocmask@plt+0xecb8>
   21d14:	c2cfe0ef          	jal	ra,20140 <sigprocmask@plt+0xd0e0>
   21d18:	00043783          	ld	a5,0(s0)
   21d1c:	0187a703          	lw	a4,24(a5)
   21d20:	00e7ae23          	sw	a4,28(a5)
   21d24:	002c1513          	slli	a0,s8,0x2
   21d28:	845f20ef          	jal	ra,1456c <sigprocmask@plt+0x150c>
   21d2c:	02a43423          	sd	a0,40(s0)
   21d30:	0a010513          	addi	a0,sp,160
   21d34:	ed4f20ef          	jal	ra,14408 <sigprocmask@plt+0x13a8>
   21d38:	c19f00ef          	jal	ra,12950 <geteuid@plt>
   21d3c:	0005051b          	sext.w	a0,a0
   21d40:	8c0f10ef          	jal	ra,12e00 <getpwuid@plt>
   21d44:	00050493          	mv	s1,a0
   21d48:	00050e63          	beqz	a0,21d64 <sigprocmask@plt+0xed04>
   21d4c:	00053503          	ld	a0,0(a0)
   21d50:	855f20ef          	jal	ra,145a4 <sigprocmask@plt+0x1544>
   21d54:	04a43023          	sd	a0,64(s0)
   21d58:	0204b503          	ld	a0,32(s1)
   21d5c:	849f20ef          	jal	ra,145a4 <sigprocmask@plt+0x1544>
   21d60:	04a43423          	sd	a0,72(s0)
   21d64:	00000513          	li	a0,0
   21d68:	e7cf20ef          	jal	ra,143e4 <sigprocmask@plt+0x1384>
   21d6c:	00a42423          	sw	a0,8(s0)
   21d70:	000a8513          	mv	a0,s5
   21d74:	e14fe0ef          	jal	ra,20388 <sigprocmask@plt+0xd328>
   21d78:	000217b7          	lui	a5,0x21
   21d7c:	2f478793          	addi	a5,a5,756 # 212f4 <sigprocmask@plt+0xe294>
   21d80:	06f43423          	sd	a5,104(s0)
   21d84:	06840b93          	addi	s7,s0,104
   21d88:	100007b7          	lui	a5,0x10000
   21d8c:	0ef42823          	sw	a5,240(s0)
   21d90:	000b8613          	mv	a2,s7
   21d94:	000b8593          	mv	a1,s7
   21d98:	01c00513          	li	a0,28
   21d9c:	f55f00ef          	jal	ra,12cf0 <sigaction@plt>
   21da0:	fff00793          	li	a5,-1
   21da4:	40000b37          	lui	s6,0x40000
   21da8:	0207d793          	srli	a5,a5,0x20
   21dac:	04010023          	sb	zero,64(sp)
   21db0:	fdfb0b13          	addi	s6,s6,-33 # 3fffffdf <optind+0x3ffd8a0f>
   21db4:	00f13c23          	sd	a5,24(sp)
   21db8:	06042783          	lw	a5,96(s0)
   21dbc:	05c42703          	lw	a4,92(s0)
   21dc0:	0007879b          	sext.w	a5,a5
   21dc4:	00f70663          	beq	a4,a5,21dd0 <sigprocmask@plt+0xed70>
   21dc8:	04f42e23          	sw	a5,92(s0)
   21dcc:	cd0ff0ef          	jal	ra,2129c <sigprocmask@plt+0xe23c>
   21dd0:	000c8593          	mv	a1,s9
   21dd4:	04010513          	addi	a0,sp,64
   21dd8:	9f5fe0ef          	jal	ra,207cc <sigprocmask@plt+0xd76c>
   21ddc:	00050493          	mv	s1,a0
   21de0:	07f00793          	li	a5,127
   21de4:	38f48063          	beq	s1,a5,22164 <sigprocmask@plt+0xf104>
   21de8:	01700793          	li	a5,23
   21dec:	0097ce63          	blt	a5,s1,21e08 <sigprocmask@plt+0xeda8>
   21df0:	fd300793          	li	a5,-45
   21df4:	02f4dc63          	bge	s1,a5,21e2c <sigprocmask@plt+0xedcc>
   21df8:	fbb00793          	li	a5,-69
   21dfc:	70f48c63          	beq	s1,a5,22514 <sigprocmask@plt+0xf4b4>
   21e00:	fbc00793          	li	a5,-68
   21e04:	70f48c63          	beq	s1,a5,2251c <sigprocmask@plt+0xf4bc>
   21e08:	07114783          	lbu	a5,113(sp)
   21e0c:	72078063          	beqz	a5,2252c <sigprocmask@plt+0xf4cc>
   21e10:	70979e63          	bne	a5,s1,2252c <sigprocmask@plt+0xf4cc>
   21e14:	00042e23          	sw	zero,28(s0)
   21e18:	fff00993          	li	s3,-1
   21e1c:	0980006f          	j	21eb4 <sigprocmask@plt+0xee54>
   21e20:	0044ac83          	lw	s9,4(s1)
   21e24:	00943023          	sd	s1,0(s0)
   21e28:	ecdff06f          	j	21cf4 <sigprocmask@plt+0xec94>
   21e2c:	02d4879b          	addiw	a5,s1,45
   21e30:	0007869b          	sext.w	a3,a5
   21e34:	04400713          	li	a4,68
   21e38:	fcd768e3          	bltu	a4,a3,21e08 <sigprocmask@plt+0xeda8>
   21e3c:	02079793          	slli	a5,a5,0x20
   21e40:	00025737          	lui	a4,0x25
   21e44:	01e7d793          	srli	a5,a5,0x1e
   21e48:	c7c70713          	addi	a4,a4,-900 # 24c7c <sigprocmask@plt+0x11c1c>
   21e4c:	00e787b3          	add	a5,a5,a4
   21e50:	0007a783          	lw	a5,0(a5) # 10000000 <optind+0xffd8a30>
   21e54:	00078067          	jr	a5
   21e58:	0ff00993          	li	s3,255
   21e5c:	01700a93          	li	s5,23
   21e60:	00400493          	li	s1,4
   21e64:	01842783          	lw	a5,24(s0)
   21e68:	02078a63          	beqz	a5,21e9c <sigprocmask@plt+0xee3c>
   21e6c:	fff7879b          	addiw	a5,a5,-1
   21e70:	02843703          	ld	a4,40(s0)
   21e74:	02079793          	slli	a5,a5,0x20
   21e78:	0207d793          	srli	a5,a5,0x20
   21e7c:	00279793          	slli	a5,a5,0x2
   21e80:	00f707b3          	add	a5,a4,a5
   21e84:	0007a783          	lw	a5,0(a5)
   21e88:	00f9ea63          	bltu	s3,a5,21e9c <sigprocmask@plt+0xee3c>
   21e8c:	ff77879b          	addiw	a5,a5,-9
   21e90:	0ff7f793          	andi	a5,a5,255
   21e94:	3d578463          	beq	a5,s5,2225c <sigprocmask@plt+0xf1fc>
   21e98:	3cf4f263          	bgeu	s1,a5,2225c <sigprocmask@plt+0xf1fc>
   21e9c:	0ff00493          	li	s1,255
   21ea0:	01700993          	li	s3,23
   21ea4:	00400a93          	li	s5,4
   21ea8:	3c00006f          	j	22268 <sigprocmask@plt+0xf208>
   21eac:	b50ff0ef          	jal	ra,211fc <sigprocmask@plt+0xe19c>
   21eb0:	00100993          	li	s3,1
   21eb4:	00090023          	sb	zero,0(s2)
   21eb8:	01c42783          	lw	a5,28(s0)
   21ebc:	00f05a63          	blez	a5,21ed0 <sigprocmask@plt+0xee70>
   21ec0:	fffc059b          	addiw	a1,s8,-1
   21ec4:	00090513          	mv	a0,s2
   21ec8:	d40ff0ef          	jal	ra,21408 <sigprocmask@plt+0xe3a8>
   21ecc:	00a42e23          	sw	a0,28(s0)
   21ed0:	02843503          	ld	a0,40(s0)
   21ed4:	97cf10ef          	jal	ra,13050 <free@plt>
   21ed8:	01c42783          	lw	a5,28(s0)
   21edc:	20f05c63          	blez	a5,220f4 <sigprocmask@plt+0xf094>
   21ee0:	00043a83          	ld	s5,0(s0)
   21ee4:	000aa783          	lw	a5,0(s5)
   21ee8:	0017f793          	andi	a5,a5,1
   21eec:	20078463          	beqz	a5,220f4 <sigprocmask@plt+0xf094>
   21ef0:	00094783          	lbu	a5,0(s2)
   21ef4:	20078063          	beqz	a5,220f4 <sigprocmask@plt+0xf094>
   21ef8:	018aa483          	lw	s1,24(s5)
   21efc:	02048263          	beqz	s1,21f20 <sigprocmask@plt+0xeec0>
   21f00:	fff4879b          	addiw	a5,s1,-1
   21f04:	00678793          	addi	a5,a5,6
   21f08:	00379793          	slli	a5,a5,0x3
   21f0c:	00fa87b3          	add	a5,s5,a5
   21f10:	0007b503          	ld	a0,0(a5)
   21f14:	00090593          	mv	a1,s2
   21f18:	ed9f00ef          	jal	ra,12df0 <strcmp@plt>
   21f1c:	1c050c63          	beqz	a0,220f4 <sigprocmask@plt+0xf094>
   21f20:	020aa783          	lw	a5,32(s5)
   21f24:	00678793          	addi	a5,a5,6
   21f28:	00379793          	slli	a5,a5,0x3
   21f2c:	00fa8ab3          	add	s5,s5,a5
   21f30:	000ab503          	ld	a0,0(s5)
   21f34:	91cf10ef          	jal	ra,13050 <free@plt>
   21f38:	00043703          	ld	a4,0(s0)
   21f3c:	02072683          	lw	a3,32(a4)
   21f40:	00668793          	addi	a5,a3,6
   21f44:	00379793          	slli	a5,a5,0x3
   21f48:	00f707b3          	add	a5,a4,a5
   21f4c:	0007b023          	sd	zero,0(a5)
   21f50:	04d4c263          	blt	s1,a3,21f94 <sigprocmask@plt+0xef34>
   21f54:	03073503          	ld	a0,48(a4)
   21f58:	8f8f10ef          	jal	ra,13050 <free@plt>
   21f5c:	00043503          	ld	a0,0(s0)
   21f60:	00000613          	li	a2,0
   21f64:	02052a83          	lw	s5,32(a0)
   21f68:	01505863          	blez	s5,21f78 <sigprocmask@plt+0xef18>
   21f6c:	fffa861b          	addiw	a2,s5,-1
   21f70:	02061613          	slli	a2,a2,0x20
   21f74:	01d65613          	srli	a2,a2,0x1d
   21f78:	03850593          	addi	a1,a0,56
   21f7c:	03050513          	addi	a0,a0,48
   21f80:	9f1f00ef          	jal	ra,12970 <memmove@plt>
   21f84:	000a8493          	mv	s1,s5
   21f88:	01504463          	bgtz	s5,21f90 <sigprocmask@plt+0xef30>
   21f8c:	00100493          	li	s1,1
   21f90:	fff4849b          	addiw	s1,s1,-1
   21f94:	00090513          	mv	a0,s2
   21f98:	00043a83          	ld	s5,0(s0)
   21f9c:	e08f20ef          	jal	ra,145a4 <sigprocmask@plt+0x1544>
   21fa0:	00043783          	ld	a5,0(s0)
   21fa4:	00148b1b          	addiw	s6,s1,1
   21fa8:	00648493          	addi	s1,s1,6
   21fac:	00349493          	slli	s1,s1,0x3
   21fb0:	009a84b3          	add	s1,s5,s1
   21fb4:	00a4b023          	sd	a0,0(s1)
   21fb8:	0287b503          	ld	a0,40(a5)
   21fbc:	0167ae23          	sw	s6,28(a5)
   21fc0:	0167ac23          	sw	s6,24(a5)
   21fc4:	12050863          	beqz	a0,220f4 <sigprocmask@plt+0xf094>
   21fc8:	18000613          	li	a2,384
   21fcc:	44100593          	li	a1,1089
   21fd0:	fb1f00ef          	jal	ra,12f80 <open@plt>
   21fd4:	00050b13          	mv	s6,a0
   21fd8:	10054e63          	bltz	a0,220f4 <sigprocmask@plt+0xf094>
   21fdc:	00200613          	li	a2,2
   21fe0:	00000593          	li	a1,0
   21fe4:	e88f20ef          	jal	ra,1466c <sigprocmask@plt+0x160c>
   21fe8:	00090513          	mv	a0,s2
   21fec:	f85f00ef          	jal	ra,12f70 <strlen@plt>
   21ff0:	0005049b          	sext.w	s1,a0
   21ff4:	00990c33          	add	s8,s2,s1
   21ff8:	00a00793          	li	a5,10
   21ffc:	0014849b          	addiw	s1,s1,1
   22000:	00fc0023          	sb	a5,0(s8)
   22004:	00048613          	mv	a2,s1
   22008:	00090593          	mv	a1,s2
   2200c:	000b0513          	mv	a0,s6
   22010:	f98f20ef          	jal	ra,147a8 <sigprocmask@plt+0x1748>
   22014:	00050a93          	mv	s5,a0
   22018:	000c0023          	sb	zero,0(s8)
   2201c:	000b0513          	mv	a0,s6
   22020:	000a8a9b          	sext.w	s5,s5
   22024:	fddf00ef          	jal	ra,13000 <close@plt>
   22028:	0d549663          	bne	s1,s5,220f4 <sigprocmask@plt+0xf094>
   2202c:	00043783          	ld	a5,0(s0)
   22030:	0247a703          	lw	a4,36(a5)
   22034:	0017069b          	addiw	a3,a4,1
   22038:	0207a703          	lw	a4,32(a5)
   2203c:	02d7a223          	sw	a3,36(a5)
   22040:	0027171b          	slliw	a4,a4,0x2
   22044:	0ad77863          	bgeu	a4,a3,220f4 <sigprocmask@plt+0xf094>
   22048:	0007a503          	lw	a0,0(a5)
   2204c:	a69ff0ef          	jal	ra,21ab4 <sigprocmask@plt+0xea54>
   22050:	00043783          	ld	a5,0(s0)
   22054:	00050493          	mv	s1,a0
   22058:	0287b703          	ld	a4,40(a5)
   2205c:	0207a783          	lw	a5,32(a5)
   22060:	02e53423          	sd	a4,40(a0)
   22064:	02f52023          	sw	a5,32(a0)
   22068:	8d8fe0ef          	jal	ra,20140 <sigprocmask@plt+0xd0e0>
   2206c:	00043783          	ld	a5,0(s0)
   22070:	0287b583          	ld	a1,40(a5)
   22074:	00b13423          	sd	a1,8(sp)
   22078:	979f00ef          	jal	ra,129f0 <getpid@plt>
   2207c:	00813583          	ld	a1,8(sp)
   22080:	00050613          	mv	a2,a0
   22084:	00025537          	lui	a0,0x25
   22088:	9e850513          	addi	a0,a0,-1560 # 249e8 <sigprocmask@plt+0x11988>
   2208c:	e38f20ef          	jal	ra,146c4 <sigprocmask@plt+0x1664>
   22090:	18000613          	li	a2,384
   22094:	24100593          	li	a1,577
   22098:	00050a93          	mv	s5,a0
   2209c:	ee5f00ef          	jal	ra,12f80 <open@plt>
   220a0:	04054263          	bltz	a0,220e4 <sigprocmask@plt+0xf084>
   220a4:	8a4f20ef          	jal	ra,14148 <sigprocmask@plt+0x10e8>
   220a8:	00050b13          	mv	s6,a0
   220ac:	03048c13          	addi	s8,s1,48
   220b0:	00024cb7          	lui	s9,0x24
   220b4:	0184a783          	lw	a5,24(s1)
   220b8:	54fa4063          	blt	s4,a5,225f8 <sigprocmask@plt+0xf598>
   220bc:	000b0513          	mv	a0,s6
   220c0:	cd1f00ef          	jal	ra,12d90 <fclose@plt>
   220c4:	00043783          	ld	a5,0(s0)
   220c8:	000a8513          	mv	a0,s5
   220cc:	0287b583          	ld	a1,40(a5)
   220d0:	a71f00ef          	jal	ra,12b40 <rename@plt>
   220d4:	00051863          	bnez	a0,220e4 <sigprocmask@plt+0xf084>
   220d8:	00043783          	ld	a5,0(s0)
   220dc:	0184a703          	lw	a4,24(s1)
   220e0:	02e7a223          	sw	a4,36(a5)
   220e4:	000a8513          	mv	a0,s5
   220e8:	f69f00ef          	jal	ra,13050 <free@plt>
   220ec:	00048513          	mv	a0,s1
   220f0:	a75ff0ef          	jal	ra,21b64 <sigprocmask@plt+0xeb04>
   220f4:	00100793          	li	a5,1
   220f8:	02f99463          	bne	s3,a5,22120 <sigprocmask@plt+0xf0c0>
   220fc:	01c42783          	lw	a5,28(s0)
   22100:	0017871b          	addiw	a4,a5,1
   22104:	00e42e23          	sw	a4,28(s0)
   22108:	00f907b3          	add	a5,s2,a5
   2210c:	00a00713          	li	a4,10
   22110:	00e78023          	sb	a4,0(a5)
   22114:	01c42603          	lw	a2,28(s0)
   22118:	00c90933          	add	s2,s2,a2
   2211c:	00090023          	sb	zero,0(s2)
   22120:	c0dfd0ef          	jal	ra,1fd2c <sigprocmask@plt+0xcccc>
   22124:	06010513          	addi	a0,sp,96
   22128:	ae0f20ef          	jal	ra,14408 <sigprocmask@plt+0x13a8>
   2212c:	000b8593          	mv	a1,s7
   22130:	01c00513          	li	a0,28
   22134:	fd4f20ef          	jal	ra,14908 <sigprocmask@plt+0x18a8>
   22138:	d80f20ef          	jal	ra,146b8 <sigprocmask@plt+0x1658>
   2213c:	01c42403          	lw	s0,28(s0)
   22140:	b45ff06f          	j	21c84 <sigprocmask@plt+0xec24>
   22144:	00100513          	li	a0,1
   22148:	f98fe0ef          	jal	ra,208e0 <sigprocmask@plt+0xd880>
   2214c:	0080006f          	j	22154 <sigprocmask@plt+0xf0f4>
   22150:	878ff0ef          	jal	ra,211c8 <sigprocmask@plt+0xe168>
   22154:	02012a23          	sw	zero,52(sp)
   22158:	c61ff06f          	j	21db8 <sigprocmask@plt+0xed58>
   2215c:	fd1fe0ef          	jal	ra,2112c <sigprocmask@plt+0xe0cc>
   22160:	ff5ff06f          	j	22154 <sigprocmask@plt+0xf0f4>
   22164:	a78ff0ef          	jal	ra,213dc <sigprocmask@plt+0xe37c>
   22168:	00900793          	li	a5,9
   2216c:	c4f486e3          	beq	s1,a5,21db8 <sigprocmask@plt+0xed58>
   22170:	fe5ff06f          	j	22154 <sigprocmask@plt+0xf0f4>
   22174:	03410513          	addi	a0,sp,52
   22178:	c10ff0ef          	jal	ra,21588 <sigprocmask@plt+0xe528>
   2217c:	c3dff06f          	j	21db8 <sigprocmask@plt+0xed58>
   22180:	01846703          	lwu	a4,24(s0)
   22184:	02843783          	ld	a5,40(s0)
   22188:	00025537          	lui	a0,0x25
   2218c:	00271713          	slli	a4,a4,0x2
   22190:	00e787b3          	add	a5,a5,a4
   22194:	0007a023          	sw	zero,0(a5)
   22198:	01842783          	lw	a5,24(s0)
   2219c:	9a850513          	addi	a0,a0,-1624 # 249a8 <sigprocmask@plt+0x11948>
   221a0:	00f42e23          	sw	a5,28(s0)
   221a4:	f7cf00ef          	jal	ra,12920 <printf@plt>
   221a8:	fadff06f          	j	22154 <sigprocmask@plt+0xf0f4>
   221ac:	00025537          	lui	a0,0x25
   221b0:	9c050513          	addi	a0,a0,-1600 # 249c0 <sigprocmask@plt+0x11960>
   221b4:	f6cf00ef          	jal	ra,12920 <printf@plt>
   221b8:	01c42583          	lw	a1,28(s0)
   221bc:	01842783          	lw	a5,24(s0)
   221c0:	00100613          	li	a2,1
   221c4:	00000513          	li	a0,0
   221c8:	40f585bb          	subw	a1,a1,a5
   221cc:	86cff0ef          	jal	ra,21238 <sigprocmask@plt+0xe1d8>
   221d0:	f85ff06f          	j	22154 <sigprocmask@plt+0xf0f4>
   221d4:	b50ff0ef          	jal	ra,21524 <sigprocmask@plt+0xe4c4>
   221d8:	f6050ee3          	beqz	a0,22154 <sigprocmask@plt+0xf0f4>
   221dc:	00043703          	ld	a4,0(s0)
   221e0:	01c72783          	lw	a5,28(a4)
   221e4:	00678793          	addi	a5,a5,6
   221e8:	00379793          	slli	a5,a5,0x3
   221ec:	00f707b3          	add	a5,a4,a5
   221f0:	0007b503          	ld	a0,0(a5)
   221f4:	00051663          	bnez	a0,22200 <sigprocmask@plt+0xf1a0>
   221f8:	00024537          	lui	a0,0x24
   221fc:	d5050513          	addi	a0,a0,-688 # 23d50 <sigprocmask@plt+0x10cf0>
   22200:	d80fe0ef          	jal	ra,20780 <sigprocmask@plt+0xd720>
   22204:	00a42e23          	sw	a0,28(s0)
   22208:	01042503          	lw	a0,16(s0)
   2220c:	00000613          	li	a2,0
   22210:	00000593          	li	a1,0
   22214:	824ff0ef          	jal	ra,21238 <sigprocmask@plt+0xe1d8>
   22218:	f51ff06f          	j	22168 <sigprocmask@plt+0xf108>
   2221c:	01842583          	lw	a1,24(s0)
   22220:	f2058ae3          	beqz	a1,22154 <sigprocmask@plt+0xf0f4>
   22224:	01c42603          	lw	a2,28(s0)
   22228:	02843503          	ld	a0,40(s0)
   2222c:	40b6063b          	subw	a2,a2,a1
   22230:	02059593          	slli	a1,a1,0x20
   22234:	00c42e23          	sw	a2,28(s0)
   22238:	01e5d593          	srli	a1,a1,0x1e
   2223c:	0016061b          	addiw	a2,a2,1
   22240:	00261613          	slli	a2,a2,0x2
   22244:	00b505b3          	add	a1,a0,a1
   22248:	f28f00ef          	jal	ra,12970 <memmove@plt>
   2224c:	01c42583          	lw	a1,28(s0)
   22250:	01042503          	lw	a0,16(s0)
   22254:	00000613          	li	a2,0
   22258:	f75ff06f          	j	221cc <sigprocmask@plt+0xf16c>
   2225c:	980ff0ef          	jal	ra,213dc <sigprocmask@plt+0xe37c>
   22260:	c05ff06f          	j	21e64 <sigprocmask@plt+0xee04>
   22264:	978ff0ef          	jal	ra,213dc <sigprocmask@plt+0xe37c>
   22268:	01842783          	lw	a5,24(s0)
   2226c:	ee0784e3          	beqz	a5,22154 <sigprocmask@plt+0xf0f4>
   22270:	fff7879b          	addiw	a5,a5,-1
   22274:	02843703          	ld	a4,40(s0)
   22278:	02079793          	slli	a5,a5,0x20
   2227c:	0207d793          	srli	a5,a5,0x20
   22280:	00279793          	slli	a5,a5,0x2
   22284:	00f707b3          	add	a5,a4,a5
   22288:	0007a783          	lw	a5,0(a5)
   2228c:	fcf4ece3          	bltu	s1,a5,22264 <sigprocmask@plt+0xf204>
   22290:	ff77879b          	addiw	a5,a5,-9
   22294:	0ff7f793          	andi	a5,a5,255
   22298:	eb378ee3          	beq	a5,s3,22154 <sigprocmask@plt+0xf0f4>
   2229c:	eafafce3          	bgeu	s5,a5,22154 <sigprocmask@plt+0xf0f4>
   222a0:	fc5ff06f          	j	22264 <sigprocmask@plt+0xf204>
   222a4:	01842983          	lw	s3,24(s0)
   222a8:	e9dfe0ef          	jal	ra,21144 <sigprocmask@plt+0xe0e4>
   222ac:	01842483          	lw	s1,24(s0)
   222b0:	413484bb          	subw	s1,s1,s3
   222b4:	00048513          	mv	a0,s1
   222b8:	e28fe0ef          	jal	ra,208e0 <sigprocmask@plt+0xd880>
   222bc:	fff4849b          	addiw	s1,s1,-1
   222c0:	e804cae3          	bltz	s1,22154 <sigprocmask@plt+0xf0f4>
   222c4:	888ff0ef          	jal	ra,2134c <sigprocmask@plt+0xe2ec>
   222c8:	ff5ff06f          	j	222bc <sigprocmask@plt+0xf25c>
   222cc:	01842483          	lw	s1,24(s0)
   222d0:	ef4fe0ef          	jal	ra,209c4 <sigprocmask@plt+0xd964>
   222d4:	01842783          	lw	a5,24(s0)
   222d8:	e697fee3          	bgeu	a5,s1,22154 <sigprocmask@plt+0xf0f4>
   222dc:	fff4849b          	addiw	s1,s1,-1
   222e0:	86cff0ef          	jal	ra,2134c <sigprocmask@plt+0xe2ec>
   222e4:	ff1ff06f          	j	222d4 <sigprocmask@plt+0xf274>
   222e8:	03843783          	ld	a5,56(s0)
   222ec:	04010823          	sb	zero,80(sp)
   222f0:	0e010023          	sb	zero,224(sp)
   222f4:	00f13423          	sd	a5,8(sp)
   222f8:	01442783          	lw	a5,20(s0)
   222fc:	00000d13          	li	s10,0
   22300:	00f13823          	sd	a5,16(sp)
   22304:	000257b7          	lui	a5,0x25
   22308:	0e010593          	addi	a1,sp,224
   2230c:	9c878513          	addi	a0,a5,-1592 # 249c8 <sigprocmask@plt+0x11968>
   22310:	bb4f20ef          	jal	ra,146c4 <sigprocmask@plt+0x1664>
   22314:	02a43c23          	sd	a0,56(s0)
   22318:	168010ef          	jal	ra,23480 <sigprocmask@plt+0x10420>
   2231c:	01c42583          	lw	a1,28(s0)
   22320:	01842783          	lw	a5,24(s0)
   22324:	00a42a23          	sw	a0,20(s0)
   22328:	01042503          	lw	a0,16(s0)
   2232c:	00000613          	li	a2,0
   22330:	40f585bb          	subw	a1,a1,a5
   22334:	f05fe0ef          	jal	ra,21238 <sigprocmask@plt+0xe1d8>
   22338:	0e010513          	addi	a0,sp,224
   2233c:	c35f00ef          	jal	ra,12f70 <strlen@plt>
   22340:	00050a93          	mv	s5,a0
   22344:	0005099b          	sext.w	s3,a0
   22348:	000c8593          	mv	a1,s9
   2234c:	05010513          	addi	a0,sp,80
   22350:	c7cfe0ef          	jal	ra,207cc <sigprocmask@plt+0xd76c>
   22354:	07f00793          	li	a5,127
   22358:	00050493          	mv	s1,a0
   2235c:	08f50063          	beq	a0,a5,223dc <sigprocmask@plt+0xf37c>
   22360:	00a7ca63          	blt	a5,a0,22374 <sigprocmask@plt+0xf314>
   22364:	00800793          	li	a5,8
   22368:	06f50a63          	beq	a0,a5,223dc <sigprocmask@plt+0xf37c>
   2236c:	01200793          	li	a5,18
   22370:	08f50263          	beq	a0,a5,223f4 <sigprocmask@plt+0xf394>
   22374:	fe04879b          	addiw	a5,s1,-32
   22378:	08fb7c63          	bgeu	s6,a5,22410 <sigprocmask@plt+0xf3b0>
   2237c:	160d1663          	bnez	s10,224e8 <sigprocmask@plt+0xf488>
   22380:	03843503          	ld	a0,56(s0)
   22384:	ccdf00ef          	jal	ra,13050 <free@plt>
   22388:	00813783          	ld	a5,8(sp)
   2238c:	01c42583          	lw	a1,28(s0)
   22390:	01042503          	lw	a0,16(s0)
   22394:	02f43c23          	sd	a5,56(s0)
   22398:	01013783          	ld	a5,16(sp)
   2239c:	00000613          	li	a2,0
   223a0:	00f42a23          	sw	a5,20(s0)
   223a4:	01842783          	lw	a5,24(s0)
   223a8:	40f585bb          	subw	a1,a1,a5
   223ac:	e8dfe0ef          	jal	ra,21238 <sigprocmask@plt+0xe1d8>
   223b0:	a31ff06f          	j	21de0 <sigprocmask@plt+0xed80>
   223b4:	fff9879b          	addiw	a5,s3,-1
   223b8:	0007899b          	sext.w	s3,a5
   223bc:	02079793          	slli	a5,a5,0x20
   223c0:	16010713          	addi	a4,sp,352
   223c4:	0207d793          	srli	a5,a5,0x20
   223c8:	00f707b3          	add	a5,a4,a5
   223cc:	f807c783          	lbu	a5,-128(a5)
   223d0:	08000713          	li	a4,128
   223d4:	0c07f793          	andi	a5,a5,192
   223d8:	00e79463          	bne	a5,a4,223e0 <sigprocmask@plt+0xf380>
   223dc:	fc099ce3          	bnez	s3,223b4 <sigprocmask@plt+0xf354>
   223e0:	02099793          	slli	a5,s3,0x20
   223e4:	0207d793          	srli	a5,a5,0x20
   223e8:	16010713          	addi	a4,sp,352
   223ec:	00f707b3          	add	a5,a4,a5
   223f0:	f8078023          	sb	zero,-128(a5)
   223f4:	00043703          	ld	a4,0(s0)
   223f8:	01200693          	li	a3,18
   223fc:	01c72783          	lw	a5,28(a4)
   22400:	00d49463          	bne	s1,a3,22408 <sigprocmask@plt+0xf3a8>
   22404:	fff7879b          	addiw	a5,a5,-1
   22408:	00078493          	mv	s1,a5
   2240c:	0b40006f          	j	224c0 <sigprocmask@plt+0xf460>
   22410:	03010613          	addi	a2,sp,48
   22414:	00048593          	mv	a1,s1
   22418:	03810513          	addi	a0,sp,56
   2241c:	02010823          	sb	zero,48(sp)
   22420:	4e1000ef          	jal	ra,23100 <sigprocmask@plt+0x100a0>
   22424:	0005079b          	sext.w	a5,a0
   22428:	fcf056e3          	blez	a5,223f4 <sigprocmask@plt+0xf394>
   2242c:	16010713          	addi	a4,sp,352
   22430:	00f707b3          	add	a5,a4,a5
   22434:	ec078c23          	sb	zero,-296(a5)
   22438:	0135053b          	addw	a0,a0,s3
   2243c:	07f00793          	li	a5,127
   22440:	faa7eae3          	bltu	a5,a0,223f4 <sigprocmask@plt+0xf394>
   22444:	01813783          	ld	a5,24(sp)
   22448:	03810593          	addi	a1,sp,56
   2244c:	00faf533          	and	a0,s5,a5
   22450:	0e010793          	addi	a5,sp,224
   22454:	00a78533          	add	a0,a5,a0
   22458:	c48f00ef          	jal	ra,128a0 <strcpy@plt>
   2245c:	f99ff06f          	j	223f4 <sigprocmask@plt+0xf394>
   22460:	00349793          	slli	a5,s1,0x3
   22464:	00f707b3          	add	a5,a4,a5
   22468:	0307bd83          	ld	s11,48(a5)
   2246c:	02d13423          	sd	a3,40(sp)
   22470:	040d8663          	beqz	s11,224bc <sigprocmask@plt+0xf45c>
   22474:	0e010593          	addi	a1,sp,224
   22478:	000d8513          	mv	a0,s11
   2247c:	02e13023          	sd	a4,32(sp)
   22480:	fa0f00ef          	jal	ra,12c20 <strstr@plt>
   22484:	02013703          	ld	a4,32(sp)
   22488:	00050a93          	mv	s5,a0
   2248c:	02050863          	beqz	a0,224bc <sigprocmask@plt+0xf45c>
   22490:	02813683          	ld	a3,40(sp)
   22494:	000d8513          	mv	a0,s11
   22498:	41ba8ab3          	sub	s5,s5,s11
   2249c:	00d72e23          	sw	a3,28(a4)
   224a0:	ae0fe0ef          	jal	ra,20780 <sigprocmask@plt+0xd720>
   224a4:	00a42e23          	sw	a0,28(s0)
   224a8:	03843503          	ld	a0,56(s0)
   224ac:	01542c23          	sw	s5,24(s0)
   224b0:	000d8d13          	mv	s10,s11
   224b4:	b9df00ef          	jal	ra,13050 <free@plt>
   224b8:	e4dff06f          	j	22304 <sigprocmask@plt+0xf2a4>
   224bc:	fff48493          	addi	s1,s1,-1
   224c0:	0004869b          	sext.w	a3,s1
   224c4:	f806dee3          	bgez	a3,22460 <sigprocmask@plt+0xf400>
   224c8:	02099993          	slli	s3,s3,0x20
   224cc:	16010793          	addi	a5,sp,352
   224d0:	0209d993          	srli	s3,s3,0x20
   224d4:	013789b3          	add	s3,a5,s3
   224d8:	f8098023          	sb	zero,-128(s3)
   224dc:	00700513          	li	a0,7
   224e0:	9e0f20ef          	jal	ra,146c0 <sigprocmask@plt+0x1660>
   224e4:	e55ff06f          	j	22338 <sigprocmask@plt+0xf2d8>
   224e8:	000d0513          	mv	a0,s10
   224ec:	a94fe0ef          	jal	ra,20780 <sigprocmask@plt+0xd720>
   224f0:	00a42e23          	sw	a0,28(s0)
   224f4:	e8dff06f          	j	22380 <sigprocmask@plt+0xf320>
   224f8:	82cff0ef          	jal	ra,21524 <sigprocmask@plt+0xe4c4>
   224fc:	ce0510e3          	bnez	a0,221dc <sigprocmask@plt+0xf17c>
   22500:	00700513          	li	a0,7
   22504:	9bcf20ef          	jal	ra,146c0 <sigprocmask@plt+0x1660>
   22508:	c4dff06f          	j	22154 <sigprocmask@plt+0xf0f4>
   2250c:	fb9fe0ef          	jal	ra,214c4 <sigprocmask@plt+0xe464>
   22510:	cc9ff06f          	j	221d8 <sigprocmask@plt+0xf178>
   22514:	cb0fe0ef          	jal	ra,209c4 <sigprocmask@plt+0xd964>
   22518:	c3dff06f          	j	22154 <sigprocmask@plt+0xf0f4>
   2251c:	c29fe0ef          	jal	ra,21144 <sigprocmask@plt+0xe0e4>
   22520:	c35ff06f          	j	22154 <sigprocmask@plt+0xf0f4>
   22524:	01842503          	lw	a0,24(s0)
   22528:	c21ff06f          	j	22148 <sigprocmask@plt+0xf0e8>
   2252c:	07514783          	lbu	a5,117(sp)
   22530:	02078663          	beqz	a5,2255c <sigprocmask@plt+0xf4fc>
   22534:	02979463          	bne	a5,s1,2255c <sigprocmask@plt+0xf4fc>
   22538:	01c42783          	lw	a5,28(s0)
   2253c:	00079c63          	bnez	a5,22554 <sigprocmask@plt+0xf4f4>
   22540:	ca01b783          	ld	a5,-864(gp)
   22544:	0007a023          	sw	zero,0(a5)
   22548:	fff00793          	li	a5,-1
   2254c:	00f42e23          	sw	a5,28(s0)
   22550:	8c9ff06f          	j	21e18 <sigprocmask@plt+0xedb8>
   22554:	df9fe0ef          	jal	ra,2134c <sigprocmask@plt+0xe2ec>
   22558:	bfdff06f          	j	22154 <sigprocmask@plt+0xf0f4>
   2255c:	fe04879b          	addiw	a5,s1,-32
   22560:	befb6ae3          	bltu	s6,a5,22154 <sigprocmask@plt+0xf0f4>
   22564:	01c42683          	lw	a3,28(s0)
   22568:	ffec079b          	addiw	a5,s8,-2
   2256c:	bef6d4e3          	bge	a3,a5,22154 <sigprocmask@plt+0xf0f4>
   22570:	01842603          	lw	a2,24(s0)
   22574:	0016879b          	addiw	a5,a3,1
   22578:	00f42e23          	sw	a5,28(s0)
   2257c:	02843703          	ld	a4,40(s0)
   22580:	02d61a63          	bne	a2,a3,225b4 <sigprocmask@plt+0xf554>
   22584:	02061613          	slli	a2,a2,0x20
   22588:	01e65613          	srli	a2,a2,0x1e
   2258c:	00c70633          	add	a2,a4,a2
   22590:	00962023          	sw	s1,0(a2)
   22594:	01842783          	lw	a5,24(s0)
   22598:	0017879b          	addiw	a5,a5,1
   2259c:	02079793          	slli	a5,a5,0x20
   225a0:	01e7d793          	srli	a5,a5,0x1e
   225a4:	00f707b3          	add	a5,a4,a5
   225a8:	0007a023          	sw	zero,0(a5)
   225ac:	a91fe0ef          	jal	ra,2103c <sigprocmask@plt+0xdfdc>
   225b0:	ba5ff06f          	j	22154 <sigprocmask@plt+0xf0f4>
   225b4:	00160513          	addi	a0,a2,1
   225b8:	00251513          	slli	a0,a0,0x2
   225bc:	ffc50a93          	addi	s5,a0,-4
   225c0:	0006099b          	sext.w	s3,a2
   225c4:	40c7863b          	subw	a2,a5,a2
   225c8:	00261613          	slli	a2,a2,0x2
   225cc:	015705b3          	add	a1,a4,s5
   225d0:	00a70533          	add	a0,a4,a0
   225d4:	b9cf00ef          	jal	ra,12970 <memmove@plt>
   225d8:	02843783          	ld	a5,40(s0)
   225dc:	0019899b          	addiw	s3,s3,1
   225e0:	015787b3          	add	a5,a5,s5
   225e4:	0097a023          	sw	s1,0(a5)
   225e8:	be1fe0ef          	jal	ra,211c8 <sigprocmask@plt+0xe168>
   225ec:	01842503          	lw	a0,24(s0)
   225f0:	4135053b          	subw	a0,a0,s3
   225f4:	b55ff06f          	j	22148 <sigprocmask@plt+0xf0e8>
   225f8:	000c3603          	ld	a2,0(s8)
   225fc:	d60c8593          	addi	a1,s9,-672 # 23d60 <sigprocmask@plt+0x10d00>
   22600:	000b0513          	mv	a0,s6
   22604:	d8cf00ef          	jal	ra,12b90 <fprintf@plt>
   22608:	001a0a1b          	addiw	s4,s4,1
   2260c:	008c0c13          	addi	s8,s8,8
   22610:	aa5ff06f          	j	220b4 <sigprocmask@plt+0xf054>
   22614:	f7010113          	addi	sp,sp,-144
   22618:	08113423          	sd	ra,136(sp)
   2261c:	08813023          	sd	s0,128(sp)
   22620:	06913c23          	sd	s1,120(sp)
   22624:	07213823          	sd	s2,112(sp)
   22628:	07313423          	sd	s3,104(sp)
   2262c:	07413023          	sd	s4,96(sp)
   22630:	05513c23          	sd	s5,88(sp)
   22634:	05613823          	sd	s6,80(sp)
   22638:	05713423          	sd	s7,72(sp)
   2263c:	05813023          	sd	s8,64(sp)
   22640:	03913c23          	sd	s9,56(sp)
   22644:	03a13823          	sd	s10,48(sp)
   22648:	03b13423          	sd	s11,40(sp)
   2264c:	00054783          	lbu	a5,0(a0)
   22650:	00700713          	li	a4,7
   22654:	fd07879b          	addiw	a5,a5,-48
   22658:	0ff7f793          	andi	a5,a5,255
   2265c:	02f77463          	bgeu	a4,a5,22684 <sigprocmask@plt+0xf624>
   22660:	00025ab7          	lui	s5,0x25
   22664:	00050413          	mv	s0,a0
   22668:	00058913          	mv	s2,a1
   2266c:	c5e18c93          	addi	s9,gp,-930
   22670:	9f8a8a93          	addi	s5,s5,-1544 # 249f8 <sigprocmask@plt+0x11998>
   22674:	00044783          	lbu	a5,0(s0)
   22678:	06079a63          	bnez	a5,226ec <sigprocmask@plt+0xf68c>
   2267c:	0009051b          	sext.w	a0,s2
   22680:	0300006f          	j	226b0 <sigprocmask@plt+0xf650>
   22684:	00800613          	li	a2,8
   22688:	01810593          	addi	a1,sp,24
   2268c:	c34f00ef          	jal	ra,12ac0 <strtoul@plt>
   22690:	01813703          	ld	a4,24(sp)
   22694:	00050793          	mv	a5,a0
   22698:	fff00513          	li	a0,-1
   2269c:	00074703          	lbu	a4,0(a4)
   226a0:	00071863          	bnez	a4,226b0 <sigprocmask@plt+0xf650>
   226a4:	00001737          	lui	a4,0x1
   226a8:	00e7f463          	bgeu	a5,a4,226b0 <sigprocmask@plt+0xf650>
   226ac:	0007851b          	sext.w	a0,a5
   226b0:	08813083          	ld	ra,136(sp)
   226b4:	08013403          	ld	s0,128(sp)
   226b8:	07813483          	ld	s1,120(sp)
   226bc:	07013903          	ld	s2,112(sp)
   226c0:	06813983          	ld	s3,104(sp)
   226c4:	06013a03          	ld	s4,96(sp)
   226c8:	05813a83          	ld	s5,88(sp)
   226cc:	05013b03          	ld	s6,80(sp)
   226d0:	04813b83          	ld	s7,72(sp)
   226d4:	04013c03          	ld	s8,64(sp)
   226d8:	03813c83          	ld	s9,56(sp)
   226dc:	03013d03          	ld	s10,48(sp)
   226e0:	02813d83          	ld	s11,40(sp)
   226e4:	09010113          	addi	sp,sp,144
   226e8:	00008067          	ret
   226ec:	02c00713          	li	a4,44
   226f0:	00e79663          	bne	a5,a4,226fc <sigprocmask@plt+0xf69c>
   226f4:	00140413          	addi	s0,s0,1
   226f8:	f7dff06f          	j	22674 <sigprocmask@plt+0xf614>
   226fc:	00025737          	lui	a4,0x25
   22700:	00000a13          	li	s4,0
   22704:	c6518b13          	addi	s6,gp,-923
   22708:	a1070713          	addi	a4,a4,-1520 # 24a10 <sigprocmask@plt+0x119b0>
   2270c:	00044603          	lbu	a2,0(s0)
   22710:	c6518793          	addi	a5,gp,-923
   22714:	0007c683          	lbu	a3,0(a5)
   22718:	02c69663          	bne	a3,a2,22744 <sigprocmask@plt+0xf6e4>
   2271c:	416787bb          	subw	a5,a5,s6
   22720:	00279793          	slli	a5,a5,0x2
   22724:	00f707b3          	add	a5,a4,a5
   22728:	0007a783          	lw	a5,0(a5)
   2272c:	00140413          	addi	s0,s0,1
   22730:	00fa6a33          	or	s4,s4,a5
   22734:	00044783          	lbu	a5,0(s0)
   22738:	fc079ae3          	bnez	a5,2270c <sigprocmask@plt+0xf6ac>
   2273c:	fff00513          	li	a0,-1
   22740:	f71ff06f          	j	226b0 <sigprocmask@plt+0xf650>
   22744:	0017c683          	lbu	a3,1(a5)
   22748:	00178793          	addi	a5,a5,1
   2274c:	fc0694e3          	bnez	a3,22714 <sigprocmask@plt+0xf6b4>
   22750:	fffa4793          	not	a5,s4
   22754:	fffffd37          	lui	s10,0xfffff
   22758:	000a0463          	beqz	s4,22760 <sigprocmask@plt+0xf700>
   2275c:	00078d1b          	sext.w	s10,a5
   22760:	00004db7          	lui	s11,0x4
   22764:	049d8d93          	addi	s11,s11,73 # 4049 <longjmp@plt-0xe837>
   22768:	00044703          	lbu	a4,0(s0)
   2276c:	fd57079b          	addiw	a5,a4,-43
   22770:	0fd7f793          	andi	a5,a5,253
   22774:	00078863          	beqz	a5,22784 <sigprocmask@plt+0xf724>
   22778:	03d00793          	li	a5,61
   2277c:	fcf710e3          	bne	a4,a5,2273c <sigprocmask@plt+0xf6dc>
   22780:	012d7933          	and	s2,s10,s2
   22784:	00144603          	lbu	a2,1(s0)
   22788:	001b0793          	addi	a5,s6,1
   2278c:	0007c683          	lbu	a3,0(a5)
   22790:	0ac69263          	bne	a3,a2,22834 <sigprocmask@plt+0xf7d4>
   22794:	416787bb          	subw	a5,a5,s6
   22798:	000256b7          	lui	a3,0x25
   2279c:	00279793          	slli	a5,a5,0x2
   227a0:	a1068693          	addi	a3,a3,-1520 # 24a10 <sigprocmask@plt+0x119b0>
   227a4:	00f687b3          	add	a5,a3,a5
   227a8:	0007a783          	lw	a5,0(a5)
   227ac:	00f977b3          	and	a5,s2,a5
   227b0:	1ff7f493          	andi	s1,a5,511
   227b4:	1247f793          	andi	a5,a5,292
   227b8:	00078463          	beqz	a5,227c0 <sigprocmask@plt+0xf760>
   227bc:	1244e493          	ori	s1,s1,292
   227c0:	0924f793          	andi	a5,s1,146
   227c4:	00078463          	beqz	a5,227cc <sigprocmask@plt+0xf76c>
   227c8:	0924e493          	ori	s1,s1,146
   227cc:	0494f793          	andi	a5,s1,73
   227d0:	00078463          	beqz	a5,227d8 <sigprocmask@plt+0xf778>
   227d4:	0494e493          	ori	s1,s1,73
   227d8:	00240413          	addi	s0,s0,2
   227dc:	04048263          	beqz	s1,22820 <sigprocmask@plt+0xf7c0>
   227e0:	000a0993          	mv	s3,s4
   227e4:	020a1263          	bnez	s4,22808 <sigprocmask@plt+0xf7a8>
   227e8:	00000513          	li	a0,0
   227ec:	00e13423          	sd	a4,8(sp)
   227f0:	c00f00ef          	jal	ra,12bf0 <umask@plt>
   227f4:	0005099b          	sext.w	s3,a0
   227f8:	00098513          	mv	a0,s3
   227fc:	bf4f00ef          	jal	ra,12bf0 <umask@plt>
   22800:	00813703          	ld	a4,8(sp)
   22804:	fff9c993          	not	s3,s3
   22808:	0134f4b3          	and	s1,s1,s3
   2280c:	02d00793          	li	a5,45
   22810:	0004849b          	sext.w	s1,s1
   22814:	08f71463          	bne	a4,a5,2289c <sigprocmask@plt+0xf83c>
   22818:	fff4c493          	not	s1,s1
   2281c:	0124f933          	and	s2,s1,s2
   22820:	00044783          	lbu	a5,0(s0)
   22824:	e40788e3          	beqz	a5,22674 <sigprocmask@plt+0xf614>
   22828:	02c00713          	li	a4,44
   2282c:	f2e79ee3          	bne	a5,a4,22768 <sigprocmask@plt+0xf708>
   22830:	e45ff06f          	j	22674 <sigprocmask@plt+0xf614>
   22834:	0017c683          	lbu	a3,1(a5)
   22838:	00178793          	addi	a5,a5,1
   2283c:	f40698e3          	bnez	a3,2278c <sigprocmask@plt+0xf72c>
   22840:	00140413          	addi	s0,s0,1
   22844:	00000493          	li	s1,0
   22848:	05800593          	li	a1,88
   2284c:	01b97533          	and	a0,s2,s11
   22850:	00044683          	lbu	a3,0(s0)
   22854:	c5e18793          	addi	a5,gp,-930
   22858:	0007c603          	lbu	a2,0(a5)
   2285c:	02d61863          	bne	a2,a3,2288c <sigprocmask@plt+0xf82c>
   22860:	00b69463          	bne	a3,a1,22868 <sigprocmask@plt+0xf808>
   22864:	00050c63          	beqz	a0,2287c <sigprocmask@plt+0xf81c>
   22868:	419787bb          	subw	a5,a5,s9
   2286c:	00279793          	slli	a5,a5,0x2
   22870:	00fa87b3          	add	a5,s5,a5
   22874:	0007a783          	lw	a5,0(a5)
   22878:	00f4e4b3          	or	s1,s1,a5
   2287c:	00144783          	lbu	a5,1(s0)
   22880:	00140413          	addi	s0,s0,1
   22884:	f4078ce3          	beqz	a5,227dc <sigprocmask@plt+0xf77c>
   22888:	fc9ff06f          	j	22850 <sigprocmask@plt+0xf7f0>
   2288c:	0017c603          	lbu	a2,1(a5)
   22890:	00178793          	addi	a5,a5,1
   22894:	fc0612e3          	bnez	a2,22858 <sigprocmask@plt+0xf7f8>
   22898:	f45ff06f          	j	227dc <sigprocmask@plt+0xf77c>
   2289c:	00996933          	or	s2,s2,s1
   228a0:	f81ff06f          	j	22820 <sigprocmask@plt+0xf7c0>
   228a4:	00058793          	mv	a5,a1
   228a8:	05e00693          	li	a3,94
   228ac:	0007c703          	lbu	a4,0(a5)
   228b0:	02071063          	bnez	a4,228d0 <sigprocmask@plt+0xf870>
   228b4:	00050a63          	beqz	a0,228c8 <sigprocmask@plt+0xf868>
   228b8:	40b787bb          	subw	a5,a5,a1
   228bc:	00f52023          	sw	a5,0(a0)
   228c0:	00f52223          	sw	a5,4(a0)
   228c4:	00f52423          	sw	a5,8(a0)
   228c8:	00058513          	mv	a0,a1
   228cc:	00008067          	ret
   228d0:	fe07071b          	addiw	a4,a4,-32
   228d4:	0ff77713          	andi	a4,a4,255
   228d8:	00e6e663          	bltu	a3,a4,228e4 <sigprocmask@plt+0xf884>
   228dc:	00178793          	addi	a5,a5,1
   228e0:	fcdff06f          	j	228ac <sigprocmask@plt+0xf84c>
   228e4:	ff010113          	addi	sp,sp,-16
   228e8:	00113423          	sd	ra,8(sp)
   228ec:	3b9000ef          	jal	ra,234a4 <sigprocmask@plt+0x10444>
   228f0:	00813083          	ld	ra,8(sp)
   228f4:	01010113          	addi	sp,sp,16
   228f8:	45d0006f          	j	23554 <sigprocmask@plt+0x104f4>
   228fc:	00050593          	mv	a1,a0
   22900:	00000513          	li	a0,0
   22904:	fa1ff06f          	j	228a4 <sigprocmask@plt+0xf844>
   22908:	00053783          	ld	a5,0(a0)
   2290c:	07800713          	li	a4,120
   22910:	00050813          	mv	a6,a0
   22914:	0007c603          	lbu	a2,0(a5)
   22918:	00800513          	li	a0,8
   2291c:	00000693          	li	a3,0
   22920:	00e61863          	bne	a2,a4,22930 <sigprocmask@plt+0xf8d0>
   22924:	00178793          	addi	a5,a5,1
   22928:	01000513          	li	a0,16
   2292c:	00100693          	li	a3,1
   22930:	00000613          	li	a2,0
   22934:	00900e13          	li	t3,9
   22938:	06000e93          	li	t4,96
   2293c:	0ff00f13          	li	t5,255
   22940:	00300313          	li	t1,3
   22944:	0007c883          	lbu	a7,0(a5)
   22948:	fd08871b          	addiw	a4,a7,-48
   2294c:	00ee7863          	bgeu	t3,a4,2295c <sigprocmask@plt+0xf8fc>
   22950:	0208e713          	ori	a4,a7,32
   22954:	00eef663          	bgeu	t4,a4,22960 <sigprocmask@plt+0xf900>
   22958:	fa97071b          	addiw	a4,a4,-87
   2295c:	02a76263          	bltu	a4,a0,22980 <sigprocmask@plt+0xf920>
   22960:	01000713          	li	a4,16
   22964:	02e51e63          	bne	a0,a4,229a0 <sigprocmask@plt+0xf940>
   22968:	00100713          	li	a4,1
   2296c:	05c00513          	li	a0,92
   22970:	00e68663          	beq	a3,a4,2297c <sigprocmask@plt+0xf91c>
   22974:	00f83023          	sd	a5,0(a6)
   22978:	0ff67513          	andi	a0,a2,255
   2297c:	00008067          	ret
   22980:	02a605bb          	mulw	a1,a2,a0
   22984:	00e5873b          	addw	a4,a1,a4
   22988:	00ef6c63          	bltu	t5,a4,229a0 <sigprocmask@plt+0xf940>
   2298c:	0016869b          	addiw	a3,a3,1
   22990:	00178793          	addi	a5,a5,1
   22994:	00070613          	mv	a2,a4
   22998:	fa6696e3          	bne	a3,t1,22944 <sigprocmask@plt+0xf8e4>
   2299c:	fd9ff06f          	j	22974 <sigprocmask@plt+0xf914>
   229a0:	fc069ae3          	bnez	a3,22974 <sigprocmask@plt+0xf914>
   229a4:	00025737          	lui	a4,0x25
   229a8:	1fe70713          	addi	a4,a4,510 # 251fe <sigprocmask@plt+0x1219e>
   229ac:	00074683          	lbu	a3,0(a4)
   229b0:	01169863          	bne	a3,a7,229c0 <sigprocmask@plt+0xf960>
   229b4:	00178793          	addi	a5,a5,1
   229b8:	00a74603          	lbu	a2,10(a4)
   229bc:	fb9ff06f          	j	22974 <sigprocmask@plt+0xf914>
   229c0:	00174683          	lbu	a3,1(a4)
   229c4:	00170713          	addi	a4,a4,1
   229c8:	fe0692e3          	bnez	a3,229ac <sigprocmask@plt+0xf94c>
   229cc:	fedff06f          	j	229b8 <sigprocmask@plt+0xf958>
   229d0:	f9010113          	addi	sp,sp,-112
   229d4:	00100793          	li	a5,1
   229d8:	00f11623          	sh	a5,12(sp)
   229dc:	05313423          	sd	s3,72(sp)
   229e0:	ca01b983          	ld	s3,-864(gp)
   229e4:	03713423          	sd	s7,40(sp)
   229e8:	00025bb7          	lui	s7,0x25
   229ec:	04913c23          	sd	s1,88(sp)
   229f0:	05413023          	sd	s4,64(sp)
   229f4:	03513c23          	sd	s5,56(sp)
   229f8:	03613823          	sd	s6,48(sp)
   229fc:	03813023          	sd	s8,32(sp)
   22a00:	01913c23          	sd	s9,24(sp)
   22a04:	06113423          	sd	ra,104(sp)
   22a08:	06813023          	sd	s0,96(sp)
   22a0c:	05213823          	sd	s2,80(sp)
   22a10:	01a13823          	sd	s10,16(sp)
   22a14:	00050a13          	mv	s4,a0
   22a18:	00058493          	mv	s1,a1
   22a1c:	00060b13          	mv	s6,a2
   22a20:	00a12423          	sw	a0,8(sp)
   22a24:	00158a93          	addi	s5,a1,1
   22a28:	fff00c13          	li	s8,-1
   22a2c:	00258c93          	addi	s9,a1,2
   22a30:	212b8b93          	addi	s7,s7,530 # 25212 <sigprocmask@plt+0x121b2>
   22a34:	0009a023          	sw	zero,0(s3)
   22a38:	0004c403          	lbu	s0,0(s1)
   22a3c:	04041263          	bnez	s0,22a80 <sigprocmask@plt+0xfa20>
   22a40:	038b4463          	blt	s6,s8,22a68 <sigprocmask@plt+0xfa08>
   22a44:	000b0613          	mv	a2,s6
   22a48:	00100593          	li	a1,1
   22a4c:	00810513          	addi	a0,sp,8
   22a50:	2cc000ef          	jal	ra,22d1c <sigprocmask@plt+0xfcbc>
   22a54:	00051a63          	bnez	a0,22a68 <sigprocmask@plt+0xfa08>
   22a58:	00b00793          	li	a5,11
   22a5c:	00f9a023          	sw	a5,0(s3)
   22a60:	fff00513          	li	a0,-1
   22a64:	0480006f          	j	22aac <sigprocmask@plt+0xfa4c>
   22a68:	00100613          	li	a2,1
   22a6c:	000a8593          	mv	a1,s5
   22a70:	000a0513          	mv	a0,s4
   22a74:	dadf10ef          	jal	ra,14820 <sigprocmask@plt+0x17c0>
   22a78:	0005041b          	sext.w	s0,a0
   22a7c:	fe8052e3          	blez	s0,22a60 <sigprocmask@plt+0xfa00>
   22a80:	fff4041b          	addiw	s0,s0,-1
   22a84:	0014c903          	lbu	s2,1(s1)
   22a88:	00040a63          	beqz	s0,22a9c <sigprocmask@plt+0xfa3c>
   22a8c:	00040613          	mv	a2,s0
   22a90:	000c8593          	mv	a1,s9
   22a94:	000a8513          	mv	a0,s5
   22a98:	ed9ef0ef          	jal	ra,12970 <memmove@plt>
   22a9c:	01b00793          	li	a5,27
   22aa0:	08f90863          	beq	s2,a5,22b30 <sigprocmask@plt+0xfad0>
   22aa4:	00848023          	sb	s0,0(s1)
   22aa8:	00090513          	mv	a0,s2
   22aac:	06813083          	ld	ra,104(sp)
   22ab0:	06013403          	ld	s0,96(sp)
   22ab4:	05813483          	ld	s1,88(sp)
   22ab8:	05013903          	ld	s2,80(sp)
   22abc:	04813983          	ld	s3,72(sp)
   22ac0:	04013a03          	ld	s4,64(sp)
   22ac4:	03813a83          	ld	s5,56(sp)
   22ac8:	03013b03          	ld	s6,48(sp)
   22acc:	02813b83          	ld	s7,40(sp)
   22ad0:	02013c03          	ld	s8,32(sp)
   22ad4:	01813c83          	ld	s9,24(sp)
   22ad8:	01013d03          	ld	s10,16(sp)
   22adc:	07010113          	addi	sp,sp,112
   22ae0:	00008067          	ret
   22ae4:	00278d13          	addi	s10,a5,2
   22ae8:	00000913          	li	s2,0
   22aec:	04894863          	blt	s2,s0,22b3c <sigprocmask@plt+0xfadc>
   22af0:	03200613          	li	a2,50
   22af4:	00100593          	li	a1,1
   22af8:	00810513          	addi	a0,sp,8
   22afc:	220000ef          	jal	ra,22d1c <sigprocmask@plt+0xfcbc>
   22b00:	0c050c63          	beqz	a0,22bd8 <sigprocmask@plt+0xfb78>
   22b04:	0009a023          	sw	zero,0(s3)
   22b08:	00100613          	li	a2,1
   22b0c:	008a85b3          	add	a1,s5,s0
   22b10:	000a0513          	mv	a0,s4
   22b14:	d0df10ef          	jal	ra,14820 <sigprocmask@plt+0x17c0>
   22b18:	02a04063          	bgtz	a0,22b38 <sigprocmask@plt+0xfad8>
   22b1c:	0009a703          	lw	a4,0(s3)
   22b20:	00b00793          	li	a5,11
   22b24:	0af70a63          	beq	a4,a5,22bd8 <sigprocmask@plt+0xfb78>
   22b28:	00048023          	sb	zero,0(s1)
   22b2c:	f35ff06f          	j	22a60 <sigprocmask@plt+0xfa00>
   22b30:	000b8d13          	mv	s10,s7
   22b34:	fb5ff06f          	j	22ae8 <sigprocmask@plt+0xfa88>
   22b38:	0014041b          	addiw	s0,s0,1
   22b3c:	012d07b3          	add	a5,s10,s2
   22b40:	012a86b3          	add	a3,s5,s2
   22b44:	0007c703          	lbu	a4,0(a5)
   22b48:	0006c603          	lbu	a2,0(a3)
   22b4c:	07f77693          	andi	a3,a4,127
   22b50:	02d61063          	bne	a2,a3,22b70 <sigprocmask@plt+0xfb10>
   22b54:	0187171b          	slliw	a4,a4,0x18
   22b58:	4187571b          	sraiw	a4,a4,0x18
   22b5c:	02075e63          	bgez	a4,22b98 <sigprocmask@plt+0xfb38>
   22b60:	00048023          	sb	zero,0(s1)
   22b64:	00178503          	lb	a0,1(a5)
   22b68:	f45ff06f          	j	22aac <sigprocmask@plt+0xfa4c>
   22b6c:	00178793          	addi	a5,a5,1
   22b70:	00078703          	lb	a4,0(a5)
   22b74:	fe075ce3          	bgez	a4,22b6c <sigprocmask@plt+0xfb0c>
   22b78:	0027c703          	lbu	a4,2(a5)
   22b7c:	f60714e3          	bnez	a4,22ae4 <sigprocmask@plt+0xfa84>
   22b80:	00140913          	addi	s2,s0,1
   22b84:	01248933          	add	s2,s1,s2
   22b88:	00e00d13          	li	s10,14
   22b8c:	008d5a63          	bge	s10,s0,22ba0 <sigprocmask@plt+0xfb40>
   22b90:	00048023          	sb	zero,0(s1)
   22b94:	ea1ff06f          	j	22a34 <sigprocmask@plt+0xf9d4>
   22b98:	0019091b          	addiw	s2,s2,1
   22b9c:	f51ff06f          	j	22aec <sigprocmask@plt+0xfa8c>
   22ba0:	03200613          	li	a2,50
   22ba4:	00100593          	li	a1,1
   22ba8:	00810513          	addi	a0,sp,8
   22bac:	170000ef          	jal	ra,22d1c <sigprocmask@plt+0xfcbc>
   22bb0:	02050463          	beqz	a0,22bd8 <sigprocmask@plt+0xfb78>
   22bb4:	00090593          	mv	a1,s2
   22bb8:	0009a023          	sw	zero,0(s3)
   22bbc:	00100613          	li	a2,1
   22bc0:	000a0513          	mv	a0,s4
   22bc4:	c5df10ef          	jal	ra,14820 <sigprocmask@plt+0x17c0>
   22bc8:	00190913          	addi	s2,s2,1
   22bcc:	f4a058e3          	blez	a0,22b1c <sigprocmask@plt+0xfabc>
   22bd0:	0014041b          	addiw	s0,s0,1
   22bd4:	fb9ff06f          	j	22b8c <sigprocmask@plt+0xfb2c>
   22bd8:	00100793          	li	a5,1
   22bdc:	fa87cae3          	blt	a5,s0,22b90 <sigprocmask@plt+0xfb30>
   22be0:	00848023          	sb	s0,0(s1)
   22be4:	01b00513          	li	a0,27
   22be8:	ec5ff06f          	j	22aac <sigprocmask@plt+0xfa4c>
   22bec:	fe010113          	addi	sp,sp,-32
   22bf0:	00813823          	sd	s0,16(sp)
   22bf4:	00913423          	sd	s1,8(sp)
   22bf8:	00113c23          	sd	ra,24(sp)
   22bfc:	00050413          	mv	s0,a0
   22c00:	00054503          	lbu	a0,0(a0)
   22c04:	00f00493          	li	s1,15
   22c08:	40a484bb          	subw	s1,s1,a0
   22c0c:	0004879b          	sext.w	a5,s1
   22c10:	00f67463          	bgeu	a2,a5,22c18 <sigprocmask@plt+0xfbb8>
   22c14:	00060493          	mv	s1,a2
   22c18:	02049613          	slli	a2,s1,0x20
   22c1c:	00150513          	addi	a0,a0,1
   22c20:	00a40533          	add	a0,s0,a0
   22c24:	02065613          	srli	a2,a2,0x20
   22c28:	de9ef0ef          	jal	ra,12a10 <memcpy@plt>
   22c2c:	00044783          	lbu	a5,0(s0)
   22c30:	01813083          	ld	ra,24(sp)
   22c34:	009784bb          	addw	s1,a5,s1
   22c38:	00940023          	sb	s1,0(s0)
   22c3c:	01013403          	ld	s0,16(sp)
   22c40:	00813483          	ld	s1,8(sp)
   22c44:	02010113          	addi	sp,sp,32
   22c48:	00008067          	ret
   22c4c:	ca01b783          	ld	a5,-864(gp)
   22c50:	fb010113          	addi	sp,sp,-80
   22c54:	04813023          	sd	s0,64(sp)
   22c58:	02913c23          	sd	s1,56(sp)
   22c5c:	03213823          	sd	s2,48(sp)
   22c60:	03313423          	sd	s3,40(sp)
   22c64:	03413023          	sd	s4,32(sp)
   22c68:	01513c23          	sd	s5,24(sp)
   22c6c:	04113423          	sd	ra,72(sp)
   22c70:	00050413          	mv	s0,a0
   22c74:	00058493          	mv	s1,a1
   22c78:	00060913          	mv	s2,a2
   22c7c:	00078a93          	mv	s5,a5
   22c80:	00b00a13          	li	s4,11
   22c84:	00100993          	li	s3,1
   22c88:	00090613          	mv	a2,s2
   22c8c:	00048593          	mv	a1,s1
   22c90:	00040513          	mv	a0,s0
   22c94:	b8df10ef          	jal	ra,14820 <sigprocmask@plt+0x17c0>
   22c98:	02055463          	bgez	a0,22cc0 <sigprocmask@plt+0xfc60>
   22c9c:	000aa783          	lw	a5,0(s5)
   22ca0:	03479063          	bne	a5,s4,22cc0 <sigprocmask@plt+0xfc60>
   22ca4:	fff00613          	li	a2,-1
   22ca8:	00100593          	li	a1,1
   22cac:	00810513          	addi	a0,sp,8
   22cb0:	00812423          	sw	s0,8(sp)
   22cb4:	01311623          	sh	s3,12(sp)
   22cb8:	064000ef          	jal	ra,22d1c <sigprocmask@plt+0xfcbc>
   22cbc:	fcdff06f          	j	22c88 <sigprocmask@plt+0xfc28>
   22cc0:	04813083          	ld	ra,72(sp)
   22cc4:	04013403          	ld	s0,64(sp)
   22cc8:	03813483          	ld	s1,56(sp)
   22ccc:	03013903          	ld	s2,48(sp)
   22cd0:	02813983          	ld	s3,40(sp)
   22cd4:	02013a03          	ld	s4,32(sp)
   22cd8:	01813a83          	ld	s5,24(sp)
   22cdc:	05010113          	addi	sp,sp,80
   22ce0:	00008067          	ret
   22ce4:	e6010113          	addi	sp,sp,-416
   22ce8:	00810513          	addi	a0,sp,8
   22cec:	18113c23          	sd	ra,408(sp)
   22cf0:	e41ef0ef          	jal	ra,12b30 <uname@plt>
   22cf4:	04914783          	lbu	a5,73(sp)
   22cf8:	04910513          	addi	a0,sp,73
   22cfc:	00079663          	bnez	a5,22d08 <sigprocmask@plt+0xfca8>
   22d00:	00025537          	lui	a0,0x25
   22d04:	a2050513          	addi	a0,a0,-1504 # 24a20 <sigprocmask@plt+0x119c0>
   22d08:	04100593          	li	a1,65
   22d0c:	8c1f10ef          	jal	ra,145cc <sigprocmask@plt+0x156c>
   22d10:	19813083          	ld	ra,408(sp)
   22d14:	1a010113          	addi	sp,sp,416
   22d18:	00008067          	ret
   22d1c:	ca01b783          	ld	a5,-864(gp)
   22d20:	fc010113          	addi	sp,sp,-64
   22d24:	02813823          	sd	s0,48(sp)
   22d28:	03213023          	sd	s2,32(sp)
   22d2c:	01313c23          	sd	s3,24(sp)
   22d30:	01413823          	sd	s4,16(sp)
   22d34:	01513423          	sd	s5,8(sp)
   22d38:	02113c23          	sd	ra,56(sp)
   22d3c:	02913423          	sd	s1,40(sp)
   22d40:	00050913          	mv	s2,a0
   22d44:	00058993          	mv	s3,a1
   22d48:	00060413          	mv	s0,a2
   22d4c:	00078a93          	mv	s5,a5
   22d50:	00400a13          	li	s4,4
   22d54:	00040613          	mv	a2,s0
   22d58:	00098593          	mv	a1,s3
   22d5c:	00090513          	mv	a0,s2
   22d60:	880f00ef          	jal	ra,12de0 <poll@plt>
   22d64:	00050493          	mv	s1,a0
   22d68:	02055263          	bgez	a0,22d8c <sigprocmask@plt+0xfd2c>
   22d6c:	00805463          	blez	s0,22d74 <sigprocmask@plt+0xfd14>
   22d70:	fff4041b          	addiw	s0,s0,-1
   22d74:	000aa783          	lw	a5,0(s5)
   22d78:	ff77f793          	andi	a5,a5,-9
   22d7c:	fd478ce3          	beq	a5,s4,22d54 <sigprocmask@plt+0xfcf4>
   22d80:	00025537          	lui	a0,0x25
   22d84:	a2850513          	addi	a0,a0,-1496 # 24a28 <sigprocmask@plt+0x119c8>
   22d88:	87cf10ef          	jal	ra,13e04 <sigprocmask@plt+0xda4>
   22d8c:	03813083          	ld	ra,56(sp)
   22d90:	03013403          	ld	s0,48(sp)
   22d94:	02013903          	ld	s2,32(sp)
   22d98:	01813983          	ld	s3,24(sp)
   22d9c:	01013a03          	ld	s4,16(sp)
   22da0:	00813a83          	ld	s5,8(sp)
   22da4:	00048513          	mv	a0,s1
   22da8:	02813483          	ld	s1,40(sp)
   22dac:	04010113          	addi	sp,sp,64
   22db0:	00008067          	ret
   22db4:	00060a63          	beqz	a2,22dc8 <sigprocmask@plt+0xfd68>
   22db8:	fff60613          	addi	a2,a2,-1
   22dbc:	00c507b3          	add	a5,a0,a2
   22dc0:	00078023          	sb	zero,0(a5)
   22dc4:	eadef06f          	j	12c70 <strncpy@plt>
   22dc8:	00008067          	ret
   22dcc:	00b51863          	bne	a0,a1,22ddc <sigprocmask@plt+0xfd7c>
   22dd0:	00008067          	ret
   22dd4:	00150513          	addi	a0,a0,1
   22dd8:	00158593          	addi	a1,a1,1
   22ddc:	0005c783          	lbu	a5,0(a1)
   22de0:	00f50023          	sb	a5,0(a0)
   22de4:	fe0798e3          	bnez	a5,22dd4 <sigprocmask@plt+0xfd74>
   22de8:	00008067          	ret
   22dec:	ff010113          	addi	sp,sp,-16
   22df0:	00200513          	li	a0,2
   22df4:	00113423          	sd	ra,8(sp)
   22df8:	b19ef0ef          	jal	ra,12910 <sysconf@plt>
   22dfc:	00813083          	ld	ra,8(sp)
   22e00:	0005051b          	sext.w	a0,a0
   22e04:	01010113          	addi	sp,sp,16
   22e08:	00008067          	ret
   22e0c:	fd010113          	addi	sp,sp,-48
   22e10:	00a00613          	li	a2,10
   22e14:	00000593          	li	a1,0
   22e18:	02813023          	sd	s0,32(sp)
   22e1c:	00913c23          	sd	s1,24(sp)
   22e20:	02113423          	sd	ra,40(sp)
   22e24:	01213823          	sd	s2,16(sp)
   22e28:	01313423          	sd	s3,8(sp)
   22e2c:	01413023          	sd	s4,0(sp)
   22e30:	00050493          	mv	s1,a0
   22e34:	d7df10ef          	jal	ra,14bb0 <sigprocmask@plt+0x1b50>
   22e38:	0005041b          	sext.w	s0,a0
   22e3c:	04000793          	li	a5,64
   22e40:	0287e663          	bltu	a5,s0,22e6c <sigprocmask@plt+0xfe0c>
   22e44:	0004041b          	sext.w	s0,s0
   22e48:	02813083          	ld	ra,40(sp)
   22e4c:	00040513          	mv	a0,s0
   22e50:	02013403          	ld	s0,32(sp)
   22e54:	01813483          	ld	s1,24(sp)
   22e58:	01013903          	ld	s2,16(sp)
   22e5c:	00813983          	ld	s3,8(sp)
   22e60:	00013a03          	ld	s4,0(sp)
   22e64:	03010113          	addi	sp,sp,48
   22e68:	00008067          	ret
   22e6c:	000255b7          	lui	a1,0x25
   22e70:	00300613          	li	a2,3
   22e74:	a3058593          	addi	a1,a1,-1488 # 24a30 <sigprocmask@plt+0x119d0>
   22e78:	00048513          	mv	a0,s1
   22e7c:	c85ef0ef          	jal	ra,12b00 <strncasecmp@plt>
   22e80:	00051463          	bnez	a0,22e88 <sigprocmask@plt+0xfe28>
   22e84:	00348493          	addi	s1,s1,3
   22e88:	00025937          	lui	s2,0x25
   22e8c:	27990913          	addi	s2,s2,633 # 25279 <sigprocmask@plt+0x12219>
   22e90:	00000413          	li	s0,0
   22e94:	02000993          	li	s3,32
   22e98:	00090593          	mv	a1,s2
   22e9c:	00048513          	mv	a0,s1
   22ea0:	de1ef0ef          	jal	ra,12c80 <strcasecmp@plt>
   22ea4:	fa0500e3          	beqz	a0,22e44 <sigprocmask@plt+0xfde4>
   22ea8:	0014041b          	addiw	s0,s0,1
   22eac:	00790913          	addi	s2,s2,7
   22eb0:	ff3414e3          	bne	s0,s3,22e98 <sigprocmask@plt+0xfe38>
   22eb4:	0004c783          	lbu	a5,0(s1)
   22eb8:	06900713          	li	a4,105
   22ebc:	0207e793          	ori	a5,a5,32
   22ec0:	02e79c63          	bne	a5,a4,22ef8 <sigprocmask@plt+0xfe98>
   22ec4:	0014c783          	lbu	a5,1(s1)
   22ec8:	06f00713          	li	a4,111
   22ecc:	0207e793          	ori	a5,a5,32
   22ed0:	02e79463          	bne	a5,a4,22ef8 <sigprocmask@plt+0xfe98>
   22ed4:	0024c783          	lbu	a5,2(s1)
   22ed8:	01d00413          	li	s0,29
   22edc:	f60786e3          	beqz	a5,22e48 <sigprocmask@plt+0xfde8>
   22ee0:	0207e793          	ori	a5,a5,32
   22ee4:	07400713          	li	a4,116
   22ee8:	00e79863          	bne	a5,a4,22ef8 <sigprocmask@plt+0xfe98>
   22eec:	0034c783          	lbu	a5,3(s1)
   22ef0:	00600413          	li	s0,6
   22ef4:	f4078ae3          	beqz	a5,22e48 <sigprocmask@plt+0xfde8>
   22ef8:	b69ef0ef          	jal	ra,12a60 <__libc_current_sigrtmin@plt>
   22efc:	00050413          	mv	s0,a0
   22f00:	0005099b          	sext.w	s3,a0
   22f04:	addef0ef          	jal	ra,129e0 <__libc_current_sigrtmax@plt>
   22f08:	000255b7          	lui	a1,0x25
   22f0c:	00050a13          	mv	s4,a0
   22f10:	0005091b          	sext.w	s2,a0
   22f14:	00500613          	li	a2,5
   22f18:	a3858593          	addi	a1,a1,-1480 # 24a38 <sigprocmask@plt+0x119d8>
   22f1c:	00048513          	mv	a0,s1
   22f20:	be1ef0ef          	jal	ra,12b00 <strncasecmp@plt>
   22f24:	04051063          	bnez	a0,22f64 <sigprocmask@plt+0xff04>
   22f28:	0054c783          	lbu	a5,5(s1)
   22f2c:	f0078ee3          	beqz	a5,22e48 <sigprocmask@plt+0xfde8>
   22f30:	02b00713          	li	a4,43
   22f34:	00e78663          	beq	a5,a4,22f40 <sigprocmask@plt+0xfee0>
   22f38:	fff00413          	li	s0,-1
   22f3c:	f0dff06f          	j	22e48 <sigprocmask@plt+0xfde8>
   22f40:	00a00613          	li	a2,10
   22f44:	00000593          	li	a1,0
   22f48:	00648513          	addi	a0,s1,6
   22f4c:	c65f10ef          	jal	ra,14bb0 <sigprocmask@plt+0x1b50>
   22f50:	0005051b          	sext.w	a0,a0
   22f54:	4139093b          	subw	s2,s2,s3
   22f58:	fea960e3          	bltu	s2,a0,22f38 <sigprocmask@plt+0xfed8>
   22f5c:	00a9843b          	addw	s0,s3,a0
   22f60:	ee9ff06f          	j	22e48 <sigprocmask@plt+0xfde8>
   22f64:	000255b7          	lui	a1,0x25
   22f68:	00500613          	li	a2,5
   22f6c:	a4058593          	addi	a1,a1,-1472 # 24a40 <sigprocmask@plt+0x119e0>
   22f70:	00048513          	mv	a0,s1
   22f74:	b8def0ef          	jal	ra,12b00 <strncasecmp@plt>
   22f78:	fc0510e3          	bnez	a0,22f38 <sigprocmask@plt+0xfed8>
   22f7c:	0054c783          	lbu	a5,5(s1)
   22f80:	000a0413          	mv	s0,s4
   22f84:	ec0782e3          	beqz	a5,22e48 <sigprocmask@plt+0xfde8>
   22f88:	02d00713          	li	a4,45
   22f8c:	fae796e3          	bne	a5,a4,22f38 <sigprocmask@plt+0xfed8>
   22f90:	00a00613          	li	a2,10
   22f94:	00000593          	li	a1,0
   22f98:	00648513          	addi	a0,s1,6
   22f9c:	c15f10ef          	jal	ra,14bb0 <sigprocmask@plt+0x1b50>
   22fa0:	0005051b          	sext.w	a0,a0
   22fa4:	413909bb          	subw	s3,s2,s3
   22fa8:	f8a9e8e3          	bltu	s3,a0,22f38 <sigprocmask@plt+0xfed8>
   22fac:	40a9043b          	subw	s0,s2,a0
   22fb0:	e99ff06f          	j	22e48 <sigprocmask@plt+0xfde8>
   22fb4:	01f00793          	li	a5,31
   22fb8:	02a7e063          	bltu	a5,a0,22fd8 <sigprocmask@plt+0xff78>
   22fbc:	00700793          	li	a5,7
   22fc0:	02f50733          	mul	a4,a0,a5
   22fc4:	000257b7          	lui	a5,0x25
   22fc8:	27978793          	addi	a5,a5,633 # 25279 <sigprocmask@plt+0x12219>
   22fcc:	00e787b3          	add	a5,a5,a4
   22fd0:	0007c703          	lbu	a4,0(a5)
   22fd4:	00071463          	bnez	a4,22fdc <sigprocmask@plt+0xff7c>
   22fd8:	a54f106f          	j	1422c <sigprocmask@plt+0x11cc>
   22fdc:	00078513          	mv	a0,a5
   22fe0:	00008067          	ret
   22fe4:	07f00713          	li	a4,127
   22fe8:	00050693          	mv	a3,a0
   22fec:	0005879b          	sext.w	a5,a1
   22ff0:	00b76863          	bltu	a4,a1,23000 <sigprocmask@plt+0xffa0>
   22ff4:	00b50023          	sb	a1,0(a0)
   22ff8:	00100513          	li	a0,1
   22ffc:	00008067          	ret
   23000:	00200713          	li	a4,2
   23004:	7ff00513          	li	a0,2047
   23008:	00600613          	li	a2,6
   2300c:	0100006f          	j	2301c <sigprocmask@plt+0xffbc>
   23010:	00c70863          	beq	a4,a2,23020 <sigprocmask@plt+0xffc0>
   23014:	0057d79b          	srliw	a5,a5,0x5
   23018:	0017071b          	addiw	a4,a4,1
   2301c:	fef56ae3          	bltu	a0,a5,23010 <sigprocmask@plt+0xffb0>
   23020:	00070513          	mv	a0,a4
   23024:	00070613          	mv	a2,a4
   23028:	fff60613          	addi	a2,a2,-1
   2302c:	0185979b          	slliw	a5,a1,0x18
   23030:	0006081b          	sext.w	a6,a2
   23034:	4187d79b          	sraiw	a5,a5,0x18
   23038:	00081e63          	bnez	a6,23054 <sigprocmask@plt+0xfff4>
   2303c:	00004637          	lui	a2,0x4
   23040:	f006061b          	addiw	a2,a2,-256
   23044:	40e6573b          	sraw	a4,a2,a4
   23048:	00e7e7b3          	or	a5,a5,a4
   2304c:	00f68023          	sb	a5,0(a3)
   23050:	00008067          	ret
   23054:	03f7f793          	andi	a5,a5,63
   23058:	00c68833          	add	a6,a3,a2
   2305c:	f807e793          	ori	a5,a5,-128
   23060:	00f80023          	sb	a5,0(a6)
   23064:	4065d593          	srai	a1,a1,0x6
   23068:	fc1ff06f          	j	23028 <sigprocmask@plt+0xffc8>
   2306c:	0005c703          	lbu	a4,0(a1)
   23070:	07f00613          	li	a2,127
   23074:	00050693          	mv	a3,a0
   23078:	0007079b          	sext.w	a5,a4
   2307c:	00158513          	addi	a0,a1,1
   23080:	00e66663          	bltu	a2,a4,2308c <sigprocmask@plt+0x1002c>
   23084:	00e6a023          	sw	a4,0(a3)
   23088:	00008067          	ret
   2308c:	00000713          	li	a4,0
   23090:	00600593          	li	a1,6
   23094:	0017961b          	slliw	a2,a5,0x1
   23098:	0006079b          	sext.w	a5,a2
   2309c:	08067613          	andi	a2,a2,128
   230a0:	0017071b          	addiw	a4,a4,1
   230a4:	02060663          	beqz	a2,230d0 <sigprocmask@plt+0x10070>
   230a8:	feb716e3          	bne	a4,a1,23094 <sigprocmask@plt+0x10034>
   230ac:	0ff7f793          	andi	a5,a5,255
   230b0:	40e7d7bb          	sraw	a5,a5,a4
   230b4:	08000593          	li	a1,128
   230b8:	fff7071b          	addiw	a4,a4,-1
   230bc:	02071263          	bnez	a4,230e0 <sigprocmask@plt+0x10080>
   230c0:	07f00713          	li	a4,127
   230c4:	00f77a63          	bgeu	a4,a5,230d8 <sigprocmask@plt+0x10078>
   230c8:	00f6a023          	sw	a5,0(a3)
   230cc:	00008067          	ret
   230d0:	00100613          	li	a2,1
   230d4:	fcc71ce3          	bne	a4,a2,230ac <sigprocmask@plt+0x1004c>
   230d8:	fff00793          	li	a5,-1
   230dc:	fedff06f          	j	230c8 <sigprocmask@plt+0x10068>
   230e0:	00054603          	lbu	a2,0(a0)
   230e4:	0c067813          	andi	a6,a2,192
   230e8:	feb818e3          	bne	a6,a1,230d8 <sigprocmask@plt+0x10078>
   230ec:	0067979b          	slliw	a5,a5,0x6
   230f0:	03f67613          	andi	a2,a2,63
   230f4:	00f607bb          	addw	a5,a2,a5
   230f8:	00150513          	addi	a0,a0,1
   230fc:	fbdff06f          	j	230b8 <sigprocmask@plt+0x10058>
   23100:	ee5ff06f          	j	22fe4 <sigprocmask@plt+0xff84>
   23104:	fb010113          	addi	sp,sp,-80
   23108:	04813023          	sd	s0,64(sp)
   2310c:	02913c23          	sd	s1,56(sp)
   23110:	03213823          	sd	s2,48(sp)
   23114:	03313423          	sd	s3,40(sp)
   23118:	01513c23          	sd	s5,24(sp)
   2311c:	04113423          	sd	ra,72(sp)
   23120:	03413023          	sd	s4,32(sp)
   23124:	00050913          	mv	s2,a0
   23128:	00058993          	mv	s3,a1
   2312c:	00060413          	mv	s0,a2
   23130:	00060493          	mv	s1,a2
   23134:	00500a93          	li	s5,5
   23138:	049ae263          	bltu	s5,s1,2317c <sigprocmask@plt+0x1011c>
   2313c:	04048a63          	beqz	s1,23190 <sigprocmask@plt+0x10130>
   23140:	0009aa83          	lw	s5,0(s3)
   23144:	00810513          	addi	a0,sp,8
   23148:	000a8593          	mv	a1,s5
   2314c:	e99ff0ef          	jal	ra,22fe4 <sigprocmask@plt+0xff84>
   23150:	00050a13          	mv	s4,a0
   23154:	02a4ee63          	bltu	s1,a0,23190 <sigprocmask@plt+0x10130>
   23158:	00050613          	mv	a2,a0
   2315c:	00810593          	addi	a1,sp,8
   23160:	00090513          	mv	a0,s2
   23164:	8adef0ef          	jal	ra,12a10 <memcpy@plt>
   23168:	020a8463          	beqz	s5,23190 <sigprocmask@plt+0x10130>
   2316c:	00498993          	addi	s3,s3,4
   23170:	01490933          	add	s2,s2,s4
   23174:	414484b3          	sub	s1,s1,s4
   23178:	fc5ff06f          	j	2313c <sigprocmask@plt+0x100dc>
   2317c:	0009aa03          	lw	s4,0(s3)
   23180:	00090513          	mv	a0,s2
   23184:	000a0593          	mv	a1,s4
   23188:	e5dff0ef          	jal	ra,22fe4 <sigprocmask@plt+0xff84>
   2318c:	020a1663          	bnez	s4,231b8 <sigprocmask@plt+0x10158>
   23190:	40940533          	sub	a0,s0,s1
   23194:	04813083          	ld	ra,72(sp)
   23198:	04013403          	ld	s0,64(sp)
   2319c:	03813483          	ld	s1,56(sp)
   231a0:	03013903          	ld	s2,48(sp)
   231a4:	02813983          	ld	s3,40(sp)
   231a8:	02013a03          	ld	s4,32(sp)
   231ac:	01813a83          	ld	s5,24(sp)
   231b0:	05010113          	addi	sp,sp,80
   231b4:	00008067          	ret
   231b8:	00498993          	addi	s3,s3,4
   231bc:	00a90933          	add	s2,s2,a0
   231c0:	40a484b3          	sub	s1,s1,a0
   231c4:	f75ff06f          	j	23138 <sigprocmask@plt+0x100d8>
   231c8:	fc010113          	addi	sp,sp,-64
   231cc:	02813823          	sd	s0,48(sp)
   231d0:	02913423          	sd	s1,40(sp)
   231d4:	03213023          	sd	s2,32(sp)
   231d8:	01313c23          	sd	s3,24(sp)
   231dc:	02113c23          	sd	ra,56(sp)
   231e0:	00050493          	mv	s1,a0
   231e4:	00060413          	mv	s0,a2
   231e8:	00060913          	mv	s2,a2
   231ec:	fff00993          	li	s3,-1
   231f0:	00091663          	bnez	s2,231fc <sigprocmask@plt+0x1019c>
   231f4:	41240533          	sub	a0,s0,s2
   231f8:	01c0006f          	j	23214 <sigprocmask@plt+0x101b4>
   231fc:	00c10513          	addi	a0,sp,12
   23200:	e6dff0ef          	jal	ra,2306c <sigprocmask@plt+0x1000c>
   23204:	00c12783          	lw	a5,12(sp)
   23208:	00050593          	mv	a1,a0
   2320c:	03379263          	bne	a5,s3,23230 <sigprocmask@plt+0x101d0>
   23210:	fff00513          	li	a0,-1
   23214:	03813083          	ld	ra,56(sp)
   23218:	03013403          	ld	s0,48(sp)
   2321c:	02813483          	ld	s1,40(sp)
   23220:	02013903          	ld	s2,32(sp)
   23224:	01813983          	ld	s3,24(sp)
   23228:	04010113          	addi	sp,sp,64
   2322c:	00008067          	ret
   23230:	00048663          	beqz	s1,2323c <sigprocmask@plt+0x101dc>
   23234:	00f4a023          	sw	a5,0(s1)
   23238:	00448493          	addi	s1,s1,4
   2323c:	fa078ce3          	beqz	a5,231f4 <sigprocmask@plt+0x10194>
   23240:	fff90913          	addi	s2,s2,-1
   23244:	fadff06f          	j	231f0 <sigprocmask@plt+0x10190>
   23248:	00050793          	mv	a5,a0
   2324c:	02050663          	beqz	a0,23278 <sigprocmask@plt+0x10218>
   23250:	f7f57713          	andi	a4,a0,-129
   23254:	01f00693          	li	a3,31
   23258:	fff00513          	li	a0,-1
   2325c:	02e6f063          	bgeu	a3,a4,2327c <sigprocmask@plt+0x1021c>
   23260:	07f00713          	li	a4,127
   23264:	00e78c63          	beq	a5,a4,2327c <sigprocmask@plt+0x1021c>
   23268:	2ff00713          	li	a4,767
   2326c:	00f76863          	bltu	a4,a5,2327c <sigprocmask@plt+0x1021c>
   23270:	00100513          	li	a0,1
   23274:	00008067          	ret
   23278:	00000513          	li	a0,0
   2327c:	00008067          	ret
   23280:	f7010113          	addi	sp,sp,-144
   23284:	08813023          	sd	s0,128(sp)
   23288:	06913c23          	sd	s1,120(sp)
   2328c:	07213823          	sd	s2,112(sp)
   23290:	07313423          	sd	s3,104(sp)
   23294:	07413023          	sd	s4,96(sp)
   23298:	05513c23          	sd	s5,88(sp)
   2329c:	05713423          	sd	s7,72(sp)
   232a0:	05813023          	sd	s8,64(sp)
   232a4:	03913c23          	sd	s9,56(sp)
   232a8:	03a13823          	sd	s10,48(sp)
   232ac:	03b13423          	sd	s11,40(sp)
   232b0:	08113423          	sd	ra,136(sp)
   232b4:	05613823          	sd	s6,80(sp)
   232b8:	00050993          	mv	s3,a0
   232bc:	00058a13          	mv	s4,a1
   232c0:	00060a93          	mv	s5,a2
   232c4:	00068b93          	mv	s7,a3
   232c8:	00060913          	mv	s2,a2
   232cc:	00000493          	li	s1,0
   232d0:	00000413          	li	s0,0
   232d4:	fff00c13          	li	s8,-1
   232d8:	03f00c93          	li	s9,63
   232dc:	2ff00d13          	li	s10,767
   232e0:	00100d93          	li	s11,1
   232e4:	000a0593          	mv	a1,s4
   232e8:	01c10513          	addi	a0,sp,28
   232ec:	d81ff0ef          	jal	ra,2306c <sigprocmask@plt+0x1000c>
   232f0:	00050a13          	mv	s4,a0
   232f4:	01c12503          	lw	a0,28(sp)
   232f8:	412a8b3b          	subw	s6,s5,s2
   232fc:	01850a63          	beq	a0,s8,23310 <sigprocmask@plt+0x102b0>
   23300:	04050e63          	beqz	a0,2335c <sigprocmask@plt+0x102fc>
   23304:	00ad4663          	blt	s10,a0,23310 <sigprocmask@plt+0x102b0>
   23308:	f41ff0ef          	jal	ra,23248 <sigprocmask@plt+0x101e8>
   2330c:	01b50463          	beq	a0,s11,23314 <sigprocmask@plt+0x102b4>
   23310:	01912e23          	sw	s9,28(sp)
   23314:	fff9079b          	addiw	a5,s2,-1
   23318:	00f13423          	sd	a5,8(sp)
   2331c:	0407c063          	bltz	a5,2335c <sigprocmask@plt+0x102fc>
   23320:	0064859b          	addiw	a1,s1,6
   23324:	02059593          	slli	a1,a1,0x20
   23328:	0205d593          	srli	a1,a1,0x20
   2332c:	00040513          	mv	a0,s0
   23330:	a0cf10ef          	jal	ra,1453c <sigprocmask@plt+0x14dc>
   23334:	00050413          	mv	s0,a0
   23338:	01c12583          	lw	a1,28(sp)
   2333c:	02049513          	slli	a0,s1,0x20
   23340:	02055513          	srli	a0,a0,0x20
   23344:	00a40533          	add	a0,s0,a0
   23348:	c9dff0ef          	jal	ra,22fe4 <sigprocmask@plt+0xff84>
   2334c:	00813783          	ld	a5,8(sp)
   23350:	009504bb          	addw	s1,a0,s1
   23354:	00078913          	mv	s2,a5
   23358:	f8dff06f          	j	232e4 <sigprocmask@plt+0x10284>
   2335c:	040b8863          	beqz	s7,233ac <sigprocmask@plt+0x1034c>
   23360:	01248a3b          	addw	s4,s1,s2
   23364:	001a059b          	addiw	a1,s4,1
   23368:	02059593          	slli	a1,a1,0x20
   2336c:	00040513          	mv	a0,s0
   23370:	0205d593          	srli	a1,a1,0x20
   23374:	9c8f10ef          	jal	ra,1453c <sigprocmask@plt+0x14dc>
   23378:	00050413          	mv	s0,a0
   2337c:	00090713          	mv	a4,s2
   23380:	02000693          	li	a3,32
   23384:	40ea07bb          	subw	a5,s4,a4
   23388:	fff7071b          	addiw	a4,a4,-1
   2338c:	08075863          	bgez	a4,2341c <sigprocmask@plt+0x103bc>
   23390:	fff9079b          	addiw	a5,s2,-1
   23394:	fff00693          	li	a3,-1
   23398:	00000713          	li	a4,0
   2339c:	00d7c463          	blt	a5,a3,233a4 <sigprocmask@plt+0x10344>
   233a0:	00090713          	mv	a4,s2
   233a4:	009704bb          	addw	s1,a4,s1
   233a8:	000a8b13          	mv	s6,s5
   233ac:	00041863          	bnez	s0,233bc <sigprocmask@plt+0x1035c>
   233b0:	00100513          	li	a0,1
   233b4:	9b8f10ef          	jal	ra,1456c <sigprocmask@plt+0x150c>
   233b8:	00050413          	mv	s0,a0
   233bc:	02049793          	slli	a5,s1,0x20
   233c0:	0207d793          	srli	a5,a5,0x20
   233c4:	00f407b3          	add	a5,s0,a5
   233c8:	00078023          	sb	zero,0(a5)
   233cc:	00098863          	beqz	s3,233dc <sigprocmask@plt+0x1037c>
   233d0:	0099a023          	sw	s1,0(s3)
   233d4:	0169a223          	sw	s6,4(s3)
   233d8:	0169a423          	sw	s6,8(s3)
   233dc:	08813083          	ld	ra,136(sp)
   233e0:	00040513          	mv	a0,s0
   233e4:	08013403          	ld	s0,128(sp)
   233e8:	07813483          	ld	s1,120(sp)
   233ec:	07013903          	ld	s2,112(sp)
   233f0:	06813983          	ld	s3,104(sp)
   233f4:	06013a03          	ld	s4,96(sp)
   233f8:	05813a83          	ld	s5,88(sp)
   233fc:	05013b03          	ld	s6,80(sp)
   23400:	04813b83          	ld	s7,72(sp)
   23404:	04013c03          	ld	s8,64(sp)
   23408:	03813c83          	ld	s9,56(sp)
   2340c:	03013d03          	ld	s10,48(sp)
   23410:	02813d83          	ld	s11,40(sp)
   23414:	09010113          	addi	sp,sp,144
   23418:	00008067          	ret
   2341c:	02079793          	slli	a5,a5,0x20
   23420:	0207d793          	srli	a5,a5,0x20
   23424:	00f407b3          	add	a5,s0,a5
   23428:	00d78023          	sb	a3,0(a5)
   2342c:	f59ff06f          	j	23384 <sigprocmask@plt+0x10324>
   23430:	ff010113          	addi	sp,sp,-16
   23434:	80000637          	lui	a2,0x80000
   23438:	00813023          	sd	s0,0(sp)
   2343c:	00050593          	mv	a1,a0
   23440:	00050413          	mv	s0,a0
   23444:	fff64613          	not	a2,a2
   23448:	00000513          	li	a0,0
   2344c:	00113423          	sd	ra,8(sp)
   23450:	d79ff0ef          	jal	ra,231c8 <sigprocmask@plt+0x10168>
   23454:	fff00793          	li	a5,-1
   23458:	00f51c63          	bne	a0,a5,23470 <sigprocmask@plt+0x10410>
   2345c:	00040513          	mv	a0,s0
   23460:	00013403          	ld	s0,0(sp)
   23464:	00813083          	ld	ra,8(sp)
   23468:	01010113          	addi	sp,sp,16
   2346c:	b05ef06f          	j	12f70 <strlen@plt>
   23470:	00813083          	ld	ra,8(sp)
   23474:	00013403          	ld	s0,0(sp)
   23478:	01010113          	addi	sp,sp,16
   2347c:	00008067          	ret
   23480:	fe010113          	addi	sp,sp,-32
   23484:	00050593          	mv	a1,a0
   23488:	00010513          	mv	a0,sp
   2348c:	00113c23          	sd	ra,24(sp)
   23490:	c14ff0ef          	jal	ra,228a4 <sigprocmask@plt+0xf844>
   23494:	01813083          	ld	ra,24(sp)
   23498:	00816503          	lwu	a0,8(sp)
   2349c:	02010113          	addi	sp,sp,32
   234a0:	00008067          	ret
   234a4:	80000637          	lui	a2,0x80000
   234a8:	00000693          	li	a3,0
   234ac:	fff64613          	not	a2,a2
   234b0:	dd1ff06f          	j	23280 <sigprocmask@plt+0x10220>
   234b4:	fd010113          	addi	sp,sp,-48
   234b8:	00913c23          	sd	s1,24(sp)
   234bc:	00100493          	li	s1,1
   234c0:	00b494bb          	sllw	s1,s1,a1
   234c4:	fff4879b          	addiw	a5,s1,-1
   234c8:	00f677b3          	and	a5,a2,a5
   234cc:	01313423          	sd	s3,8(sp)
   234d0:	02113423          	sd	ra,40(sp)
   234d4:	02813023          	sd	s0,32(sp)
   234d8:	01213823          	sd	s2,16(sp)
   234dc:	0007879b          	sext.w	a5,a5
   234e0:	00050993          	mv	s3,a0
   234e4:	04079863          	bnez	a5,23534 <sigprocmask@plt+0x104d4>
   234e8:	0085d91b          	srliw	s2,a1,0x8
   234ec:	00c485bb          	addw	a1,s1,a2
   234f0:	0015859b          	addiw	a1,a1,1
   234f4:	032585bb          	mulw	a1,a1,s2
   234f8:	00060413          	mv	s0,a2
   234fc:	02059593          	slli	a1,a1,0x20
   23500:	0205d593          	srli	a1,a1,0x20
   23504:	838f10ef          	jal	ra,1453c <sigprocmask@plt+0x14dc>
   23508:	0324043b          	mulw	s0,s0,s2
   2350c:	0014861b          	addiw	a2,s1,1
   23510:	00050993          	mv	s3,a0
   23514:	00000593          	li	a1,0
   23518:	0326063b          	mulw	a2,a2,s2
   2351c:	02041413          	slli	s0,s0,0x20
   23520:	02045413          	srli	s0,s0,0x20
   23524:	00850533          	add	a0,a0,s0
   23528:	02061613          	slli	a2,a2,0x20
   2352c:	02065613          	srli	a2,a2,0x20
   23530:	831ef0ef          	jal	ra,12d60 <memset@plt>
   23534:	02813083          	ld	ra,40(sp)
   23538:	02013403          	ld	s0,32(sp)
   2353c:	01813483          	ld	s1,24(sp)
   23540:	01013903          	ld	s2,16(sp)
   23544:	00098513          	mv	a0,s3
   23548:	00813983          	ld	s3,8(sp)
   2354c:	03010113          	addi	sp,sp,48
   23550:	00008067          	ret
   23554:	fd010113          	addi	sp,sp,-48
   23558:	01313423          	sd	s3,8(sp)
   2355c:	db918993          	addi	s3,gp,-583
   23560:	02813023          	sd	s0,32(sp)
   23564:	0009c403          	lbu	s0,0(s3)
   23568:	00913c23          	sd	s1,24(sp)
   2356c:	00341793          	slli	a5,s0,0x3
   23570:	eb818493          	addi	s1,gp,-328
   23574:	00f484b3          	add	s1,s1,a5
   23578:	01213823          	sd	s2,16(sp)
   2357c:	00050913          	mv	s2,a0
   23580:	0004b503          	ld	a0,0(s1)
   23584:	0014041b          	addiw	s0,s0,1
   23588:	02113423          	sd	ra,40(sp)
   2358c:	00347413          	andi	s0,s0,3
   23590:	ac1ef0ef          	jal	ra,13050 <free@plt>
   23594:	02813083          	ld	ra,40(sp)
   23598:	00898023          	sb	s0,0(s3)
   2359c:	02013403          	ld	s0,32(sp)
   235a0:	0124b023          	sd	s2,0(s1)
   235a4:	00813983          	ld	s3,8(sp)
   235a8:	01813483          	ld	s1,24(sp)
   235ac:	00090513          	mv	a0,s2
   235b0:	01013903          	ld	s2,16(sp)
   235b4:	03010113          	addi	sp,sp,48
   235b8:	00008067          	ret
   235bc:	0005b583          	ld	a1,0(a1)
   235c0:	00053503          	ld	a0,0(a0)
   235c4:	82def06f          	j	12df0 <strcmp@plt>
   235c8:	000236b7          	lui	a3,0x23
   235cc:	02059593          	slli	a1,a1,0x20
   235d0:	5bc68693          	addi	a3,a3,1468 # 235bc <sigprocmask@plt+0x1055c>
   235d4:	00800613          	li	a2,8
   235d8:	0205d593          	srli	a1,a1,0x20
   235dc:	c24ef06f          	j	12a00 <qsort@plt>
   235e0:	fb010113          	addi	sp,sp,-80
   235e4:	04813023          	sd	s0,64(sp)
   235e8:	02913c23          	sd	s1,56(sp)
   235ec:	03413023          	sd	s4,32(sp)
   235f0:	01513c23          	sd	s5,24(sp)
   235f4:	01613823          	sd	s6,16(sp)
   235f8:	01713423          	sd	s7,8(sp)
   235fc:	01813023          	sd	s8,0(sp)
   23600:	04113423          	sd	ra,72(sp)
   23604:	03213823          	sd	s2,48(sp)
   23608:	03313423          	sd	s3,40(sp)
   2360c:	00050a93          	mv	s5,a0
   23610:	00058a13          	mv	s4,a1
   23614:	00000413          	li	s0,0
   23618:	00000493          	li	s1,0
   2361c:	fff00b13          	li	s6,-1
   23620:	f0000b93          	li	s7,-256
   23624:	00a00c13          	li	s8,10
   23628:	000a8513          	mv	a0,s5
   2362c:	b54ef0ef          	jal	ra,12980 <getc_unlocked@plt>
   23630:	00050993          	mv	s3,a0
   23634:	07651063          	bne	a0,s6,23694 <sigprocmask@plt+0x10634>
   23638:	00048913          	mv	s2,s1
   2363c:	000a0463          	beqz	s4,23644 <sigprocmask@plt+0x105e4>
   23640:	012a3023          	sd	s2,0(s4)
   23644:	00040e63          	beqz	s0,23660 <sigprocmask@plt+0x10600>
   23648:	00190593          	addi	a1,s2,1
   2364c:	00040513          	mv	a0,s0
   23650:	eedf00ef          	jal	ra,1453c <sigprocmask@plt+0x14dc>
   23654:	01250933          	add	s2,a0,s2
   23658:	00050413          	mv	s0,a0
   2365c:	00090023          	sb	zero,0(s2)
   23660:	04813083          	ld	ra,72(sp)
   23664:	00040513          	mv	a0,s0
   23668:	04013403          	ld	s0,64(sp)
   2366c:	03813483          	ld	s1,56(sp)
   23670:	03013903          	ld	s2,48(sp)
   23674:	02813983          	ld	s3,40(sp)
   23678:	02013a03          	ld	s4,32(sp)
   2367c:	01813a83          	ld	s5,24(sp)
   23680:	01013b03          	ld	s6,16(sp)
   23684:	00813b83          	ld	s7,8(sp)
   23688:	00013c03          	ld	s8,0(sp)
   2368c:	05010113          	addi	sp,sp,80
   23690:	00008067          	ret
   23694:	0ff4f793          	andi	a5,s1,255
   23698:	00079e63          	bnez	a5,236b4 <sigprocmask@plt+0x10654>
   2369c:	01749463          	bne	s1,s7,236a4 <sigprocmask@plt+0x10644>
   236a0:	e59f00ef          	jal	ra,144f8 <sigprocmask@plt+0x1498>
   236a4:	00040513          	mv	a0,s0
   236a8:	10048593          	addi	a1,s1,256
   236ac:	e91f00ef          	jal	ra,1453c <sigprocmask@plt+0x14dc>
   236b0:	00050413          	mv	s0,a0
   236b4:	00148913          	addi	s2,s1,1
   236b8:	009404b3          	add	s1,s0,s1
   236bc:	01348023          	sb	s3,0(s1)
   236c0:	f6098ee3          	beqz	s3,2363c <sigprocmask@plt+0x105dc>
   236c4:	000a0463          	beqz	s4,236cc <sigprocmask@plt+0x1066c>
   236c8:	f7898ce3          	beq	s3,s8,23640 <sigprocmask@plt+0x105e0>
   236cc:	00090493          	mv	s1,s2
   236d0:	f59ff06f          	j	23628 <sigprocmask@plt+0x105c8>
   236d4:	fe010113          	addi	sp,sp,-32
   236d8:	00810593          	addi	a1,sp,8
   236dc:	00113c23          	sd	ra,24(sp)
   236e0:	f01ff0ef          	jal	ra,235e0 <sigprocmask@plt+0x10580>
   236e4:	00813783          	ld	a5,8(sp)
   236e8:	02078063          	beqz	a5,23708 <sigprocmask@plt+0x106a8>
   236ec:	fff78793          	addi	a5,a5,-1
   236f0:	00f13423          	sd	a5,8(sp)
   236f4:	00f507b3          	add	a5,a0,a5
   236f8:	0007c683          	lbu	a3,0(a5)
   236fc:	00a00713          	li	a4,10
   23700:	00e69463          	bne	a3,a4,23708 <sigprocmask@plt+0x106a8>
   23704:	00078023          	sb	zero,0(a5)
   23708:	01813083          	ld	ra,24(sp)
   2370c:	02010113          	addi	sp,sp,32
   23710:	00008067          	ret
